---
triple:          'arm64-apple-darwin'
binary-path:     '/Users/zacharyspero/Code/mixbar/.build/arm64-apple-macosx/debug/mixbarctl'
relocations:
  - { offset: 0x977B5, size: 0x8, addend: 0x0, symName: _MixBarEngineErrorDomain, symObjAddr: 0x6480, symBinAddr: 0x100054B88, symSize: 0x0 }
  - { offset: 0x9782F, size: 0x8, addend: 0x0, symName: __ZL42kBGMRunningSomewhereOtherThanBGMAppAddress, symObjAddr: 0x8420, symBinAddr: 0x10004FE98, symSize: 0x0 }
  - { offset: 0x9F257, size: 0x8, addend: 0x0, symName: __ZNSt3__122__make_exception_guardB8ne190102INS_6vectorIjNS_9allocatorIjEEE16__destroy_vectorEEENS_28__exception_guard_exceptionsIT_EES7_, symObjAddr: 0x4918, symBinAddr: 0x100005960, symSize: 0x40 }
  - { offset: 0x9F28F, size: 0x8, addend: 0x0, symName: __ZNSt3__119__allocate_at_leastB8ne190102INS_9allocatorIjEEEENS_19__allocation_resultINS_16allocator_traitsIT_E7pointerEEERS5_m, symObjAddr: 0x4CFC, symBinAddr: 0x100005D44, symSize: 0x40 }
  - { offset: 0x9F2D6, size: 0x8, addend: 0x0, symName: __ZNSt3__13minB8ne190102ImEERKT_S3_S3_, symObjAddr: 0x4DA0, symBinAddr: 0x100005DE8, symSize: 0x2C }
  - { offset: 0x9F541, size: 0x8, addend: 0x0, symName: __ZNSt3__13minB8ne190102ImNS_6__lessIvvEEEERKT_S5_S5_T0_, symObjAddr: 0x4E2C, symBinAddr: 0x100005E74, symSize: 0x54 }
  - { offset: 0x9F5ED, size: 0x8, addend: 0x0, symName: __ZNSt3__120__throw_length_errorB8ne190102EPKc, symObjAddr: 0x4F04, symBinAddr: 0x100005F4C, symSize: 0x64 }
  - { offset: 0x9F617, size: 0x8, addend: 0x0, symName: __ZNSt3__117__libcpp_allocateB8ne190102Emm, symObjAddr: 0x5068, symBinAddr: 0x1000060B0, symSize: 0x28 }
  - { offset: 0x9F657, size: 0x8, addend: 0x0, symName: __ZNSt3__121__libcpp_operator_newB8ne190102IJmEEEPvDpT_, symObjAddr: 0x5090, symBinAddr: 0x1000060D8, symSize: 0x24 }
  - { offset: 0x9F694, size: 0x8, addend: 0x0, symName: __ZNSt3__112__to_addressB8ne190102IjEEPT_S2_, symObjAddr: 0x518C, symBinAddr: 0x1000061D4, symSize: 0x14 }
  - { offset: 0x9F6CC, size: 0x8, addend: 0x0, symName: __ZNSt3__119__libcpp_deallocateB8ne190102EPvmm, symObjAddr: 0x54D8, symBinAddr: 0x100006520, symSize: 0x30 }
  - { offset: 0x9F718, size: 0x8, addend: 0x0, symName: __ZNSt3__127__do_deallocate_handle_sizeB8ne190102IJEEEvPvmDpT_, symObjAddr: 0x5508, symBinAddr: 0x100006550, symSize: 0x28 }
  - { offset: 0x9F75A, size: 0x8, addend: 0x0, symName: __ZNSt3__124__libcpp_operator_deleteB8ne190102IJPvEEEvDpT_, symObjAddr: 0x5530, symBinAddr: 0x100006578, symSize: 0x24 }
  - { offset: 0xA062B, size: 0x8, addend: 0x0, symName: __ZSt28__throw_bad_array_new_lengthB8ne190102v, symObjAddr: 0x5034, symBinAddr: 0x10000607C, symSize: 0x34 }
  - { offset: 0xA1E0D, size: 0x8, addend: 0x0, symName: '-[MXBAppVolume pid]', symObjAddr: 0x0, symBinAddr: 0x100001048, symSize: 0x1C }
  - { offset: 0xA1E46, size: 0x8, addend: 0x0, symName: '-[MXBAppVolume setPid:]', symObjAddr: 0x1C, symBinAddr: 0x100001064, symSize: 0x24 }
  - { offset: 0xA1E88, size: 0x8, addend: 0x0, symName: '-[MXBAppVolume bundleID]', symObjAddr: 0x40, symBinAddr: 0x100001088, symSize: 0x1C }
  - { offset: 0xA1EC1, size: 0x8, addend: 0x0, symName: '-[MXBAppVolume setBundleID:]', symObjAddr: 0x5C, symBinAddr: 0x1000010A4, symSize: 0x38 }
  - { offset: 0xA1F03, size: 0x8, addend: 0x0, symName: '-[MXBAppVolume relativeVolume]', symObjAddr: 0x94, symBinAddr: 0x1000010DC, symSize: 0x1C }
  - { offset: 0xA1F3C, size: 0x8, addend: 0x0, symName: '-[MXBAppVolume setRelativeVolume:]', symObjAddr: 0xB0, symBinAddr: 0x1000010F8, symSize: 0x24 }
  - { offset: 0xA1F7E, size: 0x8, addend: 0x0, symName: '-[MXBAppVolume panPosition]', symObjAddr: 0xD4, symBinAddr: 0x10000111C, symSize: 0x1C }
  - { offset: 0xA1FB7, size: 0x8, addend: 0x0, symName: '-[MXBAppVolume setPanPosition:]', symObjAddr: 0xF0, symBinAddr: 0x100001138, symSize: 0x24 }
  - { offset: 0xA1FF9, size: 0x8, addend: 0x0, symName: '-[MXBAppVolume .cxx_destruct]', symObjAddr: 0x114, symBinAddr: 0x10000115C, symSize: 0x30 }
  - { offset: 0xA202E, size: 0x8, addend: 0x0, symName: '-[MXBOutputDevice audioObjectID]', symObjAddr: 0x144, symBinAddr: 0x10000118C, symSize: 0x1C }
  - { offset: 0xA2067, size: 0x8, addend: 0x0, symName: '-[MXBOutputDevice setAudioObjectID:]', symObjAddr: 0x160, symBinAddr: 0x1000011A8, symSize: 0x24 }
  - { offset: 0xA20A9, size: 0x8, addend: 0x0, symName: '-[MXBOutputDevice name]', symObjAddr: 0x184, symBinAddr: 0x1000011CC, symSize: 0x1C }
  - { offset: 0xA20E2, size: 0x8, addend: 0x0, symName: '-[MXBOutputDevice setName:]', symObjAddr: 0x1A0, symBinAddr: 0x1000011E8, symSize: 0x38 }
  - { offset: 0xA2124, size: 0x8, addend: 0x0, symName: '-[MXBOutputDevice uid]', symObjAddr: 0x1D8, symBinAddr: 0x100001220, symSize: 0x1C }
  - { offset: 0xA215D, size: 0x8, addend: 0x0, symName: '-[MXBOutputDevice setUid:]', symObjAddr: 0x1F4, symBinAddr: 0x10000123C, symSize: 0x38 }
  - { offset: 0xA219F, size: 0x8, addend: 0x0, symName: '-[MXBOutputDevice .cxx_destruct]', symObjAddr: 0x22C, symBinAddr: 0x100001274, symSize: 0x48 }
  - { offset: 0xA21D4, size: 0x8, addend: 0x0, symName: '+[MixBarEngine startEngineWithPreferredOutputUID:error:]', symObjAddr: 0x274, symBinAddr: 0x1000012BC, symSize: 0xA4 }
  - { offset: 0xA222B, size: 0x8, addend: 0x0, symName: '+[MixBarEngine inspectorWithError:]', symObjAddr: 0x318, symBinAddr: 0x100001360, symSize: 0x3C }
  - { offset: 0xA2273, size: 0x8, addend: 0x0, symName: '-[MixBarEngine initForInspection:]', symObjAddr: 0x354, symBinAddr: 0x10000139C, symSize: 0x38C }
  - { offset: 0xA22CC, size: 0x8, addend: 0x0, symName: __ZN14BGMAudioDeviceaSERKS_, symObjAddr: 0x6E0, symBinAddr: 0x100001728, symSize: 0x34 }
  - { offset: 0xA23A0, size: 0x8, addend: 0x0, symName: __ZNK11CAException8GetErrorEv, symObjAddr: 0x714, symBinAddr: 0x10000175C, symSize: 0x18 }
  - { offset: 0xA23C6, size: 0x8, addend: 0x0, symName: '-[MixBarEngine initAndStartWithPreferredOutputUID:error:]', symObjAddr: 0x73C, symBinAddr: 0x100001784, symSize: 0x7F4 }
  - { offset: 0xA2461, size: 0x8, addend: 0x0, symName: '-[MixBarEngine stopAndRestoreDefaultDevice]', symObjAddr: 0xF30, symBinAddr: 0x100001F78, symSize: 0x2AC }
  - { offset: 0xA24BB, size: 0x8, addend: 0x0, symName: '-[MixBarEngine reassertDefaultDevice]', symObjAddr: 0x11DC, symBinAddr: 0x100002224, symSize: 0x1C8 }
  - { offset: 0xA2506, size: 0x8, addend: 0x0, symName: '-[MixBarEngine pickInitialOutputDeviceWithPreferredUID:]', symObjAddr: 0x13A4, symBinAddr: 0x1000023EC, symSize: 0x5C4 }
  - { offset: 0xA25AF, size: 0x8, addend: 0x0, symName: '-[MixBarEngine isOwnVirtualDevice:]', symObjAddr: 0x1968, symBinAddr: 0x1000029B0, symSize: 0x1A0 }
  - { offset: 0xA262B, size: 0x8, addend: 0x0, symName: __ZN10CACFStringC1EPK10__CFString, symObjAddr: 0x1B08, symBinAddr: 0x100002B50, symSize: 0x34 }
  - { offset: 0xA2664, size: 0x8, addend: 0x0, symName: __ZNK10CACFString11GetCFStringEv, symObjAddr: 0x1B3C, symBinAddr: 0x100002B84, symSize: 0x18 }
  - { offset: 0xA268A, size: 0x8, addend: 0x0, symName: __ZN10CACFStringD1Ev, symObjAddr: 0x1B54, symBinAddr: 0x100002B9C, symSize: 0x2C }
  - { offset: 0xA26B4, size: 0x8, addend: 0x0, symName: '-[MixBarEngine outputDevices]', symObjAddr: 0x1B80, symBinAddr: 0x100002BC8, symSize: 0x4CC }
  - { offset: 0xA27BC, size: 0x8, addend: 0x0, symName: __ZNSt3__16vectorIjNS_9allocatorIjEEEC1B8ne190102Em, symObjAddr: 0x204C, symBinAddr: 0x100003094, symSize: 0x34 }
  - { offset: 0xA27F6, size: 0x8, addend: 0x0, symName: __ZNSt3__16vectorIjNS_9allocatorIjEEE4dataB8ne190102Ev, symObjAddr: 0x2080, symBinAddr: 0x1000030C8, symSize: 0x28 }
  - { offset: 0xA281C, size: 0x8, addend: 0x0, symName: __ZNSt3__16vectorIjNS_9allocatorIjEEEixB8ne190102Em, symObjAddr: 0x20A8, symBinAddr: 0x1000030F0, symSize: 0x24 }
  - { offset: 0xA2854, size: 0x8, addend: 0x0, symName: __ZNSt3__16vectorIjNS_9allocatorIjEEED1B8ne190102Ev, symObjAddr: 0x20CC, symBinAddr: 0x100003114, symSize: 0x2C }
  - { offset: 0xA287E, size: 0x8, addend: 0x0, symName: '-[MixBarEngine outputDeviceID]', symObjAddr: 0x20F8, symBinAddr: 0x100003140, symSize: 0x128 }
  - { offset: 0xA28B8, size: 0x8, addend: 0x0, symName: '-[MixBarEngine outputDeviceUID]', symObjAddr: 0x2220, symBinAddr: 0x100003268, symSize: 0x1F8 }
  - { offset: 0xA2920, size: 0x8, addend: 0x0, symName: '-[MixBarEngine setOutputDeviceByID:error:]', symObjAddr: 0x2418, symBinAddr: 0x100003460, symSize: 0x584 }
  - { offset: 0xA29BD, size: 0x8, addend: 0x0, symName: __ZNK14BGMAudioDevicecvjEv, symObjAddr: 0x299C, symBinAddr: 0x1000039E4, symSize: 0x24 }
  - { offset: 0xA29E3, size: 0x8, addend: 0x0, symName: __ZN24BGMBackgroundMusicDevice28GetUISoundsBGMDeviceInstanceEv, symObjAddr: 0x29C0, symBinAddr: 0x100003A08, symSize: 0x3C }
  - { offset: 0xA2A09, size: 0x8, addend: 0x0, symName: '-[MixBarEngine setVolume:forPID:bundleID:]', symObjAddr: 0x29FC, symBinAddr: 0x100003A44, symSize: 0x218 }
  - { offset: 0xA2B14, size: 0x8, addend: 0x0, symName: '-[MixBarEngine setPan:forPID:bundleID:]', symObjAddr: 0x2C14, symBinAddr: 0x100003C5C, symSize: 0x21C }
  - { offset: 0xA2C1F, size: 0x8, addend: 0x0, symName: '-[MixBarEngine appVolumes]', symObjAddr: 0x2E30, symBinAddr: 0x100003E78, symSize: 0x388 }
  - { offset: 0xA40C3, size: 0x8, addend: 0x0, symName: __ZN9CACFArrayC1EPK9__CFArrayb, symObjAddr: 0x31B8, symBinAddr: 0x100004200, symSize: 0x40 }
  - { offset: 0xA410B, size: 0x8, addend: 0x0, symName: __ZNK9CACFArray14GetNumberItemsEv, symObjAddr: 0x31F8, symBinAddr: 0x100004240, symSize: 0x50 }
  - { offset: 0xA4140, size: 0x8, addend: 0x0, symName: __ZN14CACFDictionaryC1EPK14__CFDictionaryb, symObjAddr: 0x3248, symBinAddr: 0x100004290, symSize: 0x40 }
  - { offset: 0xA4188, size: 0x8, addend: 0x0, symName: __ZN14CACFDictionaryD1Ev, symObjAddr: 0x3288, symBinAddr: 0x1000042D0, symSize: 0x2C }
  - { offset: 0xA41B2, size: 0x8, addend: 0x0, symName: __ZN9CACFArrayD1Ev, symObjAddr: 0x32B4, symBinAddr: 0x1000042FC, symSize: 0x2C }
  - { offset: 0xA41DC, size: 0x8, addend: 0x0, symName: '+[MixBarEngine deviceIsRunning:]', symObjAddr: 0x32E0, symBinAddr: 0x100004328, symSize: 0xC8 }
  - { offset: 0xA424D, size: 0x8, addend: 0x0, symName: '-[MixBarEngine deviceIsRunningSomewhere]', symObjAddr: 0x33A8, symBinAddr: 0x1000043F0, symSize: 0x98 }
  - { offset: 0xA4297, size: 0x8, addend: 0x0, symName: '-[MixBarEngine registerListeners]', symObjAddr: 0x3440, symBinAddr: 0x100004488, symSize: 0xE0 }
  - { offset: 0xA432C, size: 0x8, addend: 0x0, symName: '__ZZ33-[MixBarEngine registerListeners]ENK3$_0clEj', symObjAddr: 0x3520, symBinAddr: 0x100004568, symSize: 0x138 }
  - { offset: 0xA4389, size: 0x8, addend: 0x0, symName: '-[MixBarEngine removeListeners]', symObjAddr: 0x3658, symBinAddr: 0x1000046A0, symSize: 0xDC }
  - { offset: 0xA4418, size: 0x8, addend: 0x0, symName: '__ZZ31-[MixBarEngine removeListeners]ENK3$_1clEj', symObjAddr: 0x3734, symBinAddr: 0x10000477C, symSize: 0x138 }
  - { offset: 0xA4475, size: 0x8, addend: 0x0, symName: '-[MixBarEngine handleDeviceNotification:numAddresses:addresses:]', symObjAddr: 0x386C, symBinAddr: 0x1000048B4, symSize: 0x148 }
  - { offset: 0xA4519, size: 0x8, addend: 0x0, symName: '___64-[MixBarEngine handleDeviceNotification:numAddresses:addresses:]_block_invoke', symObjAddr: 0x39B4, symBinAddr: 0x1000049FC, symSize: 0x38 }
  - { offset: 0xA456F, size: 0x8, addend: 0x0, symName: ___copy_helper_block_ea8_32s, symObjAddr: 0x39EC, symBinAddr: 0x100004A34, symSize: 0x38 }
  - { offset: 0xA4596, size: 0x8, addend: 0x0, symName: ___destroy_helper_block_ea8_32s, symObjAddr: 0x3A24, symBinAddr: 0x100004A6C, symSize: 0x2C }
  - { offset: 0xA45B4, size: 0x8, addend: 0x0, symName: '-[MixBarEngine startOrStopPlayThroughForDevice:]', symObjAddr: 0x3A50, symBinAddr: 0x100004A98, symSize: 0x254 }
  - { offset: 0xA4621, size: 0x8, addend: 0x0, symName: '-[MixBarEngine .cxx_destruct]', symObjAddr: 0x3CA4, symBinAddr: 0x100004CEC, symSize: 0x64 }
  - { offset: 0xA4656, size: 0x8, addend: 0x0, symName: '-[MixBarEngine .cxx_construct]', symObjAddr: 0x3D08, symBinAddr: 0x100004D50, symSize: 0x54 }
  - { offset: 0xA468F, size: 0x8, addend: 0x0, symName: __ZN14BGMAudioDeviceC1Ev, symObjAddr: 0x3D5C, symBinAddr: 0x100004DA4, symSize: 0x30 }
  - { offset: 0xA46B9, size: 0x8, addend: 0x0, symName: __ZN20BGMDeviceControlSyncC1Ev, symObjAddr: 0x3D8C, symBinAddr: 0x100004DD4, symSize: 0x74 }
  - { offset: 0xA46E3, size: 0x8, addend: 0x0, symName: __ZN14BGMPlayThroughC1Ev, symObjAddr: 0x3E00, symBinAddr: 0x100004E48, symSize: 0x2C }
  - { offset: 0xA4713, size: 0x8, addend: 0x0, symName: __ZN16CAHALAudioDeviceaSERKS_, symObjAddr: 0x3E2C, symBinAddr: 0x100004E74, symSize: 0x34 }
  - { offset: 0xA4750, size: 0x8, addend: 0x0, symName: __ZN16CAHALAudioObjectaSERKS_, symObjAddr: 0x3E60, symBinAddr: 0x100004EA8, symSize: 0x24 }
  - { offset: 0xA4781, size: 0x8, addend: 0x0, symName: __ZN10CACFStringC2EPK10__CFString, symObjAddr: 0x3E84, symBinAddr: 0x100004ECC, symSize: 0x28 }
  - { offset: 0xA47BA, size: 0x8, addend: 0x0, symName: __ZN10CACFStringD2Ev, symObjAddr: 0x3EAC, symBinAddr: 0x100004EF4, symSize: 0x34 }
  - { offset: 0xA47E4, size: 0x8, addend: 0x0, symName: __ZN10CACFString7ReleaseEv, symObjAddr: 0x3EE0, symBinAddr: 0x100004F28, symSize: 0x50 }
  - { offset: 0xA480A, size: 0x8, addend: 0x0, symName: __ZN14BGMAudioDeviceC1ERKS_, symObjAddr: 0x3F30, symBinAddr: 0x100004F78, symSize: 0x34 }
  - { offset: 0xA483F, size: 0x8, addend: 0x0, symName: __ZN14BGMAudioDeviceC2ERKS_, symObjAddr: 0x3F64, symBinAddr: 0x100004FAC, symSize: 0x44 }
  - { offset: 0xA4874, size: 0x8, addend: 0x0, symName: __ZN16CAHALAudioDeviceC2ERKS_, symObjAddr: 0x3FA8, symBinAddr: 0x100004FF0, symSize: 0x44 }
  - { offset: 0xA48A9, size: 0x8, addend: 0x0, symName: __ZN16CAHALAudioObjectC2ERKS_, symObjAddr: 0x3FEC, symBinAddr: 0x100005034, symSize: 0x34 }
  - { offset: 0xA48DE, size: 0x8, addend: 0x0, symName: __ZN9CACFArrayC2EPK9__CFArrayb, symObjAddr: 0x4020, symBinAddr: 0x100005068, symSize: 0x34 }
  - { offset: 0xA4926, size: 0x8, addend: 0x0, symName: __ZN14CACFDictionaryC2EPK14__CFDictionaryb, symObjAddr: 0x4054, symBinAddr: 0x10000509C, symSize: 0x34 }
  - { offset: 0xA496E, size: 0x8, addend: 0x0, symName: __ZN14CACFDictionaryD2Ev, symObjAddr: 0x4088, symBinAddr: 0x1000050D0, symSize: 0x34 }
  - { offset: 0xA4998, size: 0x8, addend: 0x0, symName: __ZN14CACFDictionary7ReleaseEv, symObjAddr: 0x40BC, symBinAddr: 0x100005104, symSize: 0x50 }
  - { offset: 0xA49BE, size: 0x8, addend: 0x0, symName: __ZN9CACFArrayD2Ev, symObjAddr: 0x410C, symBinAddr: 0x100005154, symSize: 0x34 }
  - { offset: 0xA49E8, size: 0x8, addend: 0x0, symName: __ZN9CACFArray7ReleaseEv, symObjAddr: 0x4140, symBinAddr: 0x100005188, symSize: 0x50 }
  - { offset: 0xA4A0E, size: 0x8, addend: 0x0, symName: __ZN17CAPropertyAddressC1Ej, symObjAddr: 0x4190, symBinAddr: 0x1000051D8, symSize: 0x34 }
  - { offset: 0xA4A47, size: 0x8, addend: 0x0, symName: __ZL21MXBDeviceListenerProcjjPK26AudioObjectPropertyAddressPv, symObjAddr: 0x41C4, symBinAddr: 0x10000520C, symSize: 0x8C }
  - { offset: 0xA4AB7, size: 0x8, addend: 0x0, symName: __ZN17CAPropertyAddressC2Ej, symObjAddr: 0x4250, symBinAddr: 0x100005298, symSize: 0x38 }
  - { offset: 0xA4AF0, size: 0x8, addend: 0x0, symName: __ZN14BGMPlayThroughC2Ev, symObjAddr: 0x4288, symBinAddr: 0x1000052D0, symSize: 0x1C8 }
  - { offset: 0xA4B1A, size: 0x8, addend: 0x0, symName: __ZNSt3__110unique_ptrI12CARingBufferNS_14default_deleteIS1_EEEC1B8ne190102ILb1EvEEDn, symObjAddr: 0x4450, symBinAddr: 0x100005498, symSize: 0x34 }
  - { offset: 0xA4B5C, size: 0x8, addend: 0x0, symName: __ZNSt3__16atomicIN14BGMPlayThrough7IOStateEEC1B8ne190102ES2_, symObjAddr: 0x4484, symBinAddr: 0x1000054CC, symSize: 0x34 }
  - { offset: 0xA4B95, size: 0x8, addend: 0x0, symName: __ZNSt3__110unique_ptrI12CARingBufferNS_14default_deleteIS1_EEED1B8ne190102Ev, symObjAddr: 0x44B8, symBinAddr: 0x100005500, symSize: 0x2C }
  - { offset: 0xA4BBF, size: 0x8, addend: 0x0, symName: __ZNSt3__110unique_ptrI12CARingBufferNS_14default_deleteIS1_EEEC2B8ne190102ILb1EvEEDn, symObjAddr: 0x44E4, symBinAddr: 0x10000552C, symSize: 0x40 }
  - { offset: 0xA4C07, size: 0x8, addend: 0x0, symName: __ZNSt3__117__compressed_pairIP12CARingBufferNS_14default_deleteIS1_EEEC1B8ne190102INS_16__value_init_tagES7_EEOT_OT0_, symObjAddr: 0x4524, symBinAddr: 0x10000556C, symSize: 0x3C }
  - { offset: 0xA4C63, size: 0x8, addend: 0x0, symName: __ZNSt3__117__compressed_pairIP12CARingBufferNS_14default_deleteIS1_EEEC2B8ne190102INS_16__value_init_tagES7_EEOT_OT0_, symObjAddr: 0x4560, symBinAddr: 0x1000055A8, symSize: 0x3C }
  - { offset: 0xA4CBF, size: 0x8, addend: 0x0, symName: __ZNSt3__122__compressed_pair_elemIP12CARingBufferLi0ELb0EEC2B8ne190102ENS_16__value_init_tagE, symObjAddr: 0x459C, symBinAddr: 0x1000055E4, symSize: 0x18 }
  - { offset: 0xA4CF4, size: 0x8, addend: 0x0, symName: __ZNSt3__122__compressed_pair_elemINS_14default_deleteI12CARingBufferEELi1ELb1EEC2B8ne190102ENS_16__value_init_tagE, symObjAddr: 0x45B4, symBinAddr: 0x1000055FC, symSize: 0x14 }
  - { offset: 0xA4D29, size: 0x8, addend: 0x0, symName: __ZNSt3__16atomicIN14BGMPlayThrough7IOStateEEC2B8ne190102ES2_, symObjAddr: 0x45C8, symBinAddr: 0x100005610, symSize: 0x34 }
  - { offset: 0xA4D62, size: 0x8, addend: 0x0, symName: __ZNSt3__113__atomic_baseIN14BGMPlayThrough7IOStateELb0EEC2B8ne190102ES2_, symObjAddr: 0x45FC, symBinAddr: 0x100005644, symSize: 0x34 }
  - { offset: 0xA4D9B, size: 0x8, addend: 0x0, symName: __ZNSt3__117__cxx_atomic_implIN14BGMPlayThrough7IOStateENS_22__cxx_atomic_base_implIS2_EEEC1B8ne190102ES2_, symObjAddr: 0x4630, symBinAddr: 0x100005678, symSize: 0x34 }
  - { offset: 0xA4DD5, size: 0x8, addend: 0x0, symName: __ZNSt3__117__cxx_atomic_implIN14BGMPlayThrough7IOStateENS_22__cxx_atomic_base_implIS2_EEEC2B8ne190102ES2_, symObjAddr: 0x4664, symBinAddr: 0x1000056AC, symSize: 0x34 }
  - { offset: 0xA4E0F, size: 0x8, addend: 0x0, symName: __ZNSt3__122__cxx_atomic_base_implIN14BGMPlayThrough7IOStateEEC2ES2_, symObjAddr: 0x4698, symBinAddr: 0x1000056E0, symSize: 0x20 }
  - { offset: 0xA4E49, size: 0x8, addend: 0x0, symName: __ZNSt3__110unique_ptrI12CARingBufferNS_14default_deleteIS1_EEED2B8ne190102Ev, symObjAddr: 0x46B8, symBinAddr: 0x100005700, symSize: 0x30 }
  - { offset: 0xA4E73, size: 0x8, addend: 0x0, symName: __ZNSt3__110unique_ptrI12CARingBufferNS_14default_deleteIS1_EEE5resetB8ne190102EPS1_, symObjAddr: 0x46E8, symBinAddr: 0x100005730, symSize: 0x70 }
  - { offset: 0xA4EB9, size: 0x8, addend: 0x0, symName: __ZNSt3__117__compressed_pairIP12CARingBufferNS_14default_deleteIS1_EEE5firstB8ne190102Ev, symObjAddr: 0x4758, symBinAddr: 0x1000057A0, symSize: 0x24 }
  - { offset: 0xA4EDF, size: 0x8, addend: 0x0, symName: __ZNSt3__117__compressed_pairIP12CARingBufferNS_14default_deleteIS1_EEE6secondB8ne190102Ev, symObjAddr: 0x477C, symBinAddr: 0x1000057C4, symSize: 0x24 }
  - { offset: 0xA4F05, size: 0x8, addend: 0x0, symName: __ZNKSt3__114default_deleteI12CARingBufferEclB8ne190102EPS1_, symObjAddr: 0x47A0, symBinAddr: 0x1000057E8, symSize: 0x44 }
  - { offset: 0xA4F3A, size: 0x8, addend: 0x0, symName: __ZNSt3__122__compressed_pair_elemIP12CARingBufferLi0ELb0EE5__getB8ne190102Ev, symObjAddr: 0x47E4, symBinAddr: 0x10000582C, symSize: 0x14 }
  - { offset: 0xA4F60, size: 0x8, addend: 0x0, symName: __ZNSt3__122__compressed_pair_elemINS_14default_deleteI12CARingBufferEELi1ELb1EE5__getB8ne190102Ev, symObjAddr: 0x47F8, symBinAddr: 0x100005840, symSize: 0x14 }
  - { offset: 0xA4F86, size: 0x8, addend: 0x0, symName: __ZNSt3__16vectorIjNS_9allocatorIjEEEC2B8ne190102Em, symObjAddr: 0x480C, symBinAddr: 0x100005854, symSize: 0xD0 }
  - { offset: 0xA4FE3, size: 0x8, addend: 0x0, symName: __ZNSt3__117__compressed_pairIPjNS_9allocatorIjEEEC1B8ne190102IDnNS_18__default_init_tagEEEOT_OT0_, symObjAddr: 0x48DC, symBinAddr: 0x100005924, symSize: 0x3C }
  - { offset: 0xA503F, size: 0x8, addend: 0x0, symName: __ZNSt3__16vectorIjNS_9allocatorIjEEE16__destroy_vectorC1B8ne190102ERS3_, symObjAddr: 0x4958, symBinAddr: 0x1000059A0, symSize: 0x34 }
  - { offset: 0xA5079, size: 0x8, addend: 0x0, symName: __ZNSt3__16vectorIjNS_9allocatorIjEEE11__vallocateB8ne190102Em, symObjAddr: 0x498C, symBinAddr: 0x1000059D4, symSize: 0xA8 }
  - { offset: 0xA50BF, size: 0x8, addend: 0x0, symName: __ZNSt3__16vectorIjNS_9allocatorIjEEE18__construct_at_endEm, symObjAddr: 0x4A34, symBinAddr: 0x100005A7C, symSize: 0xC4 }
  - { offset: 0xA5136, size: 0x8, addend: 0x0, symName: __ZNSt3__128__exception_guard_exceptionsINS_6vectorIjNS_9allocatorIjEEE16__destroy_vectorEE10__completeB8ne190102Ev, symObjAddr: 0x4AF8, symBinAddr: 0x100005B40, symSize: 0x1C }
  - { offset: 0xA515C, size: 0x8, addend: 0x0, symName: __ZNSt3__128__exception_guard_exceptionsINS_6vectorIjNS_9allocatorIjEEE16__destroy_vectorEED1B8ne190102Ev, symObjAddr: 0x4B14, symBinAddr: 0x100005B5C, symSize: 0x2C }
  - { offset: 0xA5186, size: 0x8, addend: 0x0, symName: __ZNSt3__117__compressed_pairIPjNS_9allocatorIjEEEC2B8ne190102IDnNS_18__default_init_tagEEEOT_OT0_, symObjAddr: 0x4B40, symBinAddr: 0x100005B88, symSize: 0x40 }
  - { offset: 0xA51E2, size: 0x8, addend: 0x0, symName: __ZNSt3__122__compressed_pair_elemIPjLi0ELb0EEC2B8ne190102IDnLi0EEEOT_, symObjAddr: 0x4B80, symBinAddr: 0x100005BC8, symSize: 0x1C }
  - { offset: 0xA522C, size: 0x8, addend: 0x0, symName: __ZNSt3__122__compressed_pair_elemINS_9allocatorIjEELi1ELb1EEC2B8ne190102ENS_18__default_init_tagE, symObjAddr: 0x4B9C, symBinAddr: 0x100005BE4, symSize: 0x2C }
  - { offset: 0xA5261, size: 0x8, addend: 0x0, symName: __ZNSt3__19allocatorIjEC2B8ne190102Ev, symObjAddr: 0x4BC8, symBinAddr: 0x100005C10, symSize: 0x2C }
  - { offset: 0xA528B, size: 0x8, addend: 0x0, symName: __ZNSt3__116__non_trivial_ifILb1ENS_9allocatorIjEEEC2B8ne190102Ev, symObjAddr: 0x4BF4, symBinAddr: 0x100005C3C, symSize: 0x14 }
  - { offset: 0xA52B5, size: 0x8, addend: 0x0, symName: __ZNSt3__128__exception_guard_exceptionsINS_6vectorIjNS_9allocatorIjEEE16__destroy_vectorEEC1B8ne190102ES5_, symObjAddr: 0x4C08, symBinAddr: 0x100005C50, symSize: 0x34 }
  - { offset: 0xA52EE, size: 0x8, addend: 0x0, symName: __ZNSt3__128__exception_guard_exceptionsINS_6vectorIjNS_9allocatorIjEEE16__destroy_vectorEEC2B8ne190102ES5_, symObjAddr: 0x4C3C, symBinAddr: 0x100005C84, symSize: 0x24 }
  - { offset: 0xA5327, size: 0x8, addend: 0x0, symName: __ZNSt3__16vectorIjNS_9allocatorIjEEE16__destroy_vectorC2B8ne190102ERS3_, symObjAddr: 0x4C60, symBinAddr: 0x100005CA8, symSize: 0x20 }
  - { offset: 0xA5361, size: 0x8, addend: 0x0, symName: __ZNKSt3__16vectorIjNS_9allocatorIjEEE8max_sizeEv, symObjAddr: 0x4C80, symBinAddr: 0x100005CC8, symSize: 0x60 }
  - { offset: 0xA5389, size: 0x8, addend: 0x0, symName: __ZNKSt3__16vectorIjNS_9allocatorIjEEE20__throw_length_errorB8ne190102Ev, symObjAddr: 0x4CE0, symBinAddr: 0x100005D28, symSize: 0x1C }
  - { offset: 0xA53AF, size: 0x8, addend: 0x0, symName: __ZNSt3__16vectorIjNS_9allocatorIjEEE7__allocB8ne190102Ev, symObjAddr: 0x4D3C, symBinAddr: 0x100005D84, symSize: 0x28 }
  - { offset: 0xA53D5, size: 0x8, addend: 0x0, symName: __ZNSt3__16vectorIjNS_9allocatorIjEEE9__end_capB8ne190102Ev, symObjAddr: 0x4D64, symBinAddr: 0x100005DAC, symSize: 0x28 }
  - { offset: 0xA53FB, size: 0x8, addend: 0x0, symName: __ZNKSt3__16vectorIjNS_9allocatorIjEEE14__annotate_newB8ne190102Em, symObjAddr: 0x4D8C, symBinAddr: 0x100005DD4, symSize: 0x14 }
  - { offset: 0xA543C, size: 0x8, addend: 0x0, symName: __ZNSt3__116allocator_traitsINS_9allocatorIjEEE8max_sizeB8ne190102IS2_Li0EEEmRKS2_, symObjAddr: 0x4DCC, symBinAddr: 0x100005E14, symSize: 0x24 }
  - { offset: 0xA5472, size: 0x8, addend: 0x0, symName: __ZNKSt3__16vectorIjNS_9allocatorIjEEE7__allocB8ne190102Ev, symObjAddr: 0x4DF0, symBinAddr: 0x100005E38, symSize: 0x28 }
  - { offset: 0xA5498, size: 0x8, addend: 0x0, symName: __ZNSt3__114numeric_limitsIlE3maxB8ne190102Ev, symObjAddr: 0x4E18, symBinAddr: 0x100005E60, symSize: 0x14 }
  - { offset: 0xA54C1, size: 0x8, addend: 0x0, symName: __ZNKSt3__16__lessIvvEclB8ne190102ImmEEbRKT_RKT0_, symObjAddr: 0x4E80, symBinAddr: 0x100005EC8, symSize: 0x30 }
  - { offset: 0xA5519, size: 0x8, addend: 0x0, symName: __ZNKSt3__19allocatorIjE8max_sizeB8ne190102Ev, symObjAddr: 0x4EB0, symBinAddr: 0x100005EF8, symSize: 0x14 }
  - { offset: 0xA553F, size: 0x8, addend: 0x0, symName: __ZNKSt3__117__compressed_pairIPjNS_9allocatorIjEEE6secondB8ne190102Ev, symObjAddr: 0x4EC4, symBinAddr: 0x100005F0C, symSize: 0x24 }
  - { offset: 0xA5565, size: 0x8, addend: 0x0, symName: __ZNKSt3__122__compressed_pair_elemINS_9allocatorIjEELi1ELb1EE5__getB8ne190102Ev, symObjAddr: 0x4EE8, symBinAddr: 0x100005F30, symSize: 0x14 }
  - { offset: 0xA558B, size: 0x8, addend: 0x0, symName: __ZNSt3__123__libcpp_numeric_limitsIlLb1EE3maxB8ne190102Ev, symObjAddr: 0x4EFC, symBinAddr: 0x100005F44, symSize: 0x8 }
  - { offset: 0xA559F, size: 0x8, addend: 0x0, symName: __ZNSt12length_errorC1B8ne190102EPKc, symObjAddr: 0x4F68, symBinAddr: 0x100005FB0, symSize: 0x34 }
  - { offset: 0xA55D8, size: 0x8, addend: 0x0, symName: __ZNSt12length_errorC2B8ne190102EPKc, symObjAddr: 0x4F9C, symBinAddr: 0x100005FE4, symSize: 0x44 }
  - { offset: 0xA5611, size: 0x8, addend: 0x0, symName: __ZNSt3__19allocatorIjE8allocateB8ne190102Em, symObjAddr: 0x4FE0, symBinAddr: 0x100006028, symSize: 0x54 }
  - { offset: 0xA5646, size: 0x8, addend: 0x0, symName: __ZNSt3__117__compressed_pairIPjNS_9allocatorIjEEE6secondB8ne190102Ev, symObjAddr: 0x50B4, symBinAddr: 0x1000060FC, symSize: 0x24 }
  - { offset: 0xA566C, size: 0x8, addend: 0x0, symName: __ZNSt3__122__compressed_pair_elemINS_9allocatorIjEELi1ELb1EE5__getB8ne190102Ev, symObjAddr: 0x50D8, symBinAddr: 0x100006120, symSize: 0x14 }
  - { offset: 0xA5692, size: 0x8, addend: 0x0, symName: __ZNSt3__117__compressed_pairIPjNS_9allocatorIjEEE5firstB8ne190102Ev, symObjAddr: 0x50EC, symBinAddr: 0x100006134, symSize: 0x24 }
  - { offset: 0xA56B8, size: 0x8, addend: 0x0, symName: __ZNSt3__122__compressed_pair_elemIPjLi0ELb0EE5__getB8ne190102Ev, symObjAddr: 0x5110, symBinAddr: 0x100006158, symSize: 0x14 }
  - { offset: 0xA56F9, size: 0x8, addend: 0x0, symName: __ZNSt3__16vectorIjNS_9allocatorIjEEE21_ConstructTransactionC1B8ne190102ERS3_m, symObjAddr: 0x5124, symBinAddr: 0x10000616C, symSize: 0x3C }
  - { offset: 0xA5743, size: 0x8, addend: 0x0, symName: __ZNSt3__116allocator_traitsINS_9allocatorIjEEE9constructB8ne190102IjJELi0EEEvRS2_PT_DpOT0_, symObjAddr: 0x5160, symBinAddr: 0x1000061A8, symSize: 0x2C }
  - { offset: 0xA578F, size: 0x8, addend: 0x0, symName: __ZNSt3__16vectorIjNS_9allocatorIjEEE21_ConstructTransactionD1B8ne190102Ev, symObjAddr: 0x51A0, symBinAddr: 0x1000061E8, symSize: 0x2C }
  - { offset: 0xA57B9, size: 0x8, addend: 0x0, symName: __ZNSt3__16vectorIjNS_9allocatorIjEEE21_ConstructTransactionC2B8ne190102ERS3_m, symObjAddr: 0x51CC, symBinAddr: 0x100006214, symSize: 0x44 }
  - { offset: 0xA5803, size: 0x8, addend: 0x0, symName: __ZNSt3__19allocatorIjE9constructB8ne190102IjJEEEvPT_DpOT0_, symObjAddr: 0x5210, symBinAddr: 0x100006258, symSize: 0x1C }
  - { offset: 0xA5848, size: 0x8, addend: 0x0, symName: __ZNSt3__16vectorIjNS_9allocatorIjEEE21_ConstructTransactionD2B8ne190102Ev, symObjAddr: 0x522C, symBinAddr: 0x100006274, symSize: 0x20 }
  - { offset: 0xA5872, size: 0x8, addend: 0x0, symName: __ZNSt3__128__exception_guard_exceptionsINS_6vectorIjNS_9allocatorIjEEE16__destroy_vectorEED2B8ne190102Ev, symObjAddr: 0x524C, symBinAddr: 0x100006294, symSize: 0x50 }
  - { offset: 0xA589C, size: 0x8, addend: 0x0, symName: __ZNSt3__16vectorIjNS_9allocatorIjEEE16__destroy_vectorclB8ne190102Ev, symObjAddr: 0x529C, symBinAddr: 0x1000062E4, symSize: 0x88 }
  - { offset: 0xA58C2, size: 0x8, addend: 0x0, symName: __ZNSt3__16vectorIjNS_9allocatorIjEEE7__clearB8ne190102Ev, symObjAddr: 0x5324, symBinAddr: 0x10000636C, symSize: 0x28 }
  - { offset: 0xA58E8, size: 0x8, addend: 0x0, symName: __ZNKSt3__16vectorIjNS_9allocatorIjEEE17__annotate_deleteB8ne190102Ev, symObjAddr: 0x534C, symBinAddr: 0x100006394, symSize: 0x10 }
  - { offset: 0xA590E, size: 0x8, addend: 0x0, symName: __ZNSt3__116allocator_traitsINS_9allocatorIjEEE10deallocateB8ne190102ERS2_Pjm, symObjAddr: 0x535C, symBinAddr: 0x1000063A4, symSize: 0x34 }
  - { offset: 0xA5953, size: 0x8, addend: 0x0, symName: __ZNKSt3__16vectorIjNS_9allocatorIjEEE8capacityB8ne190102Ev, symObjAddr: 0x5390, symBinAddr: 0x1000063D8, symSize: 0x40 }
  - { offset: 0xA5979, size: 0x8, addend: 0x0, symName: __ZNSt3__16vectorIjNS_9allocatorIjEEE22__base_destruct_at_endB8ne190102EPj, symObjAddr: 0x53D0, symBinAddr: 0x100006418, symSize: 0x88 }
  - { offset: 0xA59BF, size: 0x8, addend: 0x0, symName: __ZNSt3__116allocator_traitsINS_9allocatorIjEEE7destroyB8ne190102IjLi0EEEvRS2_PT_, symObjAddr: 0x5458, symBinAddr: 0x1000064A0, symSize: 0x2C }
  - { offset: 0xA5A05, size: 0x8, addend: 0x0, symName: __ZNSt3__19allocatorIjE7destroyB8ne190102EPj, symObjAddr: 0x5484, symBinAddr: 0x1000064CC, symSize: 0x14 }
  - { offset: 0xA5A3A, size: 0x8, addend: 0x0, symName: __ZNSt3__19allocatorIjE10deallocateB8ne190102EPjm, symObjAddr: 0x5498, symBinAddr: 0x1000064E0, symSize: 0x40 }
  - { offset: 0xA5A7E, size: 0x8, addend: 0x0, symName: __ZNKSt3__16vectorIjNS_9allocatorIjEEE9__end_capB8ne190102Ev, symObjAddr: 0x5554, symBinAddr: 0x10000659C, symSize: 0x28 }
  - { offset: 0xA5AA4, size: 0x8, addend: 0x0, symName: __ZNKSt3__117__compressed_pairIPjNS_9allocatorIjEEE5firstB8ne190102Ev, symObjAddr: 0x557C, symBinAddr: 0x1000065C4, symSize: 0x24 }
  - { offset: 0xA5ACA, size: 0x8, addend: 0x0, symName: __ZNKSt3__122__compressed_pair_elemIPjLi0ELb0EE5__getB8ne190102Ev, symObjAddr: 0x55A0, symBinAddr: 0x1000065E8, symSize: 0x14 }
  - { offset: 0xA5AF0, size: 0x8, addend: 0x0, symName: __ZNSt3__16vectorIjNS_9allocatorIjEEED2B8ne190102Ev, symObjAddr: 0x55B4, symBinAddr: 0x1000065FC, symSize: 0x40 }
  - { offset: 0xA8214, size: 0x8, addend: 0x0, symName: __ZN14BGMAudioDeviceC2Ej, symObjAddr: 0x0, symBinAddr: 0x10000663C, symSize: 0x44 }
  - { offset: 0xA824F, size: 0x8, addend: 0x0, symName: __ZN14BGMAudioDeviceC1Ej, symObjAddr: 0x44, symBinAddr: 0x100006680, symSize: 0x34 }
  - { offset: 0xA828A, size: 0x8, addend: 0x0, symName: __ZN14BGMAudioDeviceC2EPK10__CFString, symObjAddr: 0x78, symBinAddr: 0x1000066B4, symSize: 0x44 }
  - { offset: 0xA82C5, size: 0x8, addend: 0x0, symName: __ZN14BGMAudioDeviceC1EPK10__CFString, symObjAddr: 0xBC, symBinAddr: 0x1000066F8, symSize: 0x34 }
  - { offset: 0xA8300, size: 0x8, addend: 0x0, symName: __ZN14BGMAudioDeviceC2ERK16CAHALAudioDevice, symObjAddr: 0xF0, symBinAddr: 0x10000672C, symSize: 0x40 }
  - { offset: 0xA833B, size: 0x8, addend: 0x0, symName: __ZN14BGMAudioDeviceC1ERK16CAHALAudioDevice, symObjAddr: 0x130, symBinAddr: 0x10000676C, symSize: 0x40 }
  - { offset: 0xA8376, size: 0x8, addend: 0x0, symName: __ZN14BGMAudioDeviceD2Ev, symObjAddr: 0x170, symBinAddr: 0x1000067AC, symSize: 0x2C }
  - { offset: 0xA83A2, size: 0x8, addend: 0x0, symName: __ZN14BGMAudioDeviceD1Ev, symObjAddr: 0x19C, symBinAddr: 0x1000067D8, symSize: 0x2C }
  - { offset: 0xA83CE, size: 0x8, addend: 0x0, symName: __ZN14BGMAudioDeviceD0Ev, symObjAddr: 0x1C8, symBinAddr: 0x100006804, symSize: 0x30 }
  - { offset: 0xA83FA, size: 0x8, addend: 0x0, symName: __ZNK14BGMAudioDevice25CanBeOutputDeviceInBGMAppEv, symObjAddr: 0x1F8, symBinAddr: 0x100006834, symSize: 0x100 }
  - { offset: 0xA845E, size: 0x8, addend: 0x0, symName: __ZNK14BGMAudioDevice19IsBGMDeviceInstanceEv, symObjAddr: 0x2F8, symBinAddr: 0x100006934, symSize: 0x2C }
  - { offset: 0xA8484, size: 0x8, addend: 0x0, symName: __ZNK14BGMAudioDevice21HasSettableMainVolumeEj, symObjAddr: 0x324, symBinAddr: 0x100006960, symSize: 0x64 }
  - { offset: 0xA84BB, size: 0x8, addend: 0x0, symName: __ZNK14BGMAudioDevice28HasSettableVirtualMainVolumeEj, symObjAddr: 0x388, symBinAddr: 0x1000069C4, symSize: 0xC4 }
  - { offset: 0xA852E, size: 0x8, addend: 0x0, symName: __ZNK14BGMAudioDevice19HasSettableMainMuteEj, symObjAddr: 0x44C, symBinAddr: 0x100006A88, symSize: 0x64 }
  - { offset: 0xA8565, size: 0x8, addend: 0x0, symName: __ZN14BGMAudioDevice12CopyMuteFromES_j, symObjAddr: 0x4B0, symBinAddr: 0x100006AEC, symSize: 0x8C }
  - { offset: 0xA85AC, size: 0x8, addend: 0x0, symName: __ZN14BGMAudioDevice14CopyVolumeFromES_j, symObjAddr: 0x53C, symBinAddr: 0x100006B78, symSize: 0x3A8 }
  - { offset: 0xA870C, size: 0x8, addend: 0x0, symName: __ZN14BGMAudioDevice19SetMainVolumeScalarEjf, symObjAddr: 0x8E4, symBinAddr: 0x100006F20, symSize: 0x80 }
  - { offset: 0xA875D, size: 0x8, addend: 0x0, symName: __ZNK14BGMAudioDevice26GetVirtualMainVolumeScalarEjRf, symObjAddr: 0x98C, symBinAddr: 0x100006FA0, symSize: 0xBC }
  - { offset: 0xA87C1, size: 0x8, addend: 0x0, symName: __ZN14BGMAudioDevice26SetVirtualMainVolumeScalarEjf, symObjAddr: 0xA48, symBinAddr: 0x10000705C, symSize: 0x14C }
  - { offset: 0xA8895, size: 0x8, addend: 0x0, symName: __ZN14BGMAudioDevice18AHSGetPropertyDataEjPK26AudioObjectPropertyAddressPjPv, symObjAddr: 0xB94, symBinAddr: 0x1000071A8, symSize: 0x44 }
  - { offset: 0xA88ED, size: 0x8, addend: 0x0, symName: __ZNK14BGMAudioDevice21GetVirtualMainBalanceEjRf, symObjAddr: 0xBD8, symBinAddr: 0x1000071EC, symSize: 0xBC }
  - { offset: 0xA8956, size: 0x8, addend: 0x0, symName: __ZN14BGMAudioDevice18AHSSetPropertyDataEjPK26AudioObjectPropertyAddressjPKv, symObjAddr: 0xC94, symBinAddr: 0x1000072A8, symSize: 0x44 }
  - { offset: 0xA89AE, size: 0x8, addend: 0x0, symName: __ZNK14BGMAudioDevice11IsBGMDeviceEb, symObjAddr: 0xCD8, symBinAddr: 0x1000072EC, symSize: 0xF8 }
  - { offset: 0xA90CF, size: 0x8, addend: 0x0, symName: __ZL21kBGMAppVolumesAddress, symObjAddr: 0x9130, symBinAddr: 0x10004FEB8, symSize: 0x0 }
  - { offset: 0xA90F5, size: 0x8, addend: 0x0, symName: __ZL23kBGMAudibleStateAddress, symObjAddr: 0x913C, symBinAddr: 0x10004FEC4, symSize: 0x0 }
  - { offset: 0xA910F, size: 0x8, addend: 0x0, symName: __ZL31kBGMMusicPlayerProcessIDAddress, symObjAddr: 0x9148, symBinAddr: 0x10004FED0, symSize: 0x0 }
  - { offset: 0xA9129, size: 0x8, addend: 0x0, symName: __ZL30kBGMMusicPlayerBundleIDAddress, symObjAddr: 0x9154, symBinAddr: 0x10004FEDC, symSize: 0x0 }
  - { offset: 0xA9143, size: 0x8, addend: 0x0, symName: __ZL30kBGMDebugLoggingEnabledAddress, symObjAddr: 0x9160, symBinAddr: 0x10004FEE8, symSize: 0x0 }
  - { offset: 0xA9169, size: 0x8, addend: 0x0, symName: __ZNSt3__1L19piecewise_constructE, symObjAddr: 0x9187, symBinAddr: 0x10004FF0F, symSize: 0x0 }
  - { offset: 0xADA32, size: 0x8, addend: 0x0, symName: __ZNSt3__17advanceB8ne190102INS_21__tree_const_iteratorINS_12__value_typeI10CACFStringNS_6vectorIS3_NS_9allocatorIS3_EEEEEEPNS_11__tree_nodeIS8_PvEElEEllLi0EEEvRT_T0_, symObjAddr: 0x6D18, symBinAddr: 0x10000DBA0, symSize: 0x38 }
  - { offset: 0xADDDB, size: 0x8, addend: 0x0, symName: __ZNSt3__13maxB8ne190102IiEERKT_S3_S3_, symObjAddr: 0x860, symBinAddr: 0x100007C20, symSize: 0x2C }
  - { offset: 0xADE22, size: 0x8, addend: 0x0, symName: __ZNSt3__13minB8ne190102IiEERKT_S3_S3_, symObjAddr: 0x88C, symBinAddr: 0x100007C4C, symSize: 0x2C }
  - { offset: 0xADE69, size: 0x8, addend: 0x0, symName: __ZNSt3__1neB8ne190102IP10CACFStringEEbRKNS_11__wrap_iterIT_EES7_, symObjAddr: 0x29E8, symBinAddr: 0x100009D48, symSize: 0x30 }
  - { offset: 0xADEB0, size: 0x8, addend: 0x0, symName: __ZNSt3__13maxB8ne190102IiNS_6__lessIvvEEEERKT_S5_S5_T0_, symObjAddr: 0x35A4, symBinAddr: 0x10000A8C0, symSize: 0x54 }
  - { offset: 0xADF91, size: 0x8, addend: 0x0, symName: __ZNSt3__13minB8ne190102IiNS_6__lessIvvEEEERKT_S5_S5_T0_, symObjAddr: 0x3628, symBinAddr: 0x10000A944, symSize: 0x54 }
  - { offset: 0xADFF1, size: 0x8, addend: 0x0, symName: __ZNSt3__1eqB8ne190102IP10CACFStringEEbRKNS_11__wrap_iterIT_EES7_, symObjAddr: 0x38F8, symBinAddr: 0x10000AAA8, symSize: 0x44 }
  - { offset: 0xAE038, size: 0x8, addend: 0x0, symName: __ZNSt3__112__to_addressB8ne190102I10CACFStringEEPT_S3_, symObjAddr: 0x3E58, symBinAddr: 0x10000AF84, symSize: 0x14 }
  - { offset: 0xAE070, size: 0x8, addend: 0x0, symName: __ZNSt3__122__make_exception_guardB8ne190102INS_6vectorI10CACFStringNS_9allocatorIS2_EEE16__destroy_vectorEEENS_28__exception_guard_exceptionsIT_EES8_, symObjAddr: 0x42D8, symBinAddr: 0x10000B388, symSize: 0x40 }
  - { offset: 0xAE0A8, size: 0x8, addend: 0x0, symName: __ZNSt3__119__allocate_at_leastB8ne190102INS_9allocatorI10CACFStringEEEENS_19__allocation_resultINS_16allocator_traitsIT_E7pointerEEERS6_m, symObjAddr: 0x45B8, symBinAddr: 0x10000B668, symSize: 0x40 }
  - { offset: 0xAE0EF, size: 0x8, addend: 0x0, symName: __ZNSt3__130__uninitialized_allocator_copyB8ne190102INS_9allocatorI10CACFStringEEPKS2_S5_PS2_EET2_RT_T0_T1_S7_, symObjAddr: 0x49BC, symBinAddr: 0x10000B844, symSize: 0x80 }
  - { offset: 0xAE197, size: 0x8, addend: 0x0, symName: __ZNSt3__114__unwrap_rangeB8ne190102IPK10CACFStringS3_EENS_4pairIT0_S5_EET_S7_, symObjAddr: 0x4AAC, symBinAddr: 0x10000B934, symSize: 0x60 }
  - { offset: 0xAE1E8, size: 0x8, addend: 0x0, symName: __ZNSt3__135__uninitialized_allocator_copy_implB8ne190102INS_9allocatorI10CACFStringEEPKS2_S5_PS2_EET2_RT_T0_T1_S7_, symObjAddr: 0x4B0C, symBinAddr: 0x10000B994, symSize: 0xF0 }
  - { offset: 0xAE291, size: 0x8, addend: 0x0, symName: __ZNSt3__113__unwrap_iterB8ne190102IP10CACFStringNS_18__unwrap_iter_implIS2_Lb1EEELi0EEEDTclsrT0_8__unwrapclsr3stdE7declvalIT_EEEES6_, symObjAddr: 0x4BFC, symBinAddr: 0x10000BA84, symSize: 0x24 }
  - { offset: 0xAE2DA, size: 0x8, addend: 0x0, symName: __ZNSt3__113__rewrap_iterB8ne190102IP10CACFStringS2_NS_18__unwrap_iter_implIS2_Lb1EEEEET_S5_T0_, symObjAddr: 0x4C20, symBinAddr: 0x10000BAA8, symSize: 0x3C }
  - { offset: 0xAE335, size: 0x8, addend: 0x0, symName: __ZNSt3__19make_pairB8ne190102IPK10CACFStringS3_EENS_4pairINS_18__unwrap_ref_decayIT_E4typeENS5_IT0_E4typeEEEOS6_OS9_, symObjAddr: 0x4C5C, symBinAddr: 0x10000BAE4, symSize: 0x38 }
  - { offset: 0xAE389, size: 0x8, addend: 0x0, symName: __ZNSt3__113__unwrap_iterB8ne190102IPK10CACFStringNS_18__unwrap_iter_implIS3_Lb1EEELi0EEEDTclsrT0_8__unwrapclsr3stdE7declvalIT_EEEES7_, symObjAddr: 0x4C94, symBinAddr: 0x10000BB1C, symSize: 0x24 }
  - { offset: 0xAE510, size: 0x8, addend: 0x0, symName: __ZNSt3__112__to_addressB8ne190102IK10CACFStringEEPT_S4_, symObjAddr: 0x4D4C, symBinAddr: 0x10000BBD4, symSize: 0x14 }
  - { offset: 0xAE548, size: 0x8, addend: 0x0, symName: __ZNSt3__122__make_exception_guardB8ne190102INS_29_AllocatorDestroyRangeReverseINS_9allocatorI10CACFStringEEPS3_EEEENS_28__exception_guard_exceptionsIT_EES8_, symObjAddr: 0x4D60, symBinAddr: 0x10000BBE8, symSize: 0x4C }
  - { offset: 0xAE581, size: 0x8, addend: 0x0, symName: __ZNSt3__119__allocator_destroyB8ne190102INS_9allocatorI10CACFStringEENS_16reverse_iteratorIPS2_EES6_EEvRT_T0_T1_, symObjAddr: 0x4FF0, symBinAddr: 0x10000BE78, symSize: 0x70 }
  - { offset: 0xAE5EB, size: 0x8, addend: 0x0, symName: __ZNSt3__1neB8ne190102IP10CACFStringS2_EEbRKNS_16reverse_iteratorIT_EERKNS3_IT0_EE, symObjAddr: 0x5094, symBinAddr: 0x10000BF1C, symSize: 0x44 }
  - { offset: 0xAE63C, size: 0x8, addend: 0x0, symName: __ZNSt3__112__to_addressB8ne190102INS_16reverse_iteratorIP10CACFStringEELi0EEEu7__decayIDTclsr19__to_address_helperIT_EE6__callclsr3stdE7declvalIRKS5_EEEEES7_, symObjAddr: 0x50D8, symBinAddr: 0x10000BF60, symSize: 0x24 }
  - { offset: 0xAE700, size: 0x8, addend: 0x0, symName: __ZNSt3__130__uninitialized_allocator_copyB8ne190102INS_9allocatorI10CACFStringEEPS2_S4_S4_EET2_RT_T0_T1_S5_, symObjAddr: 0x5560, symBinAddr: 0x10000C3E8, symSize: 0x80 }
  - { offset: 0xAE7A8, size: 0x8, addend: 0x0, symName: __ZNSt3__114__unwrap_rangeB8ne190102IP10CACFStringS2_EENS_4pairIT0_S4_EET_S6_, symObjAddr: 0x55E0, symBinAddr: 0x10000C468, symSize: 0x60 }
  - { offset: 0xAE7F9, size: 0x8, addend: 0x0, symName: __ZNSt3__135__uninitialized_allocator_copy_implB8ne190102INS_9allocatorI10CACFStringEEPS2_S4_S4_EET2_RT_T0_T1_S5_, symObjAddr: 0x5640, symBinAddr: 0x10000C4C8, symSize: 0xF0 }
  - { offset: 0xAE8A2, size: 0x8, addend: 0x0, symName: __ZNSt3__19make_pairB8ne190102IP10CACFStringS2_EENS_4pairINS_18__unwrap_ref_decayIT_E4typeENS4_IT0_E4typeEEEOS5_OS8_, symObjAddr: 0x5730, symBinAddr: 0x10000C5B8, symSize: 0x38 }
  - { offset: 0xAEA12, size: 0x8, addend: 0x0, symName: __ZNSt3__1eqB8ne190102ERKNS_21__tree_const_iteratorINS_12__value_typeI10CACFStringNS_6vectorIS2_NS_9allocatorIS2_EEEEEEPNS_11__tree_nodeIS7_PvEElEESE_, symObjAddr: 0x66DC, symBinAddr: 0x10000D564, symSize: 0x2C }
  - { offset: 0xAEA52, size: 0x8, addend: 0x0, symName: __ZNSt3__14nextB8ne190102INS_21__tree_const_iteratorINS_12__value_typeI10CACFStringNS_6vectorIS3_NS_9allocatorIS3_EEEEEEPNS_11__tree_nodeIS8_PvEElEELi0EEET_SE_NS_15iterator_traitsISE_E15difference_typeE, symObjAddr: 0x6A28, symBinAddr: 0x10000D8B0, symSize: 0x3C }
  - { offset: 0xAEAA0, size: 0x8, addend: 0x0, symName: __ZNSt3__116__tree_prev_iterB8ne190102IPNS_16__tree_node_baseIPvEEPNS_15__tree_end_nodeIS4_EEEET_T0_, symObjAddr: 0x6BB8, symBinAddr: 0x10000DA40, symSize: 0x9C }
  - { offset: 0xAEAF1, size: 0x8, addend: 0x0, symName: __ZNSt3__110__tree_maxB8ne190102IPNS_16__tree_node_baseIPvEEEET_S5_, symObjAddr: 0x6C54, symBinAddr: 0x10000DADC, symSize: 0x38 }
  - { offset: 0xAEB29, size: 0x8, addend: 0x0, symName: __ZNSt3__120__tree_is_left_childB8ne190102IPNS_16__tree_node_baseIPvEEEEbT_, symObjAddr: 0x6C8C, symBinAddr: 0x10000DB14, symSize: 0x28 }
  - { offset: 0xAEB61, size: 0x8, addend: 0x0, symName: __ZNSt3__121__convert_to_integralB8ne190102El, symObjAddr: 0x6D50, symBinAddr: 0x10000DBD8, symSize: 0x14 }
  - { offset: 0xAEB8F, size: 0x8, addend: 0x0, symName: __ZNSt3__19__advanceB8ne190102INS_21__tree_const_iteratorINS_12__value_typeI10CACFStringNS_6vectorIS3_NS_9allocatorIS3_EEEEEEPNS_11__tree_nodeIS8_PvEElEEEEvRT_NS_15iterator_traitsISE_E15difference_typeENS_26bidirectional_iterator_tagE, symObjAddr: 0x6D64, symBinAddr: 0x10000DBEC, symSize: 0x90 }
  - { offset: 0xAEBDD, size: 0x8, addend: 0x0, symName: __ZNSt3__116__tree_next_iterB8ne190102IPNS_15__tree_end_nodeIPNS_16__tree_node_baseIPvEEEES5_EET_T0_, symObjAddr: 0x6E2C, symBinAddr: 0x10000DCB4, symSize: 0x78 }
  - { offset: 0xAEC1F, size: 0x8, addend: 0x0, symName: __ZNSt3__110__tree_minB8ne190102IPNS_16__tree_node_baseIPvEEEET_S5_, symObjAddr: 0x6EA4, symBinAddr: 0x10000DD2C, symSize: 0x38 }
  - { offset: 0xAEC77, size: 0x8, addend: 0x0, symName: __ZNSt3__127__tree_balance_after_insertB8ne190102IPNS_16__tree_node_baseIPvEEEEvT_S5_, symObjAddr: 0x73C4, symBinAddr: 0x10000E24C, symSize: 0x25C }
  - { offset: 0xAECFB, size: 0x8, addend: 0x0, symName: __ZNSt3__118__tree_left_rotateB8ne190102IPNS_16__tree_node_baseIPvEEEEvT_, symObjAddr: 0x7648, symBinAddr: 0x10000E4D0, symSize: 0xD0 }
  - { offset: 0xAED3E, size: 0x8, addend: 0x0, symName: __ZNSt3__119__tree_right_rotateB8ne190102IPNS_16__tree_node_baseIPvEEEEvT_, symObjAddr: 0x7718, symBinAddr: 0x10000E5A0, symSize: 0xC4 }
  - { offset: 0xAED84, size: 0x8, addend: 0x0, symName: __ZNSt3__112__destroy_atB8ne190102INS_4pairIK10CACFStringNS_6vectorIS2_NS_9allocatorIS2_EEEEEELi0EEEvPT_, symObjAddr: 0x79F8, symBinAddr: 0x10000E880, symSize: 0x24 }
  - { offset: 0xAEDFC, size: 0x8, addend: 0x0, symName: __ZNSt3__116forward_as_tupleB8ne190102IJRK10CACFStringEEENS_5tupleIJDpOT_EEES7_, symObjAddr: 0x7CF8, symBinAddr: 0x10000EB80, symSize: 0x2C }
  - { offset: 0xAEE39, size: 0x8, addend: 0x0, symName: __ZNSt3__116forward_as_tupleB8ne190102IJEEENS_5tupleIJDpOT_EEES4_, symObjAddr: 0x7D24, symBinAddr: 0x10000EBAC, symSize: 0x4 }
  - { offset: 0xAEE6C, size: 0x8, addend: 0x0, symName: __ZNSt3__13getB8ne190102ILm0EJRK10CACFStringEEERNS_13tuple_elementIXT_ENS_5tupleIJDpT0_EEEE4typeERS8_, symObjAddr: 0x7FC4, symBinAddr: 0x10000EE4C, symSize: 0x24 }
  - { offset: 0xB02B0, size: 0x8, addend: 0x0, symName: __ZN24BGMBackgroundMusicDeviceC2Ev, symObjAddr: 0x0, symBinAddr: 0x1000073E4, symSize: 0x144 }
  - { offset: 0xB02DC, size: 0x8, addend: 0x0, symName: __ZN11CAExceptionC1Ei, symObjAddr: 0x168, symBinAddr: 0x100007528, symSize: 0x34 }
  - { offset: 0xB0315, size: 0x8, addend: 0x0, symName: __ZN11CAExceptionD1Ev, symObjAddr: 0x19C, symBinAddr: 0x10000755C, symSize: 0x2C }
  - { offset: 0xB033F, size: 0x8, addend: 0x0, symName: __ZN24BGMBackgroundMusicDeviceC1Ev, symObjAddr: 0x1C8, symBinAddr: 0x100007588, symSize: 0x2C }
  - { offset: 0xB036B, size: 0x8, addend: 0x0, symName: __ZN24BGMBackgroundMusicDeviceD2Ev, symObjAddr: 0x1F4, symBinAddr: 0x1000075B4, symSize: 0x48 }
  - { offset: 0xB0397, size: 0x8, addend: 0x0, symName: __ZN24BGMBackgroundMusicDeviceD1Ev, symObjAddr: 0x23C, symBinAddr: 0x1000075FC, symSize: 0x2C }
  - { offset: 0xB03C3, size: 0x8, addend: 0x0, symName: __ZN24BGMBackgroundMusicDeviceD0Ev, symObjAddr: 0x268, symBinAddr: 0x100007628, symSize: 0x30 }
  - { offset: 0xB03EF, size: 0x8, addend: 0x0, symName: __ZN24BGMBackgroundMusicDevice14SetAsOSDefaultEv, symObjAddr: 0x298, symBinAddr: 0x100007658, symSize: 0x144 }
  - { offset: 0xB0444, size: 0x8, addend: 0x0, symName: __ZN24BGMBackgroundMusicDevice16UnsetAsOSDefaultEj, symObjAddr: 0x3DC, symBinAddr: 0x10000779C, symSize: 0x1D0 }
  - { offset: 0xB04A8, size: 0x8, addend: 0x0, symName: __ZNK24BGMBackgroundMusicDevice13GetAppVolumesEv, symObjAddr: 0x5AC, symBinAddr: 0x10000796C, symSize: 0x164 }
  - { offset: 0xB04DF, size: 0x8, addend: 0x0, symName: __ZNK16CAHALAudioObject22GetPropertyData_CFTypeERK26AudioObjectPropertyAddressjPKv, symObjAddr: 0x710, symBinAddr: 0x100007AD0, symSize: 0x54 }
  - { offset: 0xB0550, size: 0x8, addend: 0x0, symName: __ZN24BGMBackgroundMusicDevice12SetAppVolumeEiiPK10__CFString, symObjAddr: 0x764, symBinAddr: 0x100007B24, symSize: 0xFC }
  - { offset: 0xB05A5, size: 0x8, addend: 0x0, symName: __ZN24BGMBackgroundMusicDevice29SendAppVolumeOrPanToBGMDeviceEiPK10__CFStringiS2_, symObjAddr: 0x8B8, symBinAddr: 0x100007C78, symSize: 0x220 }
  - { offset: 0xB06C5, size: 0x8, addend: 0x0, symName: __ZN24BGMBackgroundMusicDevice17SetAppPanPositionEiiPK10__CFString, symObjAddr: 0xAD8, symBinAddr: 0x100007E98, symSize: 0x100 }
  - { offset: 0xB073D, size: 0x8, addend: 0x0, symName: __ZN9CACFArrayC1Eb, symObjAddr: 0xBD8, symBinAddr: 0x100007F98, symSize: 0x38 }
  - { offset: 0xB0780, size: 0x8, addend: 0x0, symName: '__ZZN24BGMBackgroundMusicDevice29SendAppVolumeOrPanToBGMDeviceEiPK10__CFStringiS2_ENK3$_0clEiS2_', symObjAddr: 0xC10, symBinAddr: 0x100007FD0, symSize: 0xE4 }
  - { offset: 0xB07D7, size: 0x8, addend: 0x0, symName: __ZN24BGMBackgroundMusicDevice22ResponsibleBundleIDsOfE10CACFString, symObjAddr: 0xCF4, symBinAddr: 0x1000080B4, symSize: 0x1C34 }
  - { offset: 0xB080F, size: 0x8, addend: 0x0, symName: __ZNSt3__16vectorI10CACFStringNS_9allocatorIS1_EEE5beginB8ne190102Ev, symObjAddr: 0x2988, symBinAddr: 0x100009CE8, symSize: 0x30 }
  - { offset: 0xB0837, size: 0x8, addend: 0x0, symName: __ZNSt3__16vectorI10CACFStringNS_9allocatorIS1_EEE3endB8ne190102Ev, symObjAddr: 0x29B8, symBinAddr: 0x100009D18, symSize: 0x30 }
  - { offset: 0xB085F, size: 0x8, addend: 0x0, symName: __ZNKSt3__111__wrap_iterIP10CACFStringEdeB8ne190102Ev, symObjAddr: 0x2A18, symBinAddr: 0x100009D78, symSize: 0x18 }
  - { offset: 0xB0885, size: 0x8, addend: 0x0, symName: __ZN10CACFStringC1ERKS_, symObjAddr: 0x2A30, symBinAddr: 0x100009D90, symSize: 0x34 }
  - { offset: 0xB08BE, size: 0x8, addend: 0x0, symName: __ZNSt3__111__wrap_iterIP10CACFStringEppB8ne190102Ev, symObjAddr: 0x2A7C, symBinAddr: 0x100009DC4, symSize: 0x20 }
  - { offset: 0xB08E4, size: 0x8, addend: 0x0, symName: __ZNSt3__16vectorI10CACFStringNS_9allocatorIS1_EEED1B8ne190102Ev, symObjAddr: 0x2A9C, symBinAddr: 0x100009DE4, symSize: 0x2C }
  - { offset: 0xB090E, size: 0x8, addend: 0x0, symName: __ZNK9CACFArray14AsPropertyListEv, symObjAddr: 0x2AC8, symBinAddr: 0x100009E10, symSize: 0x18 }
  - { offset: 0xB0934, size: 0x8, addend: 0x0, symName: __ZN16CAHALAudioObject22SetPropertyData_CFTypeERK26AudioObjectPropertyAddressPKvjS4_, symObjAddr: 0x2AE0, symBinAddr: 0x100009E28, symSize: 0x48 }
  - { offset: 0xB0996, size: 0x8, addend: 0x0, symName: __ZNK10CACFString7IsValidEv, symObjAddr: 0x2B54, symBinAddr: 0x100009E70, symSize: 0x20 }
  - { offset: 0xB09BC, size: 0x8, addend: 0x0, symName: __ZNSt3__16vectorI10CACFStringNS_9allocatorIS1_EEEC1B8ne190102Ev, symObjAddr: 0x2B74, symBinAddr: 0x100009E90, symSize: 0x2C }
  - { offset: 0xB09E6, size: 0x8, addend: 0x0, symName: __ZN10CACFStringC1EPKc, symObjAddr: 0x2BA0, symBinAddr: 0x100009EBC, symSize: 0x34 }
  - { offset: 0xB0A1F, size: 0x8, addend: 0x0, symName: __ZNSt3__16vectorI10CACFStringNS_9allocatorIS1_EEEC1B8ne190102ESt16initializer_listIS1_E, symObjAddr: 0x2BD4, symBinAddr: 0x100009EF0, symSize: 0x3C }
  - { offset: 0xB0A5B, size: 0x8, addend: 0x0, symName: __ZNSt3__14pairIK10CACFStringNS_6vectorIS1_NS_9allocatorIS1_EEEEEC1B8ne190102ILb1ELi0EEERS2_RKS6_, symObjAddr: 0x2C10, symBinAddr: 0x100009F2C, symSize: 0x3C }
  - { offset: 0xB0AB5, size: 0x8, addend: 0x0, symName: __ZNSt3__13mapI10CACFStringNS_6vectorIS1_NS_9allocatorIS1_EEEENS_4lessIS1_EENS3_INS_4pairIKS1_S5_EEEEEC1B8ne190102ESt16initializer_listISA_ERKS7_, symObjAddr: 0x2C4C, symBinAddr: 0x100009F68, symSize: 0x44 }
  - { offset: 0xB0AFF, size: 0x8, addend: 0x0, symName: __ZNSt3__14pairIK10CACFStringNS_6vectorIS1_NS_9allocatorIS1_EEEEED1Ev, symObjAddr: 0x2C90, symBinAddr: 0x100009FAC, symSize: 0x2C }
  - { offset: 0xB0B2B, size: 0x8, addend: 0x0, symName: __ZNK10CACFString10StartsWithEPK10__CFString, symObjAddr: 0x2CBC, symBinAddr: 0x100009FD8, symSize: 0x60 }
  - { offset: 0xB0B6F, size: 0x8, addend: 0x0, symName: __ZNSt3__13mapI10CACFStringNS_6vectorIS1_NS_9allocatorIS1_EEEENS_4lessIS1_EENS3_INS_4pairIKS1_S5_EEEEEixERS9_, symObjAddr: 0x2D1C, symBinAddr: 0x10000A038, symSize: 0xC4 }
  - { offset: 0xB0BA7, size: 0x8, addend: 0x0, symName: __ZNSt3__16vectorI10CACFStringNS_9allocatorIS1_EEEC1ERKS4_, symObjAddr: 0x2DE0, symBinAddr: 0x10000A0FC, symSize: 0x34 }
  - { offset: 0xB0BE3, size: 0x8, addend: 0x0, symName: __ZNSt3__13mapI10CACFStringNS_6vectorIS1_NS_9allocatorIS1_EEEENS_4lessIS1_EENS3_INS_4pairIKS1_S5_EEEEED1B8ne190102Ev, symObjAddr: 0x2E14, symBinAddr: 0x10000A130, symSize: 0x2C }
  - { offset: 0xB0C0D, size: 0x8, addend: 0x0, symName: __ZNK24BGMBackgroundMusicDevice15GetAudibleStateEv, symObjAddr: 0x2E40, symBinAddr: 0x10000A15C, symSize: 0x20C }
  - { offset: 0xB0C76, size: 0x8, addend: 0x0, symName: __ZNK24BGMBackgroundMusicDevice23GetMusicPlayerProcessIDEv, symObjAddr: 0x304C, symBinAddr: 0x10000A368, symSize: 0x20C }
  - { offset: 0xB0CDF, size: 0x8, addend: 0x0, symName: __ZNK24BGMBackgroundMusicDevice22GetMusicPlayerBundleIDEv, symObjAddr: 0x3258, symBinAddr: 0x10000A574, symSize: 0xC8 }
  - { offset: 0xB0D18, size: 0x8, addend: 0x0, symName: __ZNK16CAHALAudioObject24GetPropertyData_CFStringERK26AudioObjectPropertyAddressjPKv, symObjAddr: 0x3320, symBinAddr: 0x10000A63C, symSize: 0x54 }
  - { offset: 0xB0D89, size: 0x8, addend: 0x0, symName: __ZNK24BGMBackgroundMusicDevice22GetDebugLoggingEnabledEv, symObjAddr: 0x3374, symBinAddr: 0x10000A690, symSize: 0x184 }
  - { offset: 0xB0DD2, size: 0x8, addend: 0x0, symName: __ZN24BGMBackgroundMusicDevice23SetMusicPlayerProcessIDEPK10__CFNumber, symObjAddr: 0x34F8, symBinAddr: 0x10000A814, symSize: 0x3C }
  - { offset: 0xB0E07, size: 0x8, addend: 0x0, symName: __ZN24BGMBackgroundMusicDevice22SetMusicPlayerBundleIDEPK10__CFString, symObjAddr: 0x3534, symBinAddr: 0x10000A850, symSize: 0x3C }
  - { offset: 0xB0E3C, size: 0x8, addend: 0x0, symName: __ZN11CAExceptionC2Ei, symObjAddr: 0x3570, symBinAddr: 0x10000A88C, symSize: 0x20 }
  - { offset: 0xB0E75, size: 0x8, addend: 0x0, symName: __ZN11CAExceptionD2Ev, symObjAddr: 0x3590, symBinAddr: 0x10000A8AC, symSize: 0x14 }
  - { offset: 0xB0EAF, size: 0x8, addend: 0x0, symName: __ZNKSt3__16__lessIvvEclB8ne190102IiiEEbRKT_RKT0_, symObjAddr: 0x35F8, symBinAddr: 0x10000A914, symSize: 0x30 }
  - { offset: 0xB0F07, size: 0x8, addend: 0x0, symName: __ZN9CACFArrayC2Eb, symObjAddr: 0x367C, symBinAddr: 0x10000A998, symSize: 0x5C }
  - { offset: 0xB0F40, size: 0x8, addend: 0x0, symName: __ZN14CACFDictionaryC1Eb, symObjAddr: 0x36D8, symBinAddr: 0x10000A9F4, symSize: 0x38 }
  - { offset: 0xB0F79, size: 0x8, addend: 0x0, symName: __ZNK14CACFDictionary7GetDictEv, symObjAddr: 0x3710, symBinAddr: 0x10000AA2C, symSize: 0x18 }
  - { offset: 0xB0F9F, size: 0x8, addend: 0x0, symName: __ZN14CACFDictionaryC2Eb, symObjAddr: 0x3754, symBinAddr: 0x10000AA44, symSize: 0x64 }
  - { offset: 0xB0FD8, size: 0x8, addend: 0x0, symName: __ZNKSt3__111__wrap_iterIP10CACFStringE4baseB8ne190102Ev, symObjAddr: 0x393C, symBinAddr: 0x10000AAEC, symSize: 0x18 }
  - { offset: 0xB0FFE, size: 0x8, addend: 0x0, symName: __ZN10CACFStringC2ERKS_, symObjAddr: 0x3954, symBinAddr: 0x10000AB04, symSize: 0x4C }
  - { offset: 0xB1037, size: 0x8, addend: 0x0, symName: __ZN10CACFString6RetainEv, symObjAddr: 0x39A0, symBinAddr: 0x10000AB50, symSize: 0x50 }
  - { offset: 0xB105D, size: 0x8, addend: 0x0, symName: __ZN10CACFStringC2EPKc, symObjAddr: 0x3A74, symBinAddr: 0x10000ABA0, symSize: 0x4C }
  - { offset: 0xB1096, size: 0x8, addend: 0x0, symName: __ZNSt3__14pairIK10CACFStringNS_6vectorIS1_NS_9allocatorIS1_EEEEEC2B8ne190102ILb1ELi0EEERS2_RKS6_, symObjAddr: 0x3AC0, symBinAddr: 0x10000ABEC, symSize: 0x70 }
  - { offset: 0xB10F0, size: 0x8, addend: 0x0, symName: __ZNSt3__14pairIK10CACFStringNS_6vectorIS1_NS_9allocatorIS1_EEEEED2Ev, symObjAddr: 0x3B30, symBinAddr: 0x10000AC5C, symSize: 0x38 }
  - { offset: 0xB111C, size: 0x8, addend: 0x0, symName: __ZN16CAHALAudioObject24SetPropertyData_CFStringERK26AudioObjectPropertyAddressPK10__CFStringjPKv, symObjAddr: 0x3B68, symBinAddr: 0x10000AC94, symSize: 0x48 }
  - { offset: 0xB117E, size: 0x8, addend: 0x0, symName: __ZNSt3__16vectorI10CACFStringNS_9allocatorIS1_EEED2B8ne190102Ev, symObjAddr: 0x3BB0, symBinAddr: 0x10000ACDC, symSize: 0x44 }
  - { offset: 0xB11A8, size: 0x8, addend: 0x0, symName: __ZNSt3__16vectorI10CACFStringNS_9allocatorIS1_EEE16__destroy_vectorC1B8ne190102ERS4_, symObjAddr: 0x3BF4, symBinAddr: 0x10000AD20, symSize: 0x34 }
  - { offset: 0xB11E2, size: 0x8, addend: 0x0, symName: __ZNSt3__16vectorI10CACFStringNS_9allocatorIS1_EEE16__destroy_vectorclB8ne190102Ev, symObjAddr: 0x3C28, symBinAddr: 0x10000AD54, symSize: 0x88 }
  - { offset: 0xB1208, size: 0x8, addend: 0x0, symName: __ZNSt3__16vectorI10CACFStringNS_9allocatorIS1_EEE16__destroy_vectorC2B8ne190102ERS4_, symObjAddr: 0x3CB0, symBinAddr: 0x10000ADDC, symSize: 0x20 }
  - { offset: 0xB1242, size: 0x8, addend: 0x0, symName: __ZNSt3__16vectorI10CACFStringNS_9allocatorIS1_EEE7__clearB8ne190102Ev, symObjAddr: 0x3CD0, symBinAddr: 0x10000ADFC, symSize: 0x28 }
  - { offset: 0xB1268, size: 0x8, addend: 0x0, symName: __ZNKSt3__16vectorI10CACFStringNS_9allocatorIS1_EEE17__annotate_deleteB8ne190102Ev, symObjAddr: 0x3CF8, symBinAddr: 0x10000AE24, symSize: 0x10 }
  - { offset: 0xB128E, size: 0x8, addend: 0x0, symName: __ZNSt3__116allocator_traitsINS_9allocatorI10CACFStringEEE10deallocateB8ne190102ERS3_PS2_m, symObjAddr: 0x3D08, symBinAddr: 0x10000AE34, symSize: 0x34 }
  - { offset: 0xB12D3, size: 0x8, addend: 0x0, symName: __ZNSt3__16vectorI10CACFStringNS_9allocatorIS1_EEE7__allocB8ne190102Ev, symObjAddr: 0x3D3C, symBinAddr: 0x10000AE68, symSize: 0x28 }
  - { offset: 0xB12F9, size: 0x8, addend: 0x0, symName: __ZNKSt3__16vectorI10CACFStringNS_9allocatorIS1_EEE8capacityB8ne190102Ev, symObjAddr: 0x3D64, symBinAddr: 0x10000AE90, symSize: 0x40 }
  - { offset: 0xB131F, size: 0x8, addend: 0x0, symName: __ZNSt3__16vectorI10CACFStringNS_9allocatorIS1_EEE22__base_destruct_at_endB8ne190102EPS1_, symObjAddr: 0x3DA4, symBinAddr: 0x10000AED0, symSize: 0x88 }
  - { offset: 0xB1365, size: 0x8, addend: 0x0, symName: __ZNSt3__116allocator_traitsINS_9allocatorI10CACFStringEEE7destroyB8ne190102IS2_Li0EEEvRS3_PT_, symObjAddr: 0x3E2C, symBinAddr: 0x10000AF58, symSize: 0x2C }
  - { offset: 0xB13AB, size: 0x8, addend: 0x0, symName: __ZNSt3__19allocatorI10CACFStringE7destroyB8ne190102EPS1_, symObjAddr: 0x3E6C, symBinAddr: 0x10000AF98, symSize: 0x28 }
  - { offset: 0xB13E0, size: 0x8, addend: 0x0, symName: __ZNSt3__19allocatorI10CACFStringE10deallocateB8ne190102EPS1_m, symObjAddr: 0x3E94, symBinAddr: 0x10000AFC0, symSize: 0x40 }
  - { offset: 0xB1424, size: 0x8, addend: 0x0, symName: __ZNSt3__117__compressed_pairIP10CACFStringNS_9allocatorIS1_EEE6secondB8ne190102Ev, symObjAddr: 0x3F50, symBinAddr: 0x10000B000, symSize: 0x24 }
  - { offset: 0xB144A, size: 0x8, addend: 0x0, symName: __ZNSt3__122__compressed_pair_elemINS_9allocatorI10CACFStringEELi1ELb1EE5__getB8ne190102Ev, symObjAddr: 0x3F74, symBinAddr: 0x10000B024, symSize: 0x14 }
  - { offset: 0xB1470, size: 0x8, addend: 0x0, symName: __ZNKSt3__16vectorI10CACFStringNS_9allocatorIS1_EEE9__end_capB8ne190102Ev, symObjAddr: 0x3F88, symBinAddr: 0x10000B038, symSize: 0x28 }
  - { offset: 0xB1496, size: 0x8, addend: 0x0, symName: __ZNKSt3__117__compressed_pairIP10CACFStringNS_9allocatorIS1_EEE5firstB8ne190102Ev, symObjAddr: 0x3FB0, symBinAddr: 0x10000B060, symSize: 0x24 }
  - { offset: 0xB14BC, size: 0x8, addend: 0x0, symName: __ZNKSt3__122__compressed_pair_elemIP10CACFStringLi0ELb0EE5__getB8ne190102Ev, symObjAddr: 0x3FD4, symBinAddr: 0x10000B084, symSize: 0x14 }
  - { offset: 0xB14E2, size: 0x8, addend: 0x0, symName: __ZNSt3__16vectorI10CACFStringNS_9allocatorIS1_EEE11__make_iterB8ne190102EPS1_, symObjAddr: 0x3FE8, symBinAddr: 0x10000B098, symSize: 0x30 }
  - { offset: 0xB1518, size: 0x8, addend: 0x0, symName: __ZNSt3__111__wrap_iterIP10CACFStringEC1B8ne190102ES2_, symObjAddr: 0x4018, symBinAddr: 0x10000B0C8, symSize: 0x34 }
  - { offset: 0xB1551, size: 0x8, addend: 0x0, symName: __ZNSt3__111__wrap_iterIP10CACFStringEC2B8ne190102ES2_, symObjAddr: 0x404C, symBinAddr: 0x10000B0FC, symSize: 0x20 }
  - { offset: 0xB158A, size: 0x8, addend: 0x0, symName: __ZNSt3__16vectorI10CACFStringNS_9allocatorIS1_EEEC2B8ne190102Ev, symObjAddr: 0x406C, symBinAddr: 0x10000B11C, symSize: 0x4C }
  - { offset: 0xB15C0, size: 0x8, addend: 0x0, symName: __ZNSt3__117__compressed_pairIP10CACFStringNS_9allocatorIS1_EEEC1B8ne190102IDnNS_18__default_init_tagEEEOT_OT0_, symObjAddr: 0x40B8, symBinAddr: 0x10000B168, symSize: 0x3C }
  - { offset: 0xB161C, size: 0x8, addend: 0x0, symName: __ZNSt3__117__compressed_pairIP10CACFStringNS_9allocatorIS1_EEEC2B8ne190102IDnNS_18__default_init_tagEEEOT_OT0_, symObjAddr: 0x40F4, symBinAddr: 0x10000B1A4, symSize: 0x40 }
  - { offset: 0xB1678, size: 0x8, addend: 0x0, symName: __ZNSt3__122__compressed_pair_elemIP10CACFStringLi0ELb0EEC2B8ne190102IDnLi0EEEOT_, symObjAddr: 0x4134, symBinAddr: 0x10000B1E4, symSize: 0x1C }
  - { offset: 0xB16C2, size: 0x8, addend: 0x0, symName: __ZNSt3__122__compressed_pair_elemINS_9allocatorI10CACFStringEELi1ELb1EEC2B8ne190102ENS_18__default_init_tagE, symObjAddr: 0x4150, symBinAddr: 0x10000B200, symSize: 0x2C }
  - { offset: 0xB16F7, size: 0x8, addend: 0x0, symName: __ZNSt3__19allocatorI10CACFStringEC2B8ne190102Ev, symObjAddr: 0x417C, symBinAddr: 0x10000B22C, symSize: 0x2C }
  - { offset: 0xB1721, size: 0x8, addend: 0x0, symName: __ZNSt3__116__non_trivial_ifILb1ENS_9allocatorI10CACFStringEEEC2B8ne190102Ev, symObjAddr: 0x41A8, symBinAddr: 0x10000B258, symSize: 0x14 }
  - { offset: 0xB174B, size: 0x8, addend: 0x0, symName: __ZNSt3__16vectorI10CACFStringNS_9allocatorIS1_EEEC2B8ne190102ESt16initializer_listIS1_E, symObjAddr: 0x41BC, symBinAddr: 0x10000B26C, symSize: 0x11C }
  - { offset: 0xB179E, size: 0x8, addend: 0x0, symName: __ZNKSt16initializer_listI10CACFStringE4sizeB8ne190102Ev, symObjAddr: 0x4318, symBinAddr: 0x10000B3C8, symSize: 0x18 }
  - { offset: 0xB17C4, size: 0x8, addend: 0x0, symName: __ZNSt3__16vectorI10CACFStringNS_9allocatorIS1_EEE11__vallocateB8ne190102Em, symObjAddr: 0x4330, symBinAddr: 0x10000B3E0, symSize: 0xA8 }
  - { offset: 0xB180A, size: 0x8, addend: 0x0, symName: __ZNSt3__16vectorI10CACFStringNS_9allocatorIS1_EEE18__construct_at_endIPKS1_S7_EEvT_T0_m, symObjAddr: 0x43D8, symBinAddr: 0x10000B488, symSize: 0x8C }
  - { offset: 0xB1884, size: 0x8, addend: 0x0, symName: __ZNKSt16initializer_listI10CACFStringE5beginB8ne190102Ev, symObjAddr: 0x4464, symBinAddr: 0x10000B514, symSize: 0x18 }
  - { offset: 0xB18AA, size: 0x8, addend: 0x0, symName: __ZNKSt16initializer_listI10CACFStringE3endB8ne190102Ev, symObjAddr: 0x447C, symBinAddr: 0x10000B52C, symSize: 0x20 }
  - { offset: 0xB18D0, size: 0x8, addend: 0x0, symName: __ZNSt3__128__exception_guard_exceptionsINS_6vectorI10CACFStringNS_9allocatorIS2_EEE16__destroy_vectorEE10__completeB8ne190102Ev, symObjAddr: 0x449C, symBinAddr: 0x10000B54C, symSize: 0x1C }
  - { offset: 0xB18F6, size: 0x8, addend: 0x0, symName: __ZNSt3__128__exception_guard_exceptionsINS_6vectorI10CACFStringNS_9allocatorIS2_EEE16__destroy_vectorEED1B8ne190102Ev, symObjAddr: 0x44B8, symBinAddr: 0x10000B568, symSize: 0x2C }
  - { offset: 0xB1920, size: 0x8, addend: 0x0, symName: __ZNSt3__128__exception_guard_exceptionsINS_6vectorI10CACFStringNS_9allocatorIS2_EEE16__destroy_vectorEEC1B8ne190102ES6_, symObjAddr: 0x44E4, symBinAddr: 0x10000B594, symSize: 0x34 }
  - { offset: 0xB1959, size: 0x8, addend: 0x0, symName: __ZNSt3__128__exception_guard_exceptionsINS_6vectorI10CACFStringNS_9allocatorIS2_EEE16__destroy_vectorEEC2B8ne190102ES6_, symObjAddr: 0x4518, symBinAddr: 0x10000B5C8, symSize: 0x24 }
  - { offset: 0xB1992, size: 0x8, addend: 0x0, symName: __ZNKSt3__16vectorI10CACFStringNS_9allocatorIS1_EEE8max_sizeEv, symObjAddr: 0x453C, symBinAddr: 0x10000B5EC, symSize: 0x60 }
  - { offset: 0xB19BA, size: 0x8, addend: 0x0, symName: __ZNKSt3__16vectorI10CACFStringNS_9allocatorIS1_EEE20__throw_length_errorB8ne190102Ev, symObjAddr: 0x459C, symBinAddr: 0x10000B64C, symSize: 0x1C }
  - { offset: 0xB19E0, size: 0x8, addend: 0x0, symName: __ZNSt3__16vectorI10CACFStringNS_9allocatorIS1_EEE9__end_capB8ne190102Ev, symObjAddr: 0x45F8, symBinAddr: 0x10000B6A8, symSize: 0x28 }
  - { offset: 0xB1A06, size: 0x8, addend: 0x0, symName: __ZNKSt3__16vectorI10CACFStringNS_9allocatorIS1_EEE14__annotate_newB8ne190102Em, symObjAddr: 0x4620, symBinAddr: 0x10000B6D0, symSize: 0x14 }
  - { offset: 0xB1A47, size: 0x8, addend: 0x0, symName: __ZNSt3__116allocator_traitsINS_9allocatorI10CACFStringEEE8max_sizeB8ne190102IS3_Li0EEEmRKS3_, symObjAddr: 0x4660, symBinAddr: 0x10000B6E4, symSize: 0x24 }
  - { offset: 0xB1A7D, size: 0x8, addend: 0x0, symName: __ZNKSt3__16vectorI10CACFStringNS_9allocatorIS1_EEE7__allocB8ne190102Ev, symObjAddr: 0x4684, symBinAddr: 0x10000B708, symSize: 0x28 }
  - { offset: 0xB1AA3, size: 0x8, addend: 0x0, symName: __ZNKSt3__19allocatorI10CACFStringE8max_sizeB8ne190102Ev, symObjAddr: 0x4744, symBinAddr: 0x10000B730, symSize: 0x14 }
  - { offset: 0xB1AC9, size: 0x8, addend: 0x0, symName: __ZNKSt3__117__compressed_pairIP10CACFStringNS_9allocatorIS1_EEE6secondB8ne190102Ev, symObjAddr: 0x4758, symBinAddr: 0x10000B744, symSize: 0x24 }
  - { offset: 0xB1AEF, size: 0x8, addend: 0x0, symName: __ZNKSt3__122__compressed_pair_elemINS_9allocatorI10CACFStringEELi1ELb1EE5__getB8ne190102Ev, symObjAddr: 0x477C, symBinAddr: 0x10000B768, symSize: 0x14 }
  - { offset: 0xB1B15, size: 0x8, addend: 0x0, symName: __ZNSt3__19allocatorI10CACFStringE8allocateB8ne190102Em, symObjAddr: 0x4874, symBinAddr: 0x10000B77C, symSize: 0x54 }
  - { offset: 0xB1B4A, size: 0x8, addend: 0x0, symName: __ZNSt3__117__compressed_pairIP10CACFStringNS_9allocatorIS1_EEE5firstB8ne190102Ev, symObjAddr: 0x4948, symBinAddr: 0x10000B7D0, symSize: 0x24 }
  - { offset: 0xB1B70, size: 0x8, addend: 0x0, symName: __ZNSt3__122__compressed_pair_elemIP10CACFStringLi0ELb0EE5__getB8ne190102Ev, symObjAddr: 0x496C, symBinAddr: 0x10000B7F4, symSize: 0x14 }
  - { offset: 0xB1BB1, size: 0x8, addend: 0x0, symName: __ZNSt3__16vectorI10CACFStringNS_9allocatorIS1_EEE21_ConstructTransactionC1B8ne190102ERS4_m, symObjAddr: 0x4980, symBinAddr: 0x10000B808, symSize: 0x3C }
  - { offset: 0xB1BFB, size: 0x8, addend: 0x0, symName: __ZNSt3__16vectorI10CACFStringNS_9allocatorIS1_EEE21_ConstructTransactionD1B8ne190102Ev, symObjAddr: 0x4A3C, symBinAddr: 0x10000B8C4, symSize: 0x2C }
  - { offset: 0xB1C25, size: 0x8, addend: 0x0, symName: __ZNSt3__16vectorI10CACFStringNS_9allocatorIS1_EEE21_ConstructTransactionC2B8ne190102ERS4_m, symObjAddr: 0x4A68, symBinAddr: 0x10000B8F0, symSize: 0x44 }
  - { offset: 0xB1C91, size: 0x8, addend: 0x0, symName: __ZNSt3__14pairIPK10CACFStringS3_EC1B8ne190102IS3_S3_Li0EEEOT_OT0_, symObjAddr: 0x4CB8, symBinAddr: 0x10000BB40, symSize: 0x3C }
  - { offset: 0xB1CF4, size: 0x8, addend: 0x0, symName: __ZNSt3__14pairIPK10CACFStringS3_EC2B8ne190102IS3_S3_Li0EEEOT_OT0_, symObjAddr: 0x4CF4, symBinAddr: 0x10000BB7C, symSize: 0x34 }
  - { offset: 0xB1D57, size: 0x8, addend: 0x0, symName: __ZNSt3__118__unwrap_iter_implIPK10CACFStringLb1EE8__unwrapB8ne190102ES3_, symObjAddr: 0x4D28, symBinAddr: 0x10000BBB0, symSize: 0x24 }
  - { offset: 0xB1D7B, size: 0x8, addend: 0x0, symName: __ZNSt3__129_AllocatorDestroyRangeReverseINS_9allocatorI10CACFStringEEPS2_EC1B8ne190102ERS3_RS4_S7_, symObjAddr: 0x4DAC, symBinAddr: 0x10000BC34, symSize: 0x44 }
  - { offset: 0xB1DD5, size: 0x8, addend: 0x0, symName: __ZNSt3__116allocator_traitsINS_9allocatorI10CACFStringEEE9constructB8ne190102IS2_JRKS2_ELi0EEEvRS3_PT_DpOT0_, symObjAddr: 0x4DF0, symBinAddr: 0x10000BC78, symSize: 0x34 }
  - { offset: 0xB1E38, size: 0x8, addend: 0x0, symName: __ZNSt3__128__exception_guard_exceptionsINS_29_AllocatorDestroyRangeReverseINS_9allocatorI10CACFStringEEPS3_EEE10__completeB8ne190102Ev, symObjAddr: 0x4E24, symBinAddr: 0x10000BCAC, symSize: 0x1C }
  - { offset: 0xB1E5E, size: 0x8, addend: 0x0, symName: __ZNSt3__128__exception_guard_exceptionsINS_29_AllocatorDestroyRangeReverseINS_9allocatorI10CACFStringEEPS3_EEED1B8ne190102Ev, symObjAddr: 0x4E40, symBinAddr: 0x10000BCC8, symSize: 0x2C }
  - { offset: 0xB1E88, size: 0x8, addend: 0x0, symName: __ZNSt3__128__exception_guard_exceptionsINS_29_AllocatorDestroyRangeReverseINS_9allocatorI10CACFStringEEPS3_EEEC1B8ne190102ES6_, symObjAddr: 0x4E6C, symBinAddr: 0x10000BCF4, symSize: 0x34 }
  - { offset: 0xB1EC2, size: 0x8, addend: 0x0, symName: __ZNSt3__128__exception_guard_exceptionsINS_29_AllocatorDestroyRangeReverseINS_9allocatorI10CACFStringEEPS3_EEEC2B8ne190102ES6_, symObjAddr: 0x4EA0, symBinAddr: 0x10000BD28, symSize: 0x30 }
  - { offset: 0xB1EFC, size: 0x8, addend: 0x0, symName: __ZNSt3__129_AllocatorDestroyRangeReverseINS_9allocatorI10CACFStringEEPS2_EC2B8ne190102ERS3_RS4_S7_, symObjAddr: 0x4ED0, symBinAddr: 0x10000BD58, symSize: 0x38 }
  - { offset: 0xB1F56, size: 0x8, addend: 0x0, symName: __ZNSt3__19allocatorI10CACFStringE9constructB8ne190102IS1_JRKS1_EEEvPT_DpOT0_, symObjAddr: 0x4F08, symBinAddr: 0x10000BD90, symSize: 0x30 }
  - { offset: 0xB1FB1, size: 0x8, addend: 0x0, symName: __ZNSt3__128__exception_guard_exceptionsINS_29_AllocatorDestroyRangeReverseINS_9allocatorI10CACFStringEEPS3_EEED2B8ne190102Ev, symObjAddr: 0x4F38, symBinAddr: 0x10000BDC0, symSize: 0x50 }
  - { offset: 0xB1FDB, size: 0x8, addend: 0x0, symName: __ZNKSt3__129_AllocatorDestroyRangeReverseINS_9allocatorI10CACFStringEEPS2_EclB8ne190102Ev, symObjAddr: 0x4F88, symBinAddr: 0x10000BE10, symSize: 0x68 }
  - { offset: 0xB2001, size: 0x8, addend: 0x0, symName: __ZNSt3__116reverse_iteratorIP10CACFStringEC1B8ne190102ES2_, symObjAddr: 0x5060, symBinAddr: 0x10000BEE8, symSize: 0x34 }
  - { offset: 0xB203A, size: 0x8, addend: 0x0, symName: __ZNSt3__116reverse_iteratorIP10CACFStringEppB8ne190102Ev, symObjAddr: 0x50FC, symBinAddr: 0x10000BF84, symSize: 0x20 }
  - { offset: 0xB2060, size: 0x8, addend: 0x0, symName: __ZNKSt3__116reverse_iteratorIP10CACFStringE4baseB8ne190102Ev, symObjAddr: 0x511C, symBinAddr: 0x10000BFA4, symSize: 0x18 }
  - { offset: 0xB208C, size: 0x8, addend: 0x0, symName: __ZNSt3__119__to_address_helperINS_16reverse_iteratorIP10CACFStringEEvE6__callB8ne190102ERKS4_, symObjAddr: 0x5134, symBinAddr: 0x10000BFBC, symSize: 0x38 }
  - { offset: 0xB20B0, size: 0x8, addend: 0x0, symName: __ZNKSt3__116reverse_iteratorIP10CACFStringEptB8ne190102Ev, symObjAddr: 0x516C, symBinAddr: 0x10000BFF4, symSize: 0x24 }
  - { offset: 0xB20D6, size: 0x8, addend: 0x0, symName: __ZNKSt3__116reverse_iteratorIP10CACFStringEdeB8ne190102Ev, symObjAddr: 0x5190, symBinAddr: 0x10000C018, symSize: 0x28 }
  - { offset: 0xB210B, size: 0x8, addend: 0x0, symName: __ZNSt3__116reverse_iteratorIP10CACFStringEC2B8ne190102ES2_, symObjAddr: 0x51B8, symBinAddr: 0x10000C040, symSize: 0x28 }
  - { offset: 0xB2144, size: 0x8, addend: 0x0, symName: __ZNSt3__118__unwrap_iter_implIP10CACFStringLb1EE8__unwrapB8ne190102ES2_, symObjAddr: 0x51E0, symBinAddr: 0x10000C068, symSize: 0x24 }
  - { offset: 0xB2168, size: 0x8, addend: 0x0, symName: __ZNSt3__118__unwrap_iter_implIP10CACFStringLb1EE8__rewrapB8ne190102ES2_S2_, symObjAddr: 0x5204, symBinAddr: 0x10000C08C, symSize: 0x50 }
  - { offset: 0xB219B, size: 0x8, addend: 0x0, symName: __ZNSt3__16vectorI10CACFStringNS_9allocatorIS1_EEE21_ConstructTransactionD2B8ne190102Ev, symObjAddr: 0x5254, symBinAddr: 0x10000C0DC, symSize: 0x20 }
  - { offset: 0xB21C5, size: 0x8, addend: 0x0, symName: __ZNSt3__128__exception_guard_exceptionsINS_6vectorI10CACFStringNS_9allocatorIS2_EEE16__destroy_vectorEED2B8ne190102Ev, symObjAddr: 0x5274, symBinAddr: 0x10000C0FC, symSize: 0x48 }
  - { offset: 0xB21EF, size: 0x8, addend: 0x0, symName: __ZNSt3__16vectorI10CACFStringNS_9allocatorIS1_EEEC2ERKS4_, symObjAddr: 0x52BC, symBinAddr: 0x10000C144, symSize: 0x94 }
  - { offset: 0xB222B, size: 0x8, addend: 0x0, symName: __ZNSt3__116allocator_traitsINS_9allocatorI10CACFStringEEE37select_on_container_copy_constructionB8ne190102IS3_vLi0EEES3_RKS3_, symObjAddr: 0x5350, symBinAddr: 0x10000C1D8, symSize: 0x10 }
  - { offset: 0xB2269, size: 0x8, addend: 0x0, symName: __ZNSt3__117__compressed_pairIP10CACFStringNS_9allocatorIS1_EEEC1B8ne190102IDnS4_EEOT_OT0_, symObjAddr: 0x5360, symBinAddr: 0x10000C1E8, symSize: 0x3C }
  - { offset: 0xB22C5, size: 0x8, addend: 0x0, symName: __ZNSt3__16vectorI10CACFStringNS_9allocatorIS1_EEE16__init_with_sizeB8ne190102IPS1_S6_EEvT_T0_m, symObjAddr: 0x539C, symBinAddr: 0x10000C224, symSize: 0xB4 }
  - { offset: 0xB233F, size: 0x8, addend: 0x0, symName: __ZNKSt3__16vectorI10CACFStringNS_9allocatorIS1_EEE4sizeB8ne190102Ev, symObjAddr: 0x5450, symBinAddr: 0x10000C2D8, symSize: 0x28 }
  - { offset: 0xB2365, size: 0x8, addend: 0x0, symName: __ZNSt3__117__compressed_pairIP10CACFStringNS_9allocatorIS1_EEEC2B8ne190102IDnS4_EEOT_OT0_, symObjAddr: 0x5478, symBinAddr: 0x10000C300, symSize: 0x44 }
  - { offset: 0xB23C1, size: 0x8, addend: 0x0, symName: __ZNSt3__122__compressed_pair_elemINS_9allocatorI10CACFStringEELi1ELb1EEC2B8ne190102IS3_Li0EEEOT_, symObjAddr: 0x54BC, symBinAddr: 0x10000C344, symSize: 0x18 }
  - { offset: 0xB240B, size: 0x8, addend: 0x0, symName: __ZNSt3__16vectorI10CACFStringNS_9allocatorIS1_EEE18__construct_at_endIPS1_S6_EEvT_T0_m, symObjAddr: 0x54D4, symBinAddr: 0x10000C35C, symSize: 0x8C }
  - { offset: 0xB24A7, size: 0x8, addend: 0x0, symName: __ZNSt3__14pairIP10CACFStringS2_EC1B8ne190102IS2_S2_Li0EEEOT_OT0_, symObjAddr: 0x5768, symBinAddr: 0x10000C5F0, symSize: 0x3C }
  - { offset: 0xB250A, size: 0x8, addend: 0x0, symName: __ZNSt3__14pairIP10CACFStringS2_EC2B8ne190102IS2_S2_Li0EEEOT_OT0_, symObjAddr: 0x57A4, symBinAddr: 0x10000C62C, symSize: 0x34 }
  - { offset: 0xB256D, size: 0x8, addend: 0x0, symName: __ZNSt3__116allocator_traitsINS_9allocatorI10CACFStringEEE9constructB8ne190102IS2_JRS2_ELi0EEEvRS3_PT_DpOT0_, symObjAddr: 0x57D8, symBinAddr: 0x10000C660, symSize: 0x34 }
  - { offset: 0xB25D0, size: 0x8, addend: 0x0, symName: __ZNSt3__19allocatorI10CACFStringE9constructB8ne190102IS1_JRS1_EEEvPT_DpOT0_, symObjAddr: 0x580C, symBinAddr: 0x10000C694, symSize: 0x30 }
  - { offset: 0xB262B, size: 0x8, addend: 0x0, symName: __ZNSt3__13mapI10CACFStringNS_6vectorIS1_NS_9allocatorIS1_EEEENS_4lessIS1_EENS3_INS_4pairIKS1_S5_EEEEEC2B8ne190102ESt16initializer_listISA_ERKS7_, symObjAddr: 0x583C, symBinAddr: 0x10000C6C4, symSize: 0xA4 }
  - { offset: 0xB2675, size: 0x8, addend: 0x0, symName: __ZNSt3__119__map_value_compareI10CACFStringNS_12__value_typeIS1_NS_6vectorIS1_NS_9allocatorIS1_EEEEEENS_4lessIS1_EELb1EEC1B8ne190102ES9_, symObjAddr: 0x58E0, symBinAddr: 0x10000C768, symSize: 0x2C }
  - { offset: 0xB26AF, size: 0x8, addend: 0x0, symName: __ZNSt3__16__treeINS_12__value_typeI10CACFStringNS_6vectorIS2_NS_9allocatorIS2_EEEEEENS_19__map_value_compareIS2_S7_NS_4lessIS2_EELb1EEENS4_IS7_EEEC1ERKSB_, symObjAddr: 0x590C, symBinAddr: 0x10000C794, symSize: 0x34 }
  - { offset: 0xB26EB, size: 0x8, addend: 0x0, symName: __ZNSt3__13mapI10CACFStringNS_6vectorIS1_NS_9allocatorIS1_EEEENS_4lessIS1_EENS3_INS_4pairIKS1_S5_EEEEE6insertB8ne190102IPKSA_EEvT_SG_, symObjAddr: 0x5940, symBinAddr: 0x10000C7C8, symSize: 0x88 }
  - { offset: 0xB275A, size: 0x8, addend: 0x0, symName: __ZNKSt16initializer_listINSt3__14pairIK10CACFStringNS0_6vectorIS2_NS0_9allocatorIS2_EEEEEEE5beginB8ne190102Ev, symObjAddr: 0x59C8, symBinAddr: 0x10000C850, symSize: 0x18 }
  - { offset: 0xB2780, size: 0x8, addend: 0x0, symName: __ZNKSt16initializer_listINSt3__14pairIK10CACFStringNS0_6vectorIS2_NS0_9allocatorIS2_EEEEEEE3endB8ne190102Ev, symObjAddr: 0x59E0, symBinAddr: 0x10000C868, symSize: 0x28 }
  - { offset: 0xB27A6, size: 0x8, addend: 0x0, symName: __ZNSt3__16__treeINS_12__value_typeI10CACFStringNS_6vectorIS2_NS_9allocatorIS2_EEEEEENS_19__map_value_compareIS2_S7_NS_4lessIS2_EELb1EEENS4_IS7_EEED1Ev, symObjAddr: 0x5A08, symBinAddr: 0x10000C890, symSize: 0x2C }
  - { offset: 0xB27D2, size: 0x8, addend: 0x0, symName: __ZNSt3__119__map_value_compareI10CACFStringNS_12__value_typeIS1_NS_6vectorIS1_NS_9allocatorIS1_EEEEEENS_4lessIS1_EELb1EEC2B8ne190102ES9_, symObjAddr: 0x5A34, symBinAddr: 0x10000C8BC, symSize: 0x14 }
  - { offset: 0xB280C, size: 0x8, addend: 0x0, symName: __ZNSt3__16__treeINS_12__value_typeI10CACFStringNS_6vectorIS2_NS_9allocatorIS2_EEEEEENS_19__map_value_compareIS2_S7_NS_4lessIS2_EELb1EEENS4_IS7_EEEC2ERKSB_, symObjAddr: 0x5A48, symBinAddr: 0x10000C8D0, symSize: 0x7C }
  - { offset: 0xB2848, size: 0x8, addend: 0x0, symName: __ZNSt3__117__compressed_pairINS_15__tree_end_nodeIPNS_16__tree_node_baseIPvEEEENS_9allocatorINS_11__tree_nodeINS_12__value_typeI10CACFStringNS_6vectorISA_NS7_ISA_EEEEEES3_EEEEEC1B8ne190102ILb1ELi0EEEv, symObjAddr: 0x5AC4, symBinAddr: 0x10000C94C, symSize: 0x2C }
  - { offset: 0xB288A, size: 0x8, addend: 0x0, symName: __ZNSt3__117__compressed_pairImNS_19__map_value_compareI10CACFStringNS_12__value_typeIS2_NS_6vectorIS2_NS_9allocatorIS2_EEEEEENS_4lessIS2_EELb1EEEEC1B8ne190102IiRKSB_EEOT_OT0_, symObjAddr: 0x5AF0, symBinAddr: 0x10000C978, symSize: 0x3C }
  - { offset: 0xB28E6, size: 0x8, addend: 0x0, symName: __ZNSt3__16__treeINS_12__value_typeI10CACFStringNS_6vectorIS2_NS_9allocatorIS2_EEEEEENS_19__map_value_compareIS2_S7_NS_4lessIS2_EELb1EEENS4_IS7_EEE10__end_nodeB8ne190102Ev, symObjAddr: 0x5B2C, symBinAddr: 0x10000C9B4, symSize: 0x2C }
  - { offset: 0xB290C, size: 0x8, addend: 0x0, symName: __ZNSt3__16__treeINS_12__value_typeI10CACFStringNS_6vectorIS2_NS_9allocatorIS2_EEEEEENS_19__map_value_compareIS2_S7_NS_4lessIS2_EELb1EEENS4_IS7_EEE12__begin_nodeB8ne190102Ev, symObjAddr: 0x5B58, symBinAddr: 0x10000C9E0, symSize: 0x14 }
  - { offset: 0xB2932, size: 0x8, addend: 0x0, symName: __ZNSt3__117__compressed_pairINS_15__tree_end_nodeIPNS_16__tree_node_baseIPvEEEENS_9allocatorINS_11__tree_nodeINS_12__value_typeI10CACFStringNS_6vectorISA_NS7_ISA_EEEEEES3_EEEEEC2B8ne190102ILb1ELi0EEEv, symObjAddr: 0x5B6C, symBinAddr: 0x10000C9F4, symSize: 0x34 }
  - { offset: 0xB296E, size: 0x8, addend: 0x0, symName: __ZNSt3__122__compressed_pair_elemINS_15__tree_end_nodeIPNS_16__tree_node_baseIPvEEEELi0ELb0EEC2B8ne190102ENS_16__value_init_tagE, symObjAddr: 0x5BA0, symBinAddr: 0x10000CA28, symSize: 0x2C }
  - { offset: 0xB29A3, size: 0x8, addend: 0x0, symName: __ZNSt3__122__compressed_pair_elemINS_9allocatorINS_11__tree_nodeINS_12__value_typeI10CACFStringNS_6vectorIS4_NS1_IS4_EEEEEEPvEEEELi1ELb1EEC2B8ne190102ENS_16__value_init_tagE, symObjAddr: 0x5BCC, symBinAddr: 0x10000CA54, symSize: 0x2C }
  - { offset: 0xB29D8, size: 0x8, addend: 0x0, symName: __ZNSt3__115__tree_end_nodeIPNS_16__tree_node_baseIPvEEEC1B8ne190102Ev, symObjAddr: 0x5BF8, symBinAddr: 0x10000CA80, symSize: 0x2C }
  - { offset: 0xB2A02, size: 0x8, addend: 0x0, symName: __ZNSt3__115__tree_end_nodeIPNS_16__tree_node_baseIPvEEEC2B8ne190102Ev, symObjAddr: 0x5C24, symBinAddr: 0x10000CAAC, symSize: 0x18 }
  - { offset: 0xB2A2C, size: 0x8, addend: 0x0, symName: __ZNSt3__19allocatorINS_11__tree_nodeINS_12__value_typeI10CACFStringNS_6vectorIS3_NS0_IS3_EEEEEEPvEEEC2B8ne190102Ev, symObjAddr: 0x5C3C, symBinAddr: 0x10000CAC4, symSize: 0x2C }
  - { offset: 0xB2A56, size: 0x8, addend: 0x0, symName: __ZNSt3__116__non_trivial_ifILb1ENS_9allocatorINS_11__tree_nodeINS_12__value_typeI10CACFStringNS_6vectorIS4_NS1_IS4_EEEEEEPvEEEEEC2B8ne190102Ev, symObjAddr: 0x5C68, symBinAddr: 0x10000CAF0, symSize: 0x14 }
  - { offset: 0xB2A80, size: 0x8, addend: 0x0, symName: __ZNSt3__117__compressed_pairImNS_19__map_value_compareI10CACFStringNS_12__value_typeIS2_NS_6vectorIS2_NS_9allocatorIS2_EEEEEENS_4lessIS2_EELb1EEEEC2B8ne190102IiRKSB_EEOT_OT0_, symObjAddr: 0x5C7C, symBinAddr: 0x10000CB04, symSize: 0x44 }
  - { offset: 0xB2ADC, size: 0x8, addend: 0x0, symName: __ZNSt3__122__compressed_pair_elemImLi0ELb0EEC2B8ne190102IiLi0EEEOT_, symObjAddr: 0x5CC0, symBinAddr: 0x10000CB48, symSize: 0x24 }
  - { offset: 0xB2B26, size: 0x8, addend: 0x0, symName: __ZNSt3__122__compressed_pair_elemINS_19__map_value_compareI10CACFStringNS_12__value_typeIS2_NS_6vectorIS2_NS_9allocatorIS2_EEEEEENS_4lessIS2_EELb1EEELi1ELb1EEC2B8ne190102IRKSB_Li0EEEOT_, symObjAddr: 0x5CE4, symBinAddr: 0x10000CB6C, symSize: 0x18 }
  - { offset: 0xB2B70, size: 0x8, addend: 0x0, symName: __ZNSt3__114pointer_traitsIPNS_15__tree_end_nodeIPNS_16__tree_node_baseIPvEEEEE10pointer_toB8ne190102ERS6_, symObjAddr: 0x5CFC, symBinAddr: 0x10000CB84, symSize: 0x14 }
  - { offset: 0xB2B94, size: 0x8, addend: 0x0, symName: __ZNSt3__117__compressed_pairINS_15__tree_end_nodeIPNS_16__tree_node_baseIPvEEEENS_9allocatorINS_11__tree_nodeINS_12__value_typeI10CACFStringNS_6vectorISA_NS7_ISA_EEEEEES3_EEEEE5firstB8ne190102Ev, symObjAddr: 0x5D10, symBinAddr: 0x10000CB98, symSize: 0x24 }
  - { offset: 0xB2BBA, size: 0x8, addend: 0x0, symName: __ZNSt3__122__compressed_pair_elemINS_15__tree_end_nodeIPNS_16__tree_node_baseIPvEEEELi0ELb0EE5__getB8ne190102Ev, symObjAddr: 0x5D34, symBinAddr: 0x10000CBBC, symSize: 0x14 }
  - { offset: 0xB2BE0, size: 0x8, addend: 0x0, symName: __ZNKSt3__13mapI10CACFStringNS_6vectorIS1_NS_9allocatorIS1_EEEENS_4lessIS1_EENS3_INS_4pairIKS1_S5_EEEEE4cendB8ne190102Ev, symObjAddr: 0x5D48, symBinAddr: 0x10000CBD0, symSize: 0x2C }
  - { offset: 0xB2C06, size: 0x8, addend: 0x0, symName: __ZNSt3__13mapI10CACFStringNS_6vectorIS1_NS_9allocatorIS1_EEEENS_4lessIS1_EENS3_INS_4pairIKS1_S5_EEEEE6insertB8ne190102ENS_20__map_const_iteratorINS_21__tree_const_iteratorINS_12__value_typeIS1_S5_EEPNS_11__tree_nodeISG_PvEElEEEERKSA_, symObjAddr: 0x5D74, symBinAddr: 0x10000CBFC, symSize: 0x50 }
  - { offset: 0xB2C4C, size: 0x8, addend: 0x0, symName: __ZNSt3__120__map_const_iteratorINS_21__tree_const_iteratorINS_12__value_typeI10CACFStringNS_6vectorIS3_NS_9allocatorIS3_EEEEEEPNS_11__tree_nodeIS8_PvEElEEEC1B8ne190102ESD_, symObjAddr: 0x5DC4, symBinAddr: 0x10000CC4C, symSize: 0x34 }
  - { offset: 0xB2C86, size: 0x8, addend: 0x0, symName: __ZNKSt3__13mapI10CACFStringNS_6vectorIS1_NS_9allocatorIS1_EEEENS_4lessIS1_EENS3_INS_4pairIKS1_S5_EEEEE3endB8ne190102Ev, symObjAddr: 0x5DF8, symBinAddr: 0x10000CC80, symSize: 0x38 }
  - { offset: 0xB2CAC, size: 0x8, addend: 0x0, symName: __ZNKSt3__16__treeINS_12__value_typeI10CACFStringNS_6vectorIS2_NS_9allocatorIS2_EEEEEENS_19__map_value_compareIS2_S7_NS_4lessIS2_EELb1EEENS4_IS7_EEE3endB8ne190102Ev, symObjAddr: 0x5E30, symBinAddr: 0x10000CCB8, symSize: 0x34 }
  - { offset: 0xB2CD2, size: 0x8, addend: 0x0, symName: __ZNKSt3__16__treeINS_12__value_typeI10CACFStringNS_6vectorIS2_NS_9allocatorIS2_EEEEEENS_19__map_value_compareIS2_S7_NS_4lessIS2_EELb1EEENS4_IS7_EEE10__end_nodeB8ne190102Ev, symObjAddr: 0x5E64, symBinAddr: 0x10000CCEC, symSize: 0x2C }
  - { offset: 0xB2CF8, size: 0x8, addend: 0x0, symName: __ZNSt3__121__tree_const_iteratorINS_12__value_typeI10CACFStringNS_6vectorIS2_NS_9allocatorIS2_EEEEEEPNS_11__tree_nodeIS7_PvEElEC1B8ne190102EPNS_15__tree_end_nodeIPNS_16__tree_node_baseIS9_EEEE, symObjAddr: 0x5E90, symBinAddr: 0x10000CD18, symSize: 0x34 }
  - { offset: 0xB2D32, size: 0x8, addend: 0x0, symName: __ZNKSt3__117__compressed_pairINS_15__tree_end_nodeIPNS_16__tree_node_baseIPvEEEENS_9allocatorINS_11__tree_nodeINS_12__value_typeI10CACFStringNS_6vectorISA_NS7_ISA_EEEEEES3_EEEEE5firstB8ne190102Ev, symObjAddr: 0x5EC4, symBinAddr: 0x10000CD4C, symSize: 0x24 }
  - { offset: 0xB2D58, size: 0x8, addend: 0x0, symName: __ZNKSt3__122__compressed_pair_elemINS_15__tree_end_nodeIPNS_16__tree_node_baseIPvEEEELi0ELb0EE5__getB8ne190102Ev, symObjAddr: 0x5EE8, symBinAddr: 0x10000CD70, symSize: 0x14 }
  - { offset: 0xB2D7E, size: 0x8, addend: 0x0, symName: __ZNSt3__121__tree_const_iteratorINS_12__value_typeI10CACFStringNS_6vectorIS2_NS_9allocatorIS2_EEEEEEPNS_11__tree_nodeIS7_PvEElEC2B8ne190102EPNS_15__tree_end_nodeIPNS_16__tree_node_baseIS9_EEEE, symObjAddr: 0x5EFC, symBinAddr: 0x10000CD84, symSize: 0x20 }
  - { offset: 0xB2DB8, size: 0x8, addend: 0x0, symName: __ZNSt3__16__treeINS_12__value_typeI10CACFStringNS_6vectorIS2_NS_9allocatorIS2_EEEEEENS_19__map_value_compareIS2_S7_NS_4lessIS2_EELb1EEENS4_IS7_EEE15__insert_uniqueB8ne190102ENS_21__tree_const_iteratorIS7_PNS_11__tree_nodeIS7_PvEElEERKNS_4pairIKS2_S6_EE, symObjAddr: 0x5F1C, symBinAddr: 0x10000CDA4, symSize: 0xAC }
  - { offset: 0xB2DFE, size: 0x8, addend: 0x0, symName: __ZNSt3__114__map_iteratorINS_15__tree_iteratorINS_12__value_typeI10CACFStringNS_6vectorIS3_NS_9allocatorIS3_EEEEEEPNS_11__tree_nodeIS8_PvEElEEEC1B8ne190102ESD_, symObjAddr: 0x5FC8, symBinAddr: 0x10000CE50, symSize: 0x34 }
  - { offset: 0xB2E38, size: 0x8, addend: 0x0, symName: __ZNSt3__16__treeINS_12__value_typeI10CACFStringNS_6vectorIS2_NS_9allocatorIS2_EEEEEENS_19__map_value_compareIS2_S7_NS_4lessIS2_EELb1EEENS4_IS7_EEE30__emplace_hint_unique_key_argsIS2_JRKNS_4pairIKS2_S6_EEEEENSF_INS_15__tree_iteratorIS7_PNS_11__tree_nodeIS7_PvEElEEbEENS_21__tree_const_iteratorIS7_SO_lEERKT_DpOT0_, symObjAddr: 0x5FFC, symBinAddr: 0x10000CE84, symSize: 0xFC }
  - { offset: 0xB2F0F, size: 0x8, addend: 0x0, symName: __ZNSt3__122__tree_key_value_typesINS_12__value_typeI10CACFStringNS_6vectorIS2_NS_9allocatorIS2_EEEEEEE9__get_keyB8ne190102IKNS_4pairIKS2_S6_EELi0EEERSB_RT_, symObjAddr: 0x60F8, symBinAddr: 0x10000CF80, symSize: 0x14 }
  - { offset: 0xB2F45, size: 0x8, addend: 0x0, symName: __ZNSt3__16__treeINS_12__value_typeI10CACFStringNS_6vectorIS2_NS_9allocatorIS2_EEEEEENS_19__map_value_compareIS2_S7_NS_4lessIS2_EELb1EEENS4_IS7_EEE12__find_equalIS2_EERPNS_16__tree_node_baseIPvEENS_21__tree_const_iteratorIS7_PNS_11__tree_nodeIS7_SG_EElEERPNS_15__tree_end_nodeISI_EESJ_RKT_, symObjAddr: 0x610C, symBinAddr: 0x10000CF94, symSize: 0x2F4 }
  - { offset: 0xB2FF5, size: 0x8, addend: 0x0, symName: __ZNSt3__16__treeINS_12__value_typeI10CACFStringNS_6vectorIS2_NS_9allocatorIS2_EEEEEENS_19__map_value_compareIS2_S7_NS_4lessIS2_EELb1EEENS4_IS7_EEE16__construct_nodeIJRKNS_4pairIKS2_S6_EEEEENS_10unique_ptrINS_11__tree_nodeIS7_PvEENS_22__tree_node_destructorINS4_ISN_EEEEEEDpOT_, symObjAddr: 0x6400, symBinAddr: 0x10000D288, symSize: 0x110 }
  - { offset: 0xB3059, size: 0x8, addend: 0x0, symName: __ZNSt3__16__treeINS_12__value_typeI10CACFStringNS_6vectorIS2_NS_9allocatorIS2_EEEEEENS_19__map_value_compareIS2_S7_NS_4lessIS2_EELb1EEENS4_IS7_EEE16__insert_node_atEPNS_15__tree_end_nodeIPNS_16__tree_node_baseIPvEEEERSI_SI_, symObjAddr: 0x6510, symBinAddr: 0x10000D398, symSize: 0xC4 }
  - { offset: 0xB30B1, size: 0x8, addend: 0x0, symName: __ZNKSt3__110unique_ptrINS_11__tree_nodeINS_12__value_typeI10CACFStringNS_6vectorIS3_NS_9allocatorIS3_EEEEEEPvEENS_22__tree_node_destructorINS5_ISA_EEEEE3getB8ne190102Ev, symObjAddr: 0x65D4, symBinAddr: 0x10000D45C, symSize: 0x28 }
  - { offset: 0xB30D7, size: 0x8, addend: 0x0, symName: __ZNSt3__110unique_ptrINS_11__tree_nodeINS_12__value_typeI10CACFStringNS_6vectorIS3_NS_9allocatorIS3_EEEEEEPvEENS_22__tree_node_destructorINS5_ISA_EEEEE7releaseB8ne190102Ev, symObjAddr: 0x65FC, symBinAddr: 0x10000D484, symSize: 0x44 }
  - { offset: 0xB310D, size: 0x8, addend: 0x0, symName: __ZNSt3__110unique_ptrINS_11__tree_nodeINS_12__value_typeI10CACFStringNS_6vectorIS3_NS_9allocatorIS3_EEEEEEPvEENS_22__tree_node_destructorINS5_ISA_EEEEED1B8ne190102Ev, symObjAddr: 0x6640, symBinAddr: 0x10000D4C8, symSize: 0x2C }
  - { offset: 0xB3137, size: 0x8, addend: 0x0, symName: __ZNSt3__115__tree_iteratorINS_12__value_typeI10CACFStringNS_6vectorIS2_NS_9allocatorIS2_EEEEEEPNS_11__tree_nodeIS7_PvEElEC1B8ne190102ESB_, symObjAddr: 0x666C, symBinAddr: 0x10000D4F4, symSize: 0x34 }
  - { offset: 0xB3177, size: 0x8, addend: 0x0, symName: __ZNSt3__14pairINS_15__tree_iteratorINS_12__value_typeI10CACFStringNS_6vectorIS3_NS_9allocatorIS3_EEEEEEPNS_11__tree_nodeIS8_PvEElEEbEC1B8ne190102ISD_RbLi0EEEOT_OT0_, symObjAddr: 0x66A0, symBinAddr: 0x10000D528, symSize: 0x3C }
  - { offset: 0xB31DA, size: 0x8, addend: 0x0, symName: __ZNSt3__16__treeINS_12__value_typeI10CACFStringNS_6vectorIS2_NS_9allocatorIS2_EEEEEENS_19__map_value_compareIS2_S7_NS_4lessIS2_EELb1EEENS4_IS7_EEE3endB8ne190102Ev, symObjAddr: 0x6708, symBinAddr: 0x10000D590, symSize: 0x34 }
  - { offset: 0xB3200, size: 0x8, addend: 0x0, symName: __ZNSt3__121__tree_const_iteratorINS_12__value_typeI10CACFStringNS_6vectorIS2_NS_9allocatorIS2_EEEEEEPNS_11__tree_nodeIS7_PvEElEC1B8ne190102ENS_15__tree_iteratorIS7_SB_lEE, symObjAddr: 0x673C, symBinAddr: 0x10000D5C4, symSize: 0x34 }
  - { offset: 0xB323A, size: 0x8, addend: 0x0, symName: __ZNSt3__16__treeINS_12__value_typeI10CACFStringNS_6vectorIS2_NS_9allocatorIS2_EEEEEENS_19__map_value_compareIS2_S7_NS_4lessIS2_EELb1EEENS4_IS7_EEE10value_compB8ne190102Ev, symObjAddr: 0x6770, symBinAddr: 0x10000D5F8, symSize: 0x28 }
  - { offset: 0xB3260, size: 0x8, addend: 0x0, symName: __ZNKSt3__119__map_value_compareI10CACFStringNS_12__value_typeIS1_NS_6vectorIS1_NS_9allocatorIS1_EEEEEENS_4lessIS1_EELb1EEclB8ne190102ERKS1_RKS7_, symObjAddr: 0x6798, symBinAddr: 0x10000D620, symSize: 0x4C }
  - { offset: 0xB32A6, size: 0x8, addend: 0x0, symName: __ZNKSt3__121__tree_const_iteratorINS_12__value_typeI10CACFStringNS_6vectorIS2_NS_9allocatorIS2_EEEEEEPNS_11__tree_nodeIS7_PvEElEdeB8ne190102Ev, symObjAddr: 0x67E4, symBinAddr: 0x10000D66C, symSize: 0x28 }
  - { offset: 0xB32CC, size: 0x8, addend: 0x0, symName: __ZNSt3__16__treeINS_12__value_typeI10CACFStringNS_6vectorIS2_NS_9allocatorIS2_EEEEEENS_19__map_value_compareIS2_S7_NS_4lessIS2_EELb1EEENS4_IS7_EEE5beginB8ne190102Ev, symObjAddr: 0x680C, symBinAddr: 0x10000D694, symSize: 0x34 }
  - { offset: 0xB32F2, size: 0x8, addend: 0x0, symName: __ZNKSt3__119__map_value_compareI10CACFStringNS_12__value_typeIS1_NS_6vectorIS1_NS_9allocatorIS1_EEEEEENS_4lessIS1_EELb1EEclB8ne190102ERKS7_RKS1_, symObjAddr: 0x6840, symBinAddr: 0x10000D6C8, symSize: 0x44 }
  - { offset: 0xB3338, size: 0x8, addend: 0x0, symName: __ZNSt3__121__tree_const_iteratorINS_12__value_typeI10CACFStringNS_6vectorIS2_NS_9allocatorIS2_EEEEEEPNS_11__tree_nodeIS7_PvEElEmmB8ne190102Ev, symObjAddr: 0x6884, symBinAddr: 0x10000D70C, symSize: 0x38 }
  - { offset: 0xB335E, size: 0x8, addend: 0x0, symName: __ZNSt3__16__treeINS_12__value_typeI10CACFStringNS_6vectorIS2_NS_9allocatorIS2_EEEEEENS_19__map_value_compareIS2_S7_NS_4lessIS2_EELb1EEENS4_IS7_EEE12__find_equalIS2_EERPNS_16__tree_node_baseIPvEERPNS_15__tree_end_nodeISI_EERKT_, symObjAddr: 0x68BC, symBinAddr: 0x10000D744, symSize: 0x16C }
  - { offset: 0xB33CE, size: 0x8, addend: 0x0, symName: __ZNKSt3__121__tree_const_iteratorINS_12__value_typeI10CACFStringNS_6vectorIS2_NS_9allocatorIS2_EEEEEEPNS_11__tree_nodeIS7_PvEElE8__get_npB8ne190102Ev, symObjAddr: 0x6A64, symBinAddr: 0x10000D8EC, symSize: 0x18 }
  - { offset: 0xB33F4, size: 0x8, addend: 0x0, symName: __ZNSt3__115__tree_iteratorINS_12__value_typeI10CACFStringNS_6vectorIS2_NS_9allocatorIS2_EEEEEEPNS_11__tree_nodeIS7_PvEElEC1B8ne190102EPNS_15__tree_end_nodeIPNS_16__tree_node_baseIS9_EEEE, symObjAddr: 0x6A7C, symBinAddr: 0x10000D904, symSize: 0x34 }
  - { offset: 0xB342E, size: 0x8, addend: 0x0, symName: __ZNSt3__115__tree_iteratorINS_12__value_typeI10CACFStringNS_6vectorIS2_NS_9allocatorIS2_EEEEEEPNS_11__tree_nodeIS7_PvEElEC2B8ne190102EPNS_15__tree_end_nodeIPNS_16__tree_node_baseIS9_EEEE, symObjAddr: 0x6AB0, symBinAddr: 0x10000D938, symSize: 0x20 }
  - { offset: 0xB3468, size: 0x8, addend: 0x0, symName: __ZNSt3__121__tree_const_iteratorINS_12__value_typeI10CACFStringNS_6vectorIS2_NS_9allocatorIS2_EEEEEEPNS_11__tree_nodeIS7_PvEElEC2B8ne190102ENS_15__tree_iteratorIS7_SB_lEE, symObjAddr: 0x6AD0, symBinAddr: 0x10000D958, symSize: 0x20 }
  - { offset: 0xB34A2, size: 0x8, addend: 0x0, symName: __ZNSt3__117__compressed_pairImNS_19__map_value_compareI10CACFStringNS_12__value_typeIS2_NS_6vectorIS2_NS_9allocatorIS2_EEEEEENS_4lessIS2_EELb1EEEE6secondB8ne190102Ev, symObjAddr: 0x6AF0, symBinAddr: 0x10000D978, symSize: 0x24 }
  - { offset: 0xB34C8, size: 0x8, addend: 0x0, symName: __ZNSt3__122__compressed_pair_elemINS_19__map_value_compareI10CACFStringNS_12__value_typeIS2_NS_6vectorIS2_NS_9allocatorIS2_EEEEEENS_4lessIS2_EELb1EEELi1ELb1EE5__getB8ne190102Ev, symObjAddr: 0x6B14, symBinAddr: 0x10000D99C, symSize: 0x14 }
  - { offset: 0xB34EE, size: 0x8, addend: 0x0, symName: __ZNKSt3__14lessI10CACFStringEclB8ne190102ERKS1_S4_, symObjAddr: 0x6B28, symBinAddr: 0x10000D9B0, symSize: 0x30 }
  - { offset: 0xB3534, size: 0x8, addend: 0x0, symName: __ZNKSt3__112__value_typeI10CACFStringNS_6vectorIS1_NS_9allocatorIS1_EEEEE11__get_valueB8ne190102Ev, symObjAddr: 0x6B58, symBinAddr: 0x10000D9E0, symSize: 0x14 }
  - { offset: 0xB355A, size: 0x8, addend: 0x0, symName: __ZltRK10CACFStringS1_, symObjAddr: 0x6B6C, symBinAddr: 0x10000D9F4, symSize: 0x4C }
  - { offset: 0xB3597, size: 0x8, addend: 0x0, symName: __ZNKSt3__116__tree_node_baseIPvE15__parent_unsafeB8ne190102Ev, symObjAddr: 0x6CB4, symBinAddr: 0x10000DB3C, symSize: 0x18 }
  - { offset: 0xB35BD, size: 0x8, addend: 0x0, symName: __ZNKSt3__16__treeINS_12__value_typeI10CACFStringNS_6vectorIS2_NS_9allocatorIS2_EEEEEENS_19__map_value_compareIS2_S7_NS_4lessIS2_EELb1EEENS4_IS7_EEE6__rootB8ne190102Ev, symObjAddr: 0x6CCC, symBinAddr: 0x10000DB54, symSize: 0x28 }
  - { offset: 0xB35E3, size: 0x8, addend: 0x0, symName: __ZNKSt3__16__treeINS_12__value_typeI10CACFStringNS_6vectorIS2_NS_9allocatorIS2_EEEEEENS_19__map_value_compareIS2_S7_NS_4lessIS2_EELb1EEENS4_IS7_EEE10__root_ptrB8ne190102Ev, symObjAddr: 0x6CF4, symBinAddr: 0x10000DB7C, symSize: 0x24 }
  - { offset: 0xB3609, size: 0x8, addend: 0x0, symName: __ZNSt3__121__tree_const_iteratorINS_12__value_typeI10CACFStringNS_6vectorIS2_NS_9allocatorIS2_EEEEEEPNS_11__tree_nodeIS7_PvEElEppB8ne190102Ev, symObjAddr: 0x6DF4, symBinAddr: 0x10000DC7C, symSize: 0x38 }
  - { offset: 0xB362F, size: 0x8, addend: 0x0, symName: __ZNSt3__16__treeINS_12__value_typeI10CACFStringNS_6vectorIS2_NS_9allocatorIS2_EEEEEENS_19__map_value_compareIS2_S7_NS_4lessIS2_EELb1EEENS4_IS7_EEE12__node_allocB8ne190102Ev, symObjAddr: 0x6EDC, symBinAddr: 0x10000DD64, symSize: 0x28 }
  - { offset: 0xB3655, size: 0x8, addend: 0x0, symName: __ZNSt3__116allocator_traitsINS_9allocatorINS_11__tree_nodeINS_12__value_typeI10CACFStringNS_6vectorIS4_NS1_IS4_EEEEEEPvEEEEE8allocateB8ne190102ERSB_m, symObjAddr: 0x6F04, symBinAddr: 0x10000DD8C, symSize: 0x2C }
  - { offset: 0xB368A, size: 0x8, addend: 0x0, symName: __ZNSt3__122__tree_node_destructorINS_9allocatorINS_11__tree_nodeINS_12__value_typeI10CACFStringNS_6vectorIS4_NS1_IS4_EEEEEEPvEEEEEC1B8ne190102ERSB_b, symObjAddr: 0x6F30, symBinAddr: 0x10000DDB8, symSize: 0x40 }
  - { offset: 0xB36DA, size: 0x8, addend: 0x0, symName: __ZNSt3__110unique_ptrINS_11__tree_nodeINS_12__value_typeI10CACFStringNS_6vectorIS3_NS_9allocatorIS3_EEEEEEPvEENS_22__tree_node_destructorINS5_ISA_EEEEEC1B8ne190102ILb1EvEEPSA_NS_16__dependent_typeINS_27__unique_ptr_deleter_sfinaeISD_EEXT_EE20__good_rval_ref_typeE, symObjAddr: 0x6F70, symBinAddr: 0x10000DDF8, symSize: 0x3C }
  - { offset: 0xB372F, size: 0x8, addend: 0x0, symName: __ZNSt3__116allocator_traitsINS_9allocatorINS_11__tree_nodeINS_12__value_typeI10CACFStringNS_6vectorIS4_NS1_IS4_EEEEEEPvEEEEE9constructB8ne190102INS_4pairIKS4_S7_EEJRKSG_ELi0EEEvRSB_PT_DpOT0_, symObjAddr: 0x6FAC, symBinAddr: 0x10000DE34, symSize: 0x34 }
  - { offset: 0xB3792, size: 0x8, addend: 0x0, symName: __ZNSt3__122__tree_key_value_typesINS_12__value_typeI10CACFStringNS_6vectorIS2_NS_9allocatorIS2_EEEEEEE9__get_ptrB8ne190102ERS7_, symObjAddr: 0x6FE0, symBinAddr: 0x10000DE68, symSize: 0x24 }
  - { offset: 0xB37B7, size: 0x8, addend: 0x0, symName: __ZNKSt3__110unique_ptrINS_11__tree_nodeINS_12__value_typeI10CACFStringNS_6vectorIS3_NS_9allocatorIS3_EEEEEEPvEENS_22__tree_node_destructorINS5_ISA_EEEEEptB8ne190102Ev, symObjAddr: 0x7004, symBinAddr: 0x10000DE8C, symSize: 0x28 }
  - { offset: 0xB37DD, size: 0x8, addend: 0x0, symName: __ZNSt3__110unique_ptrINS_11__tree_nodeINS_12__value_typeI10CACFStringNS_6vectorIS3_NS_9allocatorIS3_EEEEEEPvEENS_22__tree_node_destructorINS5_ISA_EEEEE11get_deleterB8ne190102Ev, symObjAddr: 0x702C, symBinAddr: 0x10000DEB4, symSize: 0x24 }
  - { offset: 0xB3803, size: 0x8, addend: 0x0, symName: __ZNSt3__117__compressed_pairINS_15__tree_end_nodeIPNS_16__tree_node_baseIPvEEEENS_9allocatorINS_11__tree_nodeINS_12__value_typeI10CACFStringNS_6vectorISA_NS7_ISA_EEEEEES3_EEEEE6secondB8ne190102Ev, symObjAddr: 0x7050, symBinAddr: 0x10000DED8, symSize: 0x24 }
  - { offset: 0xB3829, size: 0x8, addend: 0x0, symName: __ZNSt3__122__compressed_pair_elemINS_9allocatorINS_11__tree_nodeINS_12__value_typeI10CACFStringNS_6vectorIS4_NS1_IS4_EEEEEEPvEEEELi1ELb1EE5__getB8ne190102Ev, symObjAddr: 0x7074, symBinAddr: 0x10000DEFC, symSize: 0x14 }
  - { offset: 0xB384F, size: 0x8, addend: 0x0, symName: __ZNSt3__19allocatorINS_11__tree_nodeINS_12__value_typeI10CACFStringNS_6vectorIS3_NS0_IS3_EEEEEEPvEEE8allocateB8ne190102Em, symObjAddr: 0x7088, symBinAddr: 0x10000DF10, symSize: 0x58 }
  - { offset: 0xB388F, size: 0x8, addend: 0x0, symName: __ZNSt3__116allocator_traitsINS_9allocatorINS_11__tree_nodeINS_12__value_typeI10CACFStringNS_6vectorIS4_NS1_IS4_EEEEEEPvEEEEE8max_sizeB8ne190102ISB_Li0EEEmRKSB_, symObjAddr: 0x70E0, symBinAddr: 0x10000DF68, symSize: 0x24 }
  - { offset: 0xB38C5, size: 0x8, addend: 0x0, symName: __ZNKSt3__19allocatorINS_11__tree_nodeINS_12__value_typeI10CACFStringNS_6vectorIS3_NS0_IS3_EEEEEEPvEEE8max_sizeB8ne190102Ev, symObjAddr: 0x7104, symBinAddr: 0x10000DF8C, symSize: 0x20 }
  - { offset: 0xB38EB, size: 0x8, addend: 0x0, symName: __ZNSt3__122__tree_node_destructorINS_9allocatorINS_11__tree_nodeINS_12__value_typeI10CACFStringNS_6vectorIS4_NS1_IS4_EEEEEEPvEEEEEC2B8ne190102ERSB_b, symObjAddr: 0x7124, symBinAddr: 0x10000DFAC, symSize: 0x30 }
  - { offset: 0xB3935, size: 0x8, addend: 0x0, symName: __ZNSt3__110unique_ptrINS_11__tree_nodeINS_12__value_typeI10CACFStringNS_6vectorIS3_NS_9allocatorIS3_EEEEEEPvEENS_22__tree_node_destructorINS5_ISA_EEEEEC2B8ne190102ILb1EvEEPSA_NS_16__dependent_typeINS_27__unique_ptr_deleter_sfinaeISD_EEXT_EE20__good_rval_ref_typeE, symObjAddr: 0x7154, symBinAddr: 0x10000DFDC, symSize: 0x48 }
  - { offset: 0xB398A, size: 0x8, addend: 0x0, symName: __ZNSt3__117__compressed_pairIPNS_11__tree_nodeINS_12__value_typeI10CACFStringNS_6vectorIS3_NS_9allocatorIS3_EEEEEEPvEENS_22__tree_node_destructorINS5_ISA_EEEEEC1B8ne190102IRSB_SE_EEOT_OT0_, symObjAddr: 0x719C, symBinAddr: 0x10000E024, symSize: 0x3C }
  - { offset: 0xB39E6, size: 0x8, addend: 0x0, symName: __ZNSt3__117__compressed_pairIPNS_11__tree_nodeINS_12__value_typeI10CACFStringNS_6vectorIS3_NS_9allocatorIS3_EEEEEEPvEENS_22__tree_node_destructorINS5_ISA_EEEEEC2B8ne190102IRSB_SE_EEOT_OT0_, symObjAddr: 0x71D8, symBinAddr: 0x10000E060, symSize: 0x48 }
  - { offset: 0xB3A42, size: 0x8, addend: 0x0, symName: __ZNSt3__122__compressed_pair_elemIPNS_11__tree_nodeINS_12__value_typeI10CACFStringNS_6vectorIS3_NS_9allocatorIS3_EEEEEEPvEELi0ELb0EEC2B8ne190102IRSB_Li0EEEOT_, symObjAddr: 0x7220, symBinAddr: 0x10000E0A8, symSize: 0x24 }
  - { offset: 0xB3A8C, size: 0x8, addend: 0x0, symName: __ZNSt3__122__compressed_pair_elemINS_22__tree_node_destructorINS_9allocatorINS_11__tree_nodeINS_12__value_typeI10CACFStringNS_6vectorIS5_NS2_IS5_EEEEEEPvEEEEEELi1ELb0EEC2B8ne190102ISD_Li0EEEOT_, symObjAddr: 0x7244, symBinAddr: 0x10000E0CC, symSize: 0x24 }
  - { offset: 0xB3AD6, size: 0x8, addend: 0x0, symName: __ZNSt3__19allocatorINS_11__tree_nodeINS_12__value_typeI10CACFStringNS_6vectorIS3_NS0_IS3_EEEEEEPvEEE9constructB8ne190102INS_4pairIKS3_S6_EEJRKSE_EEEvPT_DpOT0_, symObjAddr: 0x7268, symBinAddr: 0x10000E0F0, symSize: 0x30 }
  - { offset: 0xB3B31, size: 0x8, addend: 0x0, symName: __ZNSt3__14pairIK10CACFStringNS_6vectorIS1_NS_9allocatorIS1_EEEEEC1B8ne190102ERKS7_, symObjAddr: 0x7298, symBinAddr: 0x10000E120, symSize: 0x34 }
  - { offset: 0xB3B66, size: 0x8, addend: 0x0, symName: __ZNSt3__14pairIK10CACFStringNS_6vectorIS1_NS_9allocatorIS1_EEEEEC2B8ne190102ERKS7_, symObjAddr: 0x72CC, symBinAddr: 0x10000E154, symSize: 0x70 }
  - { offset: 0xB3B9B, size: 0x8, addend: 0x0, symName: __ZNSt3__112__value_typeI10CACFStringNS_6vectorIS1_NS_9allocatorIS1_EEEEE11__get_valueB8ne190102Ev, symObjAddr: 0x733C, symBinAddr: 0x10000E1C4, symSize: 0x14 }
  - { offset: 0xB3BC1, size: 0x8, addend: 0x0, symName: __ZNKSt3__117__compressed_pairIPNS_11__tree_nodeINS_12__value_typeI10CACFStringNS_6vectorIS3_NS_9allocatorIS3_EEEEEEPvEENS_22__tree_node_destructorINS5_ISA_EEEEE5firstB8ne190102Ev, symObjAddr: 0x7350, symBinAddr: 0x10000E1D8, symSize: 0x24 }
  - { offset: 0xB3BE7, size: 0x8, addend: 0x0, symName: __ZNKSt3__122__compressed_pair_elemIPNS_11__tree_nodeINS_12__value_typeI10CACFStringNS_6vectorIS3_NS_9allocatorIS3_EEEEEEPvEELi0ELb0EE5__getB8ne190102Ev, symObjAddr: 0x7374, symBinAddr: 0x10000E1FC, symSize: 0x14 }
  - { offset: 0xB3C0D, size: 0x8, addend: 0x0, symName: __ZNSt3__117__compressed_pairIPNS_11__tree_nodeINS_12__value_typeI10CACFStringNS_6vectorIS3_NS_9allocatorIS3_EEEEEEPvEENS_22__tree_node_destructorINS5_ISA_EEEEE6secondB8ne190102Ev, symObjAddr: 0x7388, symBinAddr: 0x10000E210, symSize: 0x28 }
  - { offset: 0xB3C33, size: 0x8, addend: 0x0, symName: __ZNSt3__122__compressed_pair_elemINS_22__tree_node_destructorINS_9allocatorINS_11__tree_nodeINS_12__value_typeI10CACFStringNS_6vectorIS5_NS2_IS5_EEEEEEPvEEEEEELi1ELb0EE5__getB8ne190102Ev, symObjAddr: 0x73B0, symBinAddr: 0x10000E238, symSize: 0x14 }
  - { offset: 0xB3C59, size: 0x8, addend: 0x0, symName: __ZNSt3__16__treeINS_12__value_typeI10CACFStringNS_6vectorIS2_NS_9allocatorIS2_EEEEEENS_19__map_value_compareIS2_S7_NS_4lessIS2_EELb1EEENS4_IS7_EEE4sizeB8ne190102Ev, symObjAddr: 0x7620, symBinAddr: 0x10000E4A8, symSize: 0x28 }
  - { offset: 0xB3C7F, size: 0x8, addend: 0x0, symName: __ZNSt3__116__tree_node_baseIPvE12__set_parentB8ne190102EPS2_, symObjAddr: 0x77DC, symBinAddr: 0x10000E664, symSize: 0x20 }
  - { offset: 0xB3CB5, size: 0x8, addend: 0x0, symName: __ZNSt3__117__compressed_pairImNS_19__map_value_compareI10CACFStringNS_12__value_typeIS2_NS_6vectorIS2_NS_9allocatorIS2_EEEEEENS_4lessIS2_EELb1EEEE5firstB8ne190102Ev, symObjAddr: 0x77FC, symBinAddr: 0x10000E684, symSize: 0x24 }
  - { offset: 0xB3CDB, size: 0x8, addend: 0x0, symName: __ZNSt3__122__compressed_pair_elemImLi0ELb0EE5__getB8ne190102Ev, symObjAddr: 0x7820, symBinAddr: 0x10000E6A8, symSize: 0x14 }
  - { offset: 0xB3D01, size: 0x8, addend: 0x0, symName: __ZNSt3__117__compressed_pairIPNS_11__tree_nodeINS_12__value_typeI10CACFStringNS_6vectorIS3_NS_9allocatorIS3_EEEEEEPvEENS_22__tree_node_destructorINS5_ISA_EEEEE5firstB8ne190102Ev, symObjAddr: 0x7834, symBinAddr: 0x10000E6BC, symSize: 0x24 }
  - { offset: 0xB3D27, size: 0x8, addend: 0x0, symName: __ZNSt3__122__compressed_pair_elemIPNS_11__tree_nodeINS_12__value_typeI10CACFStringNS_6vectorIS3_NS_9allocatorIS3_EEEEEEPvEELi0ELb0EE5__getB8ne190102Ev, symObjAddr: 0x7858, symBinAddr: 0x10000E6E0, symSize: 0x14 }
  - { offset: 0xB3D4D, size: 0x8, addend: 0x0, symName: __ZNSt3__110unique_ptrINS_11__tree_nodeINS_12__value_typeI10CACFStringNS_6vectorIS3_NS_9allocatorIS3_EEEEEEPvEENS_22__tree_node_destructorINS5_ISA_EEEEED2B8ne190102Ev, symObjAddr: 0x786C, symBinAddr: 0x10000E6F4, symSize: 0x30 }
  - { offset: 0xB3D77, size: 0x8, addend: 0x0, symName: __ZNSt3__110unique_ptrINS_11__tree_nodeINS_12__value_typeI10CACFStringNS_6vectorIS3_NS_9allocatorIS3_EEEEEEPvEENS_22__tree_node_destructorINS5_ISA_EEEEE5resetB8ne190102EPSA_, symObjAddr: 0x789C, symBinAddr: 0x10000E724, symSize: 0x70 }
  - { offset: 0xB3DBD, size: 0x8, addend: 0x0, symName: __ZNSt3__122__tree_node_destructorINS_9allocatorINS_11__tree_nodeINS_12__value_typeI10CACFStringNS_6vectorIS4_NS1_IS4_EEEEEEPvEEEEEclB8ne190102EPSA_, symObjAddr: 0x790C, symBinAddr: 0x10000E794, symSize: 0x90 }
  - { offset: 0xB3DF3, size: 0x8, addend: 0x0, symName: __ZNSt3__116allocator_traitsINS_9allocatorINS_11__tree_nodeINS_12__value_typeI10CACFStringNS_6vectorIS4_NS1_IS4_EEEEEEPvEEEEE7destroyB8ne190102INS_4pairIKS4_S7_EEvLi0EEEvRSB_PT_, symObjAddr: 0x799C, symBinAddr: 0x10000E824, symSize: 0x28 }
  - { offset: 0xB3E37, size: 0x8, addend: 0x0, symName: __ZNSt3__116allocator_traitsINS_9allocatorINS_11__tree_nodeINS_12__value_typeI10CACFStringNS_6vectorIS4_NS1_IS4_EEEEEEPvEEEEE10deallocateB8ne190102ERSB_PSA_m, symObjAddr: 0x79C4, symBinAddr: 0x10000E84C, symSize: 0x34 }
  - { offset: 0xB3E7C, size: 0x8, addend: 0x0, symName: __ZNSt3__19allocatorINS_11__tree_nodeINS_12__value_typeI10CACFStringNS_6vectorIS3_NS0_IS3_EEEEEEPvEEE10deallocateB8ne190102EPS9_m, symObjAddr: 0x7A1C, symBinAddr: 0x10000E8A4, symSize: 0x44 }
  - { offset: 0xB3EC0, size: 0x8, addend: 0x0, symName: __ZNSt3__115__tree_iteratorINS_12__value_typeI10CACFStringNS_6vectorIS2_NS_9allocatorIS2_EEEEEEPNS_11__tree_nodeIS7_PvEElEC2B8ne190102ESB_, symObjAddr: 0x7A60, symBinAddr: 0x10000E8E8, symSize: 0x20 }
  - { offset: 0xB3EFA, size: 0x8, addend: 0x0, symName: __ZNSt3__14pairINS_15__tree_iteratorINS_12__value_typeI10CACFStringNS_6vectorIS3_NS_9allocatorIS3_EEEEEEPNS_11__tree_nodeIS8_PvEElEEbEC2B8ne190102ISD_RbLi0EEEOT_OT0_, symObjAddr: 0x7A80, symBinAddr: 0x10000E908, symSize: 0x38 }
  - { offset: 0xB3F5D, size: 0x8, addend: 0x0, symName: __ZNSt3__114__map_iteratorINS_15__tree_iteratorINS_12__value_typeI10CACFStringNS_6vectorIS3_NS_9allocatorIS3_EEEEEEPNS_11__tree_nodeIS8_PvEElEEEC2B8ne190102ESD_, symObjAddr: 0x7AB8, symBinAddr: 0x10000E940, symSize: 0x20 }
  - { offset: 0xB3F97, size: 0x8, addend: 0x0, symName: __ZNSt3__120__map_const_iteratorINS_21__tree_const_iteratorINS_12__value_typeI10CACFStringNS_6vectorIS3_NS_9allocatorIS3_EEEEEEPNS_11__tree_nodeIS8_PvEElEEEC2B8ne190102ESD_, symObjAddr: 0x7AD8, symBinAddr: 0x10000E960, symSize: 0x20 }
  - { offset: 0xB3FD1, size: 0x8, addend: 0x0, symName: __ZNSt3__16__treeINS_12__value_typeI10CACFStringNS_6vectorIS2_NS_9allocatorIS2_EEEEEENS_19__map_value_compareIS2_S7_NS_4lessIS2_EELb1EEENS4_IS7_EEED2Ev, symObjAddr: 0x7AF8, symBinAddr: 0x10000E980, symSize: 0x38 }
  - { offset: 0xB3FFD, size: 0x8, addend: 0x0, symName: __ZNSt3__16__treeINS_12__value_typeI10CACFStringNS_6vectorIS2_NS_9allocatorIS2_EEEEEENS_19__map_value_compareIS2_S7_NS_4lessIS2_EELb1EEENS4_IS7_EEE7destroyEPNS_11__tree_nodeIS7_PvEE, symObjAddr: 0x7B30, symBinAddr: 0x10000E9B8, symSize: 0xA4 }
  - { offset: 0xB404C, size: 0x8, addend: 0x0, symName: __ZNSt3__13mapI10CACFStringNS_6vectorIS1_NS_9allocatorIS1_EEEENS_4lessIS1_EENS3_INS_4pairIKS1_S5_EEEEED2B8ne190102Ev, symObjAddr: 0x7BD4, symBinAddr: 0x10000EA5C, symSize: 0x2C }
  - { offset: 0xB408D, size: 0x8, addend: 0x0, symName: __ZNSt3__16__treeINS_12__value_typeI10CACFStringNS_6vectorIS2_NS_9allocatorIS2_EEEEEENS_19__map_value_compareIS2_S7_NS_4lessIS2_EELb1EEENS4_IS7_EEE25__emplace_unique_key_argsIS2_JRKNS_21piecewise_construct_tENS_5tupleIJRKS2_EEENSI_IJEEEEEENS_4pairINS_15__tree_iteratorIS7_PNS_11__tree_nodeIS7_PvEElEEbEERKT_DpOT0_, symObjAddr: 0x7C00, symBinAddr: 0x10000EA88, symSize: 0xF8 }
  - { offset: 0xB4170, size: 0x8, addend: 0x0, symName: __ZNKSt3__115__tree_iteratorINS_12__value_typeI10CACFStringNS_6vectorIS2_NS_9allocatorIS2_EEEEEEPNS_11__tree_nodeIS7_PvEElEptB8ne190102Ev, symObjAddr: 0x7D28, symBinAddr: 0x10000EBB0, symSize: 0x2C }
  - { offset: 0xB4196, size: 0x8, addend: 0x0, symName: __ZNSt3__16__treeINS_12__value_typeI10CACFStringNS_6vectorIS2_NS_9allocatorIS2_EEEEEENS_19__map_value_compareIS2_S7_NS_4lessIS2_EELb1EEENS4_IS7_EEE16__construct_nodeIJRKNS_21piecewise_construct_tENS_5tupleIJRKS2_EEENSI_IJEEEEEENS_10unique_ptrINS_11__tree_nodeIS7_PvEENS_22__tree_node_destructorINS4_ISQ_EEEEEEDpOT_, symObjAddr: 0x7D54, symBinAddr: 0x10000EBDC, symSize: 0x120 }
  - { offset: 0xB4226, size: 0x8, addend: 0x0, symName: __ZNSt3__116allocator_traitsINS_9allocatorINS_11__tree_nodeINS_12__value_typeI10CACFStringNS_6vectorIS4_NS1_IS4_EEEEEEPvEEEEE9constructB8ne190102INS_4pairIKS4_S7_EEJRKNS_21piecewise_construct_tENS_5tupleIJRSF_EEENSK_IJEEEELi0EEEvRSB_PT_DpOT0_, symObjAddr: 0x7E74, symBinAddr: 0x10000ECFC, symSize: 0x44 }
  - { offset: 0xB42B5, size: 0x8, addend: 0x0, symName: __ZNSt3__19allocatorINS_11__tree_nodeINS_12__value_typeI10CACFStringNS_6vectorIS3_NS0_IS3_EEEEEEPvEEE9constructB8ne190102INS_4pairIKS3_S6_EEJRKNS_21piecewise_construct_tENS_5tupleIJRSD_EEENSI_IJEEEEEEvPT_DpOT0_, symObjAddr: 0x7EB8, symBinAddr: 0x10000ED40, symSize: 0x44 }
  - { offset: 0xB433A, size: 0x8, addend: 0x0, symName: __ZNSt3__14pairIK10CACFStringNS_6vectorIS1_NS_9allocatorIS1_EEEEEC1B8ne190102IJRS2_EJEEENS_21piecewise_construct_tENS_5tupleIJDpT_EEENSB_IJDpT0_EEE, symObjAddr: 0x7EFC, symBinAddr: 0x10000ED84, symSize: 0x3C }
  - { offset: 0xB43A4, size: 0x8, addend: 0x0, symName: __ZNSt3__14pairIK10CACFStringNS_6vectorIS1_NS_9allocatorIS1_EEEEEC1B8ne190102IJRS2_EJEJLm0EEJEEENS_21piecewise_construct_tERNS_5tupleIJDpT_EEERNSB_IJDpT0_EEENS_15__tuple_indicesIJXspT1_EEEENSK_IJXspT2_EEEE, symObjAddr: 0x7F38, symBinAddr: 0x10000EDC0, symSize: 0x3C }
  - { offset: 0xB4439, size: 0x8, addend: 0x0, symName: __ZNSt3__14pairIK10CACFStringNS_6vectorIS1_NS_9allocatorIS1_EEEEEC2B8ne190102IJRS2_EJEJLm0EEJEEENS_21piecewise_construct_tERNS_5tupleIJDpT_EEERNSB_IJDpT0_EEENS_15__tuple_indicesIJXspT1_EEEENSK_IJXspT2_EEEE, symObjAddr: 0x7F74, symBinAddr: 0x10000EDFC, symSize: 0x50 }
  - { offset: 0xB44CE, size: 0x8, addend: 0x0, symName: __ZNSt3__112__tuple_leafILm0ERK10CACFStringLb0EE3getB8ne190102Ev, symObjAddr: 0x7FE8, symBinAddr: 0x10000EE70, symSize: 0x18 }
  - { offset: 0xB44F4, size: 0x8, addend: 0x0, symName: __ZNSt3__15tupleIJRK10CACFStringEEC1B8ne190102INS_4_AndELi0EEES3_, symObjAddr: 0x8000, symBinAddr: 0x10000EE88, symSize: 0x34 }
  - { offset: 0xB453F, size: 0x8, addend: 0x0, symName: __ZNSt3__15tupleIJRK10CACFStringEEC2B8ne190102INS_4_AndELi0EEES3_, symObjAddr: 0x8034, symBinAddr: 0x10000EEBC, symSize: 0x34 }
  - { offset: 0xB458A, size: 0x8, addend: 0x0, symName: __ZNSt3__112__tuple_implINS_15__tuple_indicesIJLm0EEEEJRK10CACFStringEEC1B8ne190102IJLm0EEJS5_EJEJEJS5_EEENS1_IJXspT_EEEENS_13__tuple_typesIJDpT0_EEENS1_IJXspT1_EEEENS9_IJDpT2_EEEDpOT3_, symObjAddr: 0x8068, symBinAddr: 0x10000EEF0, symSize: 0x34 }
  - { offset: 0xB4628, size: 0x8, addend: 0x0, symName: __ZNSt3__112__tuple_implINS_15__tuple_indicesIJLm0EEEEJRK10CACFStringEEC2B8ne190102IJLm0EEJS5_EJEJEJS5_EEENS1_IJXspT_EEEENS_13__tuple_typesIJDpT0_EEENS1_IJXspT1_EEEENS9_IJDpT2_EEEDpOT3_, symObjAddr: 0x809C, symBinAddr: 0x10000EF24, symSize: 0x34 }
  - { offset: 0xB46C6, size: 0x8, addend: 0x0, symName: __ZNSt3__112__tuple_leafILm0ERK10CACFStringLb0EEC2B8ne190102IS3_Li0EEEOT_, symObjAddr: 0x80D0, symBinAddr: 0x10000EF58, symSize: 0x20 }
  - { offset: 0xB4711, size: 0x8, addend: 0x0, symName: __ZNSt3__114pointer_traitsIPNS_12__value_typeI10CACFStringNS_6vectorIS2_NS_9allocatorIS2_EEEEEEE10pointer_toB8ne190102ERS7_, symObjAddr: 0x80F0, symBinAddr: 0x10000EF78, symSize: 0x14 }
  - { offset: 0xB4735, size: 0x8, addend: 0x0, symName: __ZNKSt3__115__tree_iteratorINS_12__value_typeI10CACFStringNS_6vectorIS2_NS_9allocatorIS2_EEEEEEPNS_11__tree_nodeIS7_PvEElE8__get_npB8ne190102Ev, symObjAddr: 0x8104, symBinAddr: 0x10000EF8C, symSize: 0x18 }
  - { offset: 0xB65F6, size: 0x8, addend: 0x0, symName: __ZL22kVolumePropertyAddress, symObjAddr: 0x7CF0, symBinAddr: 0x10004FF2C, symSize: 0x0 }
  - { offset: 0xB661C, size: 0x8, addend: 0x0, symName: __ZL20kMutePropertyAddress, symObjAddr: 0x7D0C, symBinAddr: 0x10004FF38, symSize: 0x0 }
  - { offset: 0xB6642, size: 0x8, addend: 0x0, symName: __ZNSt3__1L19piecewise_constructE, symObjAddr: 0x7D90, symBinAddr: 0x10004FF9C, symSize: 0x0 }
  - { offset: 0xB7CEE, size: 0x8, addend: 0x0, symName: '__ZNSt3__110__function10__not_nullB8ne190102IZN20BGMDeviceControlSyncD1EvE3$_0EEbRKT_', symObjAddr: 0x14AC, symBinAddr: 0x100010284, symSize: 0x18 }
  - { offset: 0xB7D22, size: 0x8, addend: 0x0, symName: '__ZNSt3__110__function10__not_nullB8ne190102IZN20BGMDeviceControlSync8ActivateEvE3$_0EEbRKT_', symObjAddr: 0x3028, symBinAddr: 0x100011D04, symSize: 0x18 }
  - { offset: 0xB7D56, size: 0x8, addend: 0x0, symName: '__ZNSt3__110__function10__not_nullB8ne190102IZN20BGMDeviceControlSync10DeactivateEvE3$_0EEbRKT_', symObjAddr: 0x48A4, symBinAddr: 0x10001355C, symSize: 0x18 }
  - { offset: 0xB7D8A, size: 0x8, addend: 0x0, symName: '__ZNSt3__110__function10__not_nullB8ne190102IZN20BGMDeviceControlSync10DeactivateEvE3$_1EEbRKT_', symObjAddr: 0x60DC, symBinAddr: 0x100014D94, symSize: 0x18 }
  - { offset: 0xBDDFE, size: 0x8, addend: 0x0, symName: '__ZNSt3__116forward_as_tupleB8ne190102IJZN20BGMDeviceControlSyncD1EvE3$_0EEENS_5tupleIJDpOT_EEES6_', symObjAddr: 0x1A1C, symBinAddr: 0x1000107F4, symSize: 0x2C }
  - { offset: 0xBDE3B, size: 0x8, addend: 0x0, symName: '__ZNSt3__116forward_as_tupleB8ne190102IJNS_9allocatorIZN20BGMDeviceControlSyncD1EvE3$_0EEEEENS_5tupleIJDpOT_EEES8_', symObjAddr: 0x1A48, symBinAddr: 0x100010820, symSize: 0x2C }
  - { offset: 0xBDEA8, size: 0x8, addend: 0x0, symName: '__ZNSt3__13getB8ne190102ILm0EJOZN20BGMDeviceControlSyncD1EvE3$_0EEERNS_13tuple_elementIXT_ENS_5tupleIJDpT0_EEEE4typeERS8_', symObjAddr: 0x1D60, symBinAddr: 0x100010B38, symSize: 0x24 }
  - { offset: 0xBDEF0, size: 0x8, addend: 0x0, symName: '__ZNSt3__13getB8ne190102ILm0EJONS_9allocatorIZN20BGMDeviceControlSyncD1EvE3$_0EEEEERNS_13tuple_elementIXT_ENS_5tupleIJDpT0_EEEE4typeERSA_', symObjAddr: 0x1D9C, symBinAddr: 0x100010B74, symSize: 0x24 }
  - { offset: 0xBE493, size: 0x8, addend: 0x0, symName: '__ZNSt3__116forward_as_tupleB8ne190102IJRKZN20BGMDeviceControlSyncD1EvE3$_0EEENS_5tupleIJDpOT_EEES8_', symObjAddr: 0x23A4, symBinAddr: 0x1000110FC, symSize: 0x2C }
  - { offset: 0xBE4E8, size: 0x8, addend: 0x0, symName: '__ZNSt3__13getB8ne190102ILm0EJRKZN20BGMDeviceControlSyncD1EvE3$_0EEERNS_13tuple_elementIXT_ENS_5tupleIJDpT0_EEEE4typeERS9_', symObjAddr: 0x2594, symBinAddr: 0x1000112EC, symSize: 0x24 }
  - { offset: 0xBE530, size: 0x8, addend: 0x0, symName: '__ZNSt3__116forward_as_tupleB8ne190102IJRKNS_9allocatorIZN20BGMDeviceControlSyncD1EvE3$_0EEEEENS_5tupleIJDpOT_EEESA_', symObjAddr: 0x295C, symBinAddr: 0x100011638, symSize: 0x2C }
  - { offset: 0xBE585, size: 0x8, addend: 0x0, symName: '__ZNSt3__13getB8ne190102ILm0EJRKNS_9allocatorIZN20BGMDeviceControlSyncD1EvE3$_0EEEEERNS_13tuple_elementIXT_ENS_5tupleIJDpT0_EEEE4typeERSB_', symObjAddr: 0x2B40, symBinAddr: 0x10001181C, symSize: 0x24 }
  - { offset: 0xBE661, size: 0x8, addend: 0x0, symName: '__ZNSt3__18__invokeB8ne190102IRZN20BGMDeviceControlSyncD1EvE3$_0JEEEDTclclsr3stdE7declvalIT_EEspclsr3stdE7declvalIT0_EEEEOS4_DpOS5_', symObjAddr: 0x2BFC, symBinAddr: 0x1000118D8, symSize: 0x24 }
  - { offset: 0xBE81E, size: 0x8, addend: 0x0, symName: '__ZNSt3__116forward_as_tupleB8ne190102IJZN20BGMDeviceControlSync8ActivateEvE3$_0EEENS_5tupleIJDpOT_EEES6_', symObjAddr: 0x3540, symBinAddr: 0x10001221C, symSize: 0x2C }
  - { offset: 0xBE85B, size: 0x8, addend: 0x0, symName: '__ZNSt3__116forward_as_tupleB8ne190102IJNS_9allocatorIZN20BGMDeviceControlSync8ActivateEvE3$_0EEEEENS_5tupleIJDpOT_EEES8_', symObjAddr: 0x356C, symBinAddr: 0x100012248, symSize: 0x2C }
  - { offset: 0xBE8C8, size: 0x8, addend: 0x0, symName: '__ZNSt3__13getB8ne190102ILm0EJOZN20BGMDeviceControlSync8ActivateEvE3$_0EEERNS_13tuple_elementIXT_ENS_5tupleIJDpT0_EEEE4typeERS8_', symObjAddr: 0x3884, symBinAddr: 0x100012560, symSize: 0x24 }
  - { offset: 0xBE910, size: 0x8, addend: 0x0, symName: '__ZNSt3__13getB8ne190102ILm0EJONS_9allocatorIZN20BGMDeviceControlSync8ActivateEvE3$_0EEEEERNS_13tuple_elementIXT_ENS_5tupleIJDpT0_EEEE4typeERSA_', symObjAddr: 0x38C0, symBinAddr: 0x10001259C, symSize: 0x24 }
  - { offset: 0xBEEB3, size: 0x8, addend: 0x0, symName: '__ZNSt3__116forward_as_tupleB8ne190102IJRKZN20BGMDeviceControlSync8ActivateEvE3$_0EEENS_5tupleIJDpOT_EEES8_', symObjAddr: 0x3E48, symBinAddr: 0x100012B24, symSize: 0x2C }
  - { offset: 0xBEF08, size: 0x8, addend: 0x0, symName: '__ZNSt3__13getB8ne190102ILm0EJRKZN20BGMDeviceControlSync8ActivateEvE3$_0EEERNS_13tuple_elementIXT_ENS_5tupleIJDpT0_EEEE4typeERS9_', symObjAddr: 0x4038, symBinAddr: 0x100012D14, symSize: 0x24 }
  - { offset: 0xBEF50, size: 0x8, addend: 0x0, symName: '__ZNSt3__116forward_as_tupleB8ne190102IJRKNS_9allocatorIZN20BGMDeviceControlSync8ActivateEvE3$_0EEEEENS_5tupleIJDpOT_EEESA_', symObjAddr: 0x4384, symBinAddr: 0x100013060, symSize: 0x2C }
  - { offset: 0xBEFA5, size: 0x8, addend: 0x0, symName: '__ZNSt3__13getB8ne190102ILm0EJRKNS_9allocatorIZN20BGMDeviceControlSync8ActivateEvE3$_0EEEEERNS_13tuple_elementIXT_ENS_5tupleIJDpT0_EEEE4typeERSB_', symObjAddr: 0x4568, symBinAddr: 0x100013244, symSize: 0x24 }
  - { offset: 0xBEFED, size: 0x8, addend: 0x0, symName: '__ZNSt3__18__invokeB8ne190102IRZN20BGMDeviceControlSync8ActivateEvE3$_0JEEEDTclclsr3stdE7declvalIT_EEspclsr3stdE7declvalIT0_EEEEOS4_DpOS5_', symObjAddr: 0x4624, symBinAddr: 0x100013300, symSize: 0x24 }
  - { offset: 0xBF1AA, size: 0x8, addend: 0x0, symName: '__ZNSt3__116forward_as_tupleB8ne190102IJZN20BGMDeviceControlSync10DeactivateEvE3$_0EEENS_5tupleIJDpOT_EEES6_', symObjAddr: 0x4DBC, symBinAddr: 0x100013A74, symSize: 0x2C }
  - { offset: 0xBF1E7, size: 0x8, addend: 0x0, symName: '__ZNSt3__116forward_as_tupleB8ne190102IJNS_9allocatorIZN20BGMDeviceControlSync10DeactivateEvE3$_0EEEEENS_5tupleIJDpOT_EEES8_', symObjAddr: 0x4DE8, symBinAddr: 0x100013AA0, symSize: 0x2C }
  - { offset: 0xBF254, size: 0x8, addend: 0x0, symName: '__ZNSt3__13getB8ne190102ILm0EJOZN20BGMDeviceControlSync10DeactivateEvE3$_0EEERNS_13tuple_elementIXT_ENS_5tupleIJDpT0_EEEE4typeERS8_', symObjAddr: 0x5100, symBinAddr: 0x100013DB8, symSize: 0x24 }
  - { offset: 0xBF29C, size: 0x8, addend: 0x0, symName: '__ZNSt3__13getB8ne190102ILm0EJONS_9allocatorIZN20BGMDeviceControlSync10DeactivateEvE3$_0EEEEERNS_13tuple_elementIXT_ENS_5tupleIJDpT0_EEEE4typeERSA_', symObjAddr: 0x513C, symBinAddr: 0x100013DF4, symSize: 0x24 }
  - { offset: 0xBF83F, size: 0x8, addend: 0x0, symName: '__ZNSt3__116forward_as_tupleB8ne190102IJRKZN20BGMDeviceControlSync10DeactivateEvE3$_0EEENS_5tupleIJDpOT_EEES8_', symObjAddr: 0x56C4, symBinAddr: 0x10001437C, symSize: 0x2C }
  - { offset: 0xBF894, size: 0x8, addend: 0x0, symName: '__ZNSt3__13getB8ne190102ILm0EJRKZN20BGMDeviceControlSync10DeactivateEvE3$_0EEERNS_13tuple_elementIXT_ENS_5tupleIJDpT0_EEEE4typeERS9_', symObjAddr: 0x58B4, symBinAddr: 0x10001456C, symSize: 0x24 }
  - { offset: 0xBF8DC, size: 0x8, addend: 0x0, symName: '__ZNSt3__116forward_as_tupleB8ne190102IJRKNS_9allocatorIZN20BGMDeviceControlSync10DeactivateEvE3$_0EEEEENS_5tupleIJDpOT_EEESA_', symObjAddr: 0x5C00, symBinAddr: 0x1000148B8, symSize: 0x2C }
  - { offset: 0xBF931, size: 0x8, addend: 0x0, symName: '__ZNSt3__13getB8ne190102ILm0EJRKNS_9allocatorIZN20BGMDeviceControlSync10DeactivateEvE3$_0EEEEERNS_13tuple_elementIXT_ENS_5tupleIJDpT0_EEEE4typeERSB_', symObjAddr: 0x5DE4, symBinAddr: 0x100014A9C, symSize: 0x24 }
  - { offset: 0xBF979, size: 0x8, addend: 0x0, symName: '__ZNSt3__18__invokeB8ne190102IRZN20BGMDeviceControlSync10DeactivateEvE3$_0JEEEDTclclsr3stdE7declvalIT_EEspclsr3stdE7declvalIT0_EEEEOS4_DpOS5_', symObjAddr: 0x5EA0, symBinAddr: 0x100014B58, symSize: 0x24 }
  - { offset: 0xBFB36, size: 0x8, addend: 0x0, symName: '__ZNSt3__116forward_as_tupleB8ne190102IJZN20BGMDeviceControlSync10DeactivateEvE3$_1EEENS_5tupleIJDpOT_EEES6_', symObjAddr: 0x65F4, symBinAddr: 0x1000152AC, symSize: 0x2C }
  - { offset: 0xBFB73, size: 0x8, addend: 0x0, symName: '__ZNSt3__116forward_as_tupleB8ne190102IJNS_9allocatorIZN20BGMDeviceControlSync10DeactivateEvE3$_1EEEEENS_5tupleIJDpOT_EEES8_', symObjAddr: 0x6620, symBinAddr: 0x1000152D8, symSize: 0x2C }
  - { offset: 0xBFBE0, size: 0x8, addend: 0x0, symName: '__ZNSt3__13getB8ne190102ILm0EJOZN20BGMDeviceControlSync10DeactivateEvE3$_1EEERNS_13tuple_elementIXT_ENS_5tupleIJDpT0_EEEE4typeERS8_', symObjAddr: 0x6938, symBinAddr: 0x1000155F0, symSize: 0x24 }
  - { offset: 0xBFC28, size: 0x8, addend: 0x0, symName: '__ZNSt3__13getB8ne190102ILm0EJONS_9allocatorIZN20BGMDeviceControlSync10DeactivateEvE3$_1EEEEERNS_13tuple_elementIXT_ENS_5tupleIJDpT0_EEEE4typeERSA_', symObjAddr: 0x6974, symBinAddr: 0x10001562C, symSize: 0x24 }
  - { offset: 0xC01CB, size: 0x8, addend: 0x0, symName: '__ZNSt3__116forward_as_tupleB8ne190102IJRKZN20BGMDeviceControlSync10DeactivateEvE3$_1EEENS_5tupleIJDpOT_EEES8_', symObjAddr: 0x6EFC, symBinAddr: 0x100015BB4, symSize: 0x2C }
  - { offset: 0xC0220, size: 0x8, addend: 0x0, symName: '__ZNSt3__13getB8ne190102ILm0EJRKZN20BGMDeviceControlSync10DeactivateEvE3$_1EEERNS_13tuple_elementIXT_ENS_5tupleIJDpT0_EEEE4typeERS9_', symObjAddr: 0x70EC, symBinAddr: 0x100015DA4, symSize: 0x24 }
  - { offset: 0xC0268, size: 0x8, addend: 0x0, symName: '__ZNSt3__116forward_as_tupleB8ne190102IJRKNS_9allocatorIZN20BGMDeviceControlSync10DeactivateEvE3$_1EEEEENS_5tupleIJDpOT_EEESA_', symObjAddr: 0x7438, symBinAddr: 0x1000160F0, symSize: 0x2C }
  - { offset: 0xC02BD, size: 0x8, addend: 0x0, symName: '__ZNSt3__13getB8ne190102ILm0EJRKNS_9allocatorIZN20BGMDeviceControlSync10DeactivateEvE3$_1EEEEERNS_13tuple_elementIXT_ENS_5tupleIJDpT0_EEEE4typeERSB_', symObjAddr: 0x761C, symBinAddr: 0x1000162D4, symSize: 0x24 }
  - { offset: 0xC0305, size: 0x8, addend: 0x0, symName: '__ZNSt3__18__invokeB8ne190102IRZN20BGMDeviceControlSync10DeactivateEvE3$_1JEEEDTclclsr3stdE7declvalIT_EEspclsr3stdE7declvalIT0_EEEEOS4_DpOS5_', symObjAddr: 0x76D8, symBinAddr: 0x100016390, symSize: 0x24 }
  - { offset: 0xC16A6, size: 0x8, addend: 0x0, symName: __ZN20BGMDeviceControlSyncD1Ev, symObjAddr: 0x318, symBinAddr: 0x10000F2AC, symSize: 0x2C }
  - { offset: 0xC196A, size: 0x8, addend: 0x0, symName: __ZN20BGMDeviceControlSync8ActivateEv, symObjAddr: 0x344, symBinAddr: 0x10000F2D8, symSize: 0x458 }
  - { offset: 0xC1C01, size: 0x8, addend: 0x0, symName: __ZN20BGMDeviceControlSync10DeactivateEv, symObjAddr: 0xB44, symBinAddr: 0x10000FA78, symSize: 0x20C }
  - { offset: 0xC20D2, size: 0x8, addend: 0x0, symName: __ZN20BGMDeviceControlSyncC2Ejj22CAHALAudioSystemObject, symObjAddr: 0x0, symBinAddr: 0x10000EFA4, symSize: 0x144 }
  - { offset: 0xC2132, size: 0x8, addend: 0x0, symName: __ZN22CAHALAudioSystemObjectC1ERKS_, symObjAddr: 0x144, symBinAddr: 0x10000F0E8, symSize: 0x34 }
  - { offset: 0xC2167, size: 0x8, addend: 0x0, symName: __ZN20BGMDeviceControlSyncC1Ejj22CAHALAudioSystemObject, symObjAddr: 0x178, symBinAddr: 0x10000F11C, symSize: 0x44 }
  - { offset: 0xC21C1, size: 0x8, addend: 0x0, symName: __ZN20BGMDeviceControlSyncD2Ev, symObjAddr: 0x1BC, symBinAddr: 0x10000F160, symSize: 0xEC }
  - { offset: 0xC2248, size: 0x8, addend: 0x0, symName: '__ZNSt3__18functionIFvvEEC1IZN20BGMDeviceControlSyncD1EvE3$_0vEET_', symObjAddr: 0x2A8, symBinAddr: 0x10000F24C, symSize: 0x34 }
  - { offset: 0xC228E, size: 0x8, addend: 0x0, symName: __ZNSt3__18functionIFvvEED1Ev, symObjAddr: 0x2EC, symBinAddr: 0x10000F280, symSize: 0x2C }
  - { offset: 0xC22D9, size: 0x8, addend: 0x0, symName: __ZN7CAMutex6LockerC1ERS_, symObjAddr: 0x79C, symBinAddr: 0x10000F730, symSize: 0x34 }
  - { offset: 0xC2428, size: 0x8, addend: 0x0, symName: __ZN25BGM_DeviceNotSetExceptionC1Ev, symObjAddr: 0x7D0, symBinAddr: 0x10000F764, symSize: 0x2C }
  - { offset: 0xC2452, size: 0x8, addend: 0x0, symName: __ZN25BGM_DeviceNotSetExceptionD1Ev, symObjAddr: 0x7FC, symBinAddr: 0x10000F790, symSize: 0x2C }
  - { offset: 0xC247F, size: 0x8, addend: 0x0, symName: '__ZNSt3__18functionIFvvEEC1IZN20BGMDeviceControlSync8ActivateEvE3$_0vEET_', symObjAddr: 0x828, symBinAddr: 0x10000F7BC, symSize: 0x34 }
  - { offset: 0xC24C5, size: 0x8, addend: 0x0, symName: __ZN20BGMDeviceControlSync21BGMDeviceListenerProcEjjPK26AudioObjectPropertyAddressPv, symObjAddr: 0x890, symBinAddr: 0x10000F7F0, symSize: 0x228 }
  - { offset: 0xC25DE, size: 0x8, addend: 0x0, symName: __ZN11CAExceptionC1ERKS_, symObjAddr: 0xAB8, symBinAddr: 0x10000FA18, symSize: 0x34 }
  - { offset: 0xC2617, size: 0x8, addend: 0x0, symName: __ZN7CAMutex6LockerD1Ev, symObjAddr: 0xB18, symBinAddr: 0x10000FA4C, symSize: 0x2C }
  - { offset: 0xC2641, size: 0x8, addend: 0x0, symName: '__ZNSt3__18functionIFvvEEC1IZN20BGMDeviceControlSync10DeactivateEvE3$_0vEET_', symObjAddr: 0xD50, symBinAddr: 0x10000FC84, symSize: 0x34 }
  - { offset: 0xC2687, size: 0x8, addend: 0x0, symName: '__ZNSt3__18functionIFvvEEC1IZN20BGMDeviceControlSync10DeactivateEvE3$_1vEET_', symObjAddr: 0xD84, symBinAddr: 0x10000FCB8, symSize: 0x34 }
  - { offset: 0xC26CD, size: 0x8, addend: 0x0, symName: __ZN20BGMDeviceControlSync10SetDevicesEjj, symObjAddr: 0xDB8, symBinAddr: 0x10000FCEC, symSize: 0xFC }
  - { offset: 0xC2747, size: 0x8, addend: 0x0, symName: '__ZZN20BGMDeviceControlSync21BGMDeviceListenerProcEjjPK26AudioObjectPropertyAddressPvENK3$_0clEv', symObjAddr: 0xEE8, symBinAddr: 0x10000FDE8, symSize: 0x124 }
  - { offset: 0xC2771, size: 0x8, addend: 0x0, symName: __ZN22CAHALAudioSystemObjectC2ERKS_, symObjAddr: 0x100C, symBinAddr: 0x10000FF0C, symSize: 0x44 }
  - { offset: 0xC27A6, size: 0x8, addend: 0x0, symName: __ZN7CAMutex6LockerC2ERS_, symObjAddr: 0x1084, symBinAddr: 0x10000FF50, symSize: 0x50 }
  - { offset: 0xC27DF, size: 0x8, addend: 0x0, symName: __ZN25BGM_DeviceNotSetExceptionC2Ev, symObjAddr: 0x10D4, symBinAddr: 0x10000FFA0, symSize: 0x44 }
  - { offset: 0xC2809, size: 0x8, addend: 0x0, symName: __ZN25BGM_DeviceNotSetExceptionD0Ev, symObjAddr: 0x1118, symBinAddr: 0x10000FFE4, symSize: 0x30 }
  - { offset: 0xC2836, size: 0x8, addend: 0x0, symName: __ZN25BGM_DeviceNotSetExceptionD2Ev, symObjAddr: 0x1148, symBinAddr: 0x100010014, symSize: 0x2C }
  - { offset: 0xC2863, size: 0x8, addend: 0x0, symName: __ZN11CAExceptionC2ERKS_, symObjAddr: 0x11FC, symBinAddr: 0x100010040, symSize: 0x24 }
  - { offset: 0xC289C, size: 0x8, addend: 0x0, symName: __ZN7CAMutex6LockerD2Ev, symObjAddr: 0x1234, symBinAddr: 0x100010064, symSize: 0x5C }
  - { offset: 0xC28C6, size: 0x8, addend: 0x0, symName: '__ZNSt3__18functionIFvvEEC2IZN20BGMDeviceControlSyncD1EvE3$_0vEET_', symObjAddr: 0x12E8, symBinAddr: 0x1000100C0, symSize: 0x38 }
  - { offset: 0xC290C, size: 0x8, addend: 0x0, symName: '__ZNSt3__110__function12__value_funcIFvvEEC1B8ne190102IZN20BGMDeviceControlSyncD1EvE3$_0Li0EEEOT_', symObjAddr: 0x1320, symBinAddr: 0x1000100F8, symSize: 0x50 }
  - { offset: 0xC2957, size: 0x8, addend: 0x0, symName: '__ZNSt3__19allocatorIZN20BGMDeviceControlSyncD1EvE3$_0EC1B8ne190102Ev', symObjAddr: 0x1370, symBinAddr: 0x100010148, symSize: 0x2C }
  - { offset: 0xC2981, size: 0x8, addend: 0x0, symName: '__ZNSt3__110__function12__value_funcIFvvEEC1B8ne190102IZN20BGMDeviceControlSyncD1EvE3$_0NS_9allocatorIS6_EEEEOT_RKT0_', symObjAddr: 0x139C, symBinAddr: 0x100010174, symSize: 0x3C }
  - { offset: 0xC29DF, size: 0x8, addend: 0x0, symName: '__ZNSt3__19allocatorIZN20BGMDeviceControlSyncD1EvE3$_0EC2B8ne190102Ev', symObjAddr: 0x13D8, symBinAddr: 0x1000101B0, symSize: 0x2C }
  - { offset: 0xC2A09, size: 0x8, addend: 0x0, symName: '__ZNSt3__116__non_trivial_ifILb1ENS_9allocatorIZN20BGMDeviceControlSyncD1EvE3$_0EEEC2B8ne190102Ev', symObjAddr: 0x1404, symBinAddr: 0x1000101DC, symSize: 0x14 }
  - { offset: 0xC2A33, size: 0x8, addend: 0x0, symName: '__ZNSt3__110__function12__value_funcIFvvEEC2B8ne190102IZN20BGMDeviceControlSyncD1EvE3$_0NS_9allocatorIS6_EEEEOT_RKT0_', symObjAddr: 0x1418, symBinAddr: 0x1000101F0, symSize: 0x94 }
  - { offset: 0xC2AE1, size: 0x8, addend: 0x0, symName: '__ZNSt3__19allocatorINS_10__function6__funcIZN20BGMDeviceControlSyncD1EvE3$_0NS0_IS4_EEFvvEEEEC1B8ne190102IS4_EERKNS0_IT_EE', symObjAddr: 0x14C4, symBinAddr: 0x10001029C, symSize: 0x34 }
  - { offset: 0xC2B26, size: 0x8, addend: 0x0, symName: '__ZNSt3__19allocatorIZN20BGMDeviceControlSyncD1EvE3$_0EC1B8ne190102INS_10__function6__funcIS2_S3_FvvEEEEERKNS0_IT_EE', symObjAddr: 0x14F8, symBinAddr: 0x1000102D0, symSize: 0x34 }
  - { offset: 0xC2B65, size: 0x8, addend: 0x0, symName: '__ZNSt3__110__function6__funcIZN20BGMDeviceControlSyncD1EvE3$_0NS_9allocatorIS3_EEFvvEEC1B8ne190102EOS3_OS5_', symObjAddr: 0x152C, symBinAddr: 0x100010304, symSize: 0x3C }
  - { offset: 0xC2BAF, size: 0x8, addend: 0x0, symName: '__ZNSt3__19allocatorINS_10__function6__funcIZN20BGMDeviceControlSyncD1EvE3$_0NS0_IS4_EEFvvEEEEC2B8ne190102IS4_EERKNS0_IT_EE', symObjAddr: 0x1568, symBinAddr: 0x100010340, symSize: 0x30 }
  - { offset: 0xC2BEE, size: 0x8, addend: 0x0, symName: '__ZNSt3__116__non_trivial_ifILb1ENS_9allocatorINS_10__function6__funcIZN20BGMDeviceControlSyncD1EvE3$_0NS1_IS5_EEFvvEEEEEEC2B8ne190102Ev', symObjAddr: 0x1598, symBinAddr: 0x100010370, symSize: 0x14 }
  - { offset: 0xC2C18, size: 0x8, addend: 0x0, symName: '__ZNSt3__19allocatorIZN20BGMDeviceControlSyncD1EvE3$_0EC2B8ne190102INS_10__function6__funcIS2_S3_FvvEEEEERKNS0_IT_EE', symObjAddr: 0x15AC, symBinAddr: 0x100010384, symSize: 0x30 }
  - { offset: 0xC2C57, size: 0x8, addend: 0x0, symName: '__ZNSt3__110__function6__funcIZN20BGMDeviceControlSyncD1EvE3$_0NS_9allocatorIS3_EEFvvEEC2B8ne190102EOS3_OS5_', symObjAddr: 0x15DC, symBinAddr: 0x1000103B4, symSize: 0x80 }
  - { offset: 0xC2CA1, size: 0x8, addend: 0x0, symName: __ZNSt3__110__function6__baseIFvvEEC2B8ne190102Ev, symObjAddr: 0x165C, symBinAddr: 0x100010434, symSize: 0x24 }
  - { offset: 0xC2CCB, size: 0x8, addend: 0x0, symName: '__ZNSt3__110__function12__alloc_funcIZN20BGMDeviceControlSyncD1EvE3$_0NS_9allocatorIS3_EEFvvEEC1B8ne190102EOS3_OS5_', symObjAddr: 0x1680, symBinAddr: 0x100010458, symSize: 0x3C }
  - { offset: 0xC2D13, size: 0x8, addend: 0x0, symName: __ZNSt3__110__function6__baseIFvvEED2Ev, symObjAddr: 0x16BC, symBinAddr: 0x100010494, symSize: 0x14 }
  - { offset: 0xC2D3D, size: 0x8, addend: 0x0, symName: '__ZNSt3__110__function6__funcIZN20BGMDeviceControlSyncD1EvE3$_0NS_9allocatorIS3_EEFvvEED1Ev', symObjAddr: 0x16D0, symBinAddr: 0x1000104A8, symSize: 0x2C }
  - { offset: 0xC2D69, size: 0x8, addend: 0x0, symName: '__ZNSt3__110__function6__funcIZN20BGMDeviceControlSyncD1EvE3$_0NS_9allocatorIS3_EEFvvEED0Ev', symObjAddr: 0x16FC, symBinAddr: 0x1000104D4, symSize: 0x30 }
  - { offset: 0xC2D95, size: 0x8, addend: 0x0, symName: '__ZNKSt3__110__function6__funcIZN20BGMDeviceControlSyncD1EvE3$_0NS_9allocatorIS3_EEFvvEE7__cloneEv', symObjAddr: 0x172C, symBinAddr: 0x100010504, symSize: 0xFC }
  - { offset: 0xC2DE7, size: 0x8, addend: 0x0, symName: '__ZNKSt3__110__function6__funcIZN20BGMDeviceControlSyncD1EvE3$_0NS_9allocatorIS3_EEFvvEE7__cloneEPNS0_6__baseIS6_EE', symObjAddr: 0x1828, symBinAddr: 0x100010600, symSize: 0x58 }
  - { offset: 0xC2E1D, size: 0x8, addend: 0x0, symName: '__ZNSt3__110__function6__funcIZN20BGMDeviceControlSyncD1EvE3$_0NS_9allocatorIS3_EEFvvEE7destroyEv', symObjAddr: 0x1880, symBinAddr: 0x100010658, symSize: 0x28 }
  - { offset: 0xC2E43, size: 0x8, addend: 0x0, symName: '__ZNSt3__110__function6__funcIZN20BGMDeviceControlSyncD1EvE3$_0NS_9allocatorIS3_EEFvvEE18destroy_deallocateEv', symObjAddr: 0x18A8, symBinAddr: 0x100010680, symSize: 0x58 }
  - { offset: 0xC2E85, size: 0x8, addend: 0x0, symName: '__ZNSt3__110__function6__funcIZN20BGMDeviceControlSyncD1EvE3$_0NS_9allocatorIS3_EEFvvEEclEv', symObjAddr: 0x1900, symBinAddr: 0x1000106D8, symSize: 0x28 }
  - { offset: 0xC2EAB, size: 0x8, addend: 0x0, symName: '__ZNKSt3__110__function6__funcIZN20BGMDeviceControlSyncD1EvE3$_0NS_9allocatorIS3_EEFvvEE6targetERKSt9type_info', symObjAddr: 0x1928, symBinAddr: 0x100010700, symSize: 0x60 }
  - { offset: 0xC2EE1, size: 0x8, addend: 0x0, symName: '__ZNKSt3__110__function6__funcIZN20BGMDeviceControlSyncD1EvE3$_0NS_9allocatorIS3_EEFvvEE11target_typeEv', symObjAddr: 0x1988, symBinAddr: 0x100010760, symSize: 0x18 }
  - { offset: 0xC2F07, size: 0x8, addend: 0x0, symName: __ZNSt3__110__function6__baseIFvvEED1Ev, symObjAddr: 0x19A0, symBinAddr: 0x100010778, symSize: 0x14 }
  - { offset: 0xC2F31, size: 0x8, addend: 0x0, symName: __ZNSt3__110__function6__baseIFvvEED0Ev, symObjAddr: 0x19B4, symBinAddr: 0x10001078C, symSize: 0xC }
  - { offset: 0xC2F5B, size: 0x8, addend: 0x0, symName: '__ZNSt3__110__function12__alloc_funcIZN20BGMDeviceControlSyncD1EvE3$_0NS_9allocatorIS3_EEFvvEEC2B8ne190102EOS3_OS5_', symObjAddr: 0x19C0, symBinAddr: 0x100010798, symSize: 0x5C }
  - { offset: 0xC2FA3, size: 0x8, addend: 0x0, symName: '__ZNSt3__117__compressed_pairIZN20BGMDeviceControlSyncD1EvE3$_0NS_9allocatorIS2_EEEC1B8ne190102IJOS2_EJOS4_EEENS_21piecewise_construct_tENS_5tupleIJDpT_EEENSA_IJDpT0_EEE', symObjAddr: 0x1A74, symBinAddr: 0x10001084C, symSize: 0x3C }
  - { offset: 0xC3014, size: 0x8, addend: 0x0, symName: '__ZNSt3__15tupleIJOZN20BGMDeviceControlSyncD1EvE3$_0EEC1B8ne190102IJS2_ELi0EEEDpOT_', symObjAddr: 0x1AB0, symBinAddr: 0x100010888, symSize: 0x34 }
  - { offset: 0xC3062, size: 0x8, addend: 0x0, symName: '__ZNSt3__15tupleIJOZN20BGMDeviceControlSyncD1EvE3$_0EEC2B8ne190102IJS2_ELi0EEEDpOT_', symObjAddr: 0x1AE4, symBinAddr: 0x1000108BC, symSize: 0x34 }
  - { offset: 0xC30B0, size: 0x8, addend: 0x0, symName: '__ZNSt3__112__tuple_implINS_15__tuple_indicesIJLm0EEEEJOZN20BGMDeviceControlSyncD1EvE3$_0EEC1B8ne190102IJLm0EEJS5_EJEJEJS4_EEENS1_IJXspT_EEEENS_13__tuple_typesIJDpT0_EEENS1_IJXspT1_EEEENS9_IJDpT2_EEEDpOT3_', symObjAddr: 0x1B18, symBinAddr: 0x1000108F0, symSize: 0x34 }
  - { offset: 0xC314E, size: 0x8, addend: 0x0, symName: '__ZNSt3__112__tuple_implINS_15__tuple_indicesIJLm0EEEEJOZN20BGMDeviceControlSyncD1EvE3$_0EEC2B8ne190102IJLm0EEJS5_EJEJEJS4_EEENS1_IJXspT_EEEENS_13__tuple_typesIJDpT0_EEENS1_IJXspT1_EEEENS9_IJDpT2_EEEDpOT3_', symObjAddr: 0x1B4C, symBinAddr: 0x100010924, symSize: 0x34 }
  - { offset: 0xC31EC, size: 0x8, addend: 0x0, symName: '__ZNSt3__112__tuple_leafILm0EOZN20BGMDeviceControlSyncD1EvE3$_0Lb0EEC2B8ne190102IS2_Li0EEEOT_', symObjAddr: 0x1B80, symBinAddr: 0x100010958, symSize: 0x20 }
  - { offset: 0xC3237, size: 0x8, addend: 0x0, symName: '__ZNSt3__15tupleIJONS_9allocatorIZN20BGMDeviceControlSyncD1EvE3$_0EEEEC1B8ne190102IJS4_ELi0EEEDpOT_', symObjAddr: 0x1BA0, symBinAddr: 0x100010978, symSize: 0x34 }
  - { offset: 0xC3285, size: 0x8, addend: 0x0, symName: '__ZNSt3__15tupleIJONS_9allocatorIZN20BGMDeviceControlSyncD1EvE3$_0EEEEC2B8ne190102IJS4_ELi0EEEDpOT_', symObjAddr: 0x1BD4, symBinAddr: 0x1000109AC, symSize: 0x34 }
  - { offset: 0xC32D3, size: 0x8, addend: 0x0, symName: '__ZNSt3__112__tuple_implINS_15__tuple_indicesIJLm0EEEEJONS_9allocatorIZN20BGMDeviceControlSyncD1EvE3$_0EEEEC1B8ne190102IJLm0EEJS7_EJEJEJS6_EEENS1_IJXspT_EEEENS_13__tuple_typesIJDpT0_EEENS1_IJXspT1_EEEENSB_IJDpT2_EEEDpOT3_', symObjAddr: 0x1C08, symBinAddr: 0x1000109E0, symSize: 0x34 }
  - { offset: 0xC3371, size: 0x8, addend: 0x0, symName: '__ZNSt3__112__tuple_implINS_15__tuple_indicesIJLm0EEEEJONS_9allocatorIZN20BGMDeviceControlSyncD1EvE3$_0EEEEC2B8ne190102IJLm0EEJS7_EJEJEJS6_EEENS1_IJXspT_EEEENS_13__tuple_typesIJDpT0_EEENS1_IJXspT1_EEEENSB_IJDpT2_EEEDpOT3_', symObjAddr: 0x1C3C, symBinAddr: 0x100010A14, symSize: 0x34 }
  - { offset: 0xC340F, size: 0x8, addend: 0x0, symName: '__ZNSt3__112__tuple_leafILm0EONS_9allocatorIZN20BGMDeviceControlSyncD1EvE3$_0EELb0EEC2B8ne190102IS4_Li0EEEOT_', symObjAddr: 0x1C70, symBinAddr: 0x100010A48, symSize: 0x20 }
  - { offset: 0xC345A, size: 0x8, addend: 0x0, symName: '__ZNSt3__117__compressed_pairIZN20BGMDeviceControlSyncD1EvE3$_0NS_9allocatorIS2_EEEC2B8ne190102IJOS2_EJOS4_EEENS_21piecewise_construct_tENS_5tupleIJDpT_EEENSA_IJDpT0_EEE', symObjAddr: 0x1C90, symBinAddr: 0x100010A68, symSize: 0x54 }
  - { offset: 0xC34CB, size: 0x8, addend: 0x0, symName: '__ZNSt3__122__compressed_pair_elemIZN20BGMDeviceControlSyncD1EvE3$_0Li0ELb0EEC2B8ne190102IJOS2_EJLm0EEEENS_21piecewise_construct_tENS_5tupleIJDpT_EEENS_15__tuple_indicesIJXspT0_EEEE', symObjAddr: 0x1CE4, symBinAddr: 0x100010ABC, symSize: 0x44 }
  - { offset: 0xC3535, size: 0x8, addend: 0x0, symName: '__ZNSt3__122__compressed_pair_elemINS_9allocatorIZN20BGMDeviceControlSyncD1EvE3$_0EELi1ELb1EEC2B8ne190102IJOS4_EJLm0EEEENS_21piecewise_construct_tENS_5tupleIJDpT_EEENS_15__tuple_indicesIJXspT0_EEEE', symObjAddr: 0x1D28, symBinAddr: 0x100010B00, symSize: 0x38 }
  - { offset: 0xC359F, size: 0x8, addend: 0x0, symName: '__ZNSt3__112__tuple_leafILm0EOZN20BGMDeviceControlSyncD1EvE3$_0Lb0EE3getB8ne190102Ev', symObjAddr: 0x1D84, symBinAddr: 0x100010B5C, symSize: 0x18 }
  - { offset: 0xC35C5, size: 0x8, addend: 0x0, symName: '__ZNSt3__112__tuple_leafILm0EONS_9allocatorIZN20BGMDeviceControlSyncD1EvE3$_0EELb0EE3getB8ne190102Ev', symObjAddr: 0x1DC0, symBinAddr: 0x100010B98, symSize: 0x18 }
  - { offset: 0xC35EB, size: 0x8, addend: 0x0, symName: '__ZNSt3__110__function6__funcIZN20BGMDeviceControlSyncD1EvE3$_0NS_9allocatorIS3_EEFvvEED2Ev', symObjAddr: 0x1DD8, symBinAddr: 0x100010BB0, symSize: 0x2C }
  - { offset: 0xC3617, size: 0x8, addend: 0x0, symName: '__ZNKSt3__110__function12__alloc_funcIZN20BGMDeviceControlSyncD1EvE3$_0NS_9allocatorIS3_EEFvvEE15__get_allocatorB8ne190102Ev', symObjAddr: 0x1E04, symBinAddr: 0x100010BDC, symSize: 0x24 }
  - { offset: 0xC363D, size: 0x8, addend: 0x0, symName: '__ZNSt3__19allocatorINS_10__function6__funcIZN20BGMDeviceControlSyncD1EvE3$_0NS0_IS4_EEFvvEEEE8allocateB8ne190102Em', symObjAddr: 0x1E28, symBinAddr: 0x100010C00, symSize: 0x54 }
  - { offset: 0xC3683, size: 0x8, addend: 0x0, symName: '__ZNSt3__122__allocator_destructorINS_9allocatorINS_10__function6__funcIZN20BGMDeviceControlSyncD1EvE3$_0NS1_IS5_EEFvvEEEEEEC1B8ne190102ERS9_m', symObjAddr: 0x1E7C, symBinAddr: 0x100010C54, symSize: 0x3C }
  - { offset: 0xC3761, size: 0x8, addend: 0x0, symName: '__ZNSt3__110unique_ptrINS_10__function6__funcIZN20BGMDeviceControlSyncD1EvE3$_0NS_9allocatorIS4_EEFvvEEENS_22__allocator_destructorINS5_IS8_EEEEEC1B8ne190102ILb1EvEEPS8_NS_16__dependent_typeINS_27__unique_ptr_deleter_sfinaeISB_EEXT_EE20__good_rval_ref_typeE', symObjAddr: 0x1EB8, symBinAddr: 0x100010C90, symSize: 0x3C }
  - { offset: 0xC37B6, size: 0x8, addend: 0x0, symName: '__ZNKSt3__110unique_ptrINS_10__function6__funcIZN20BGMDeviceControlSyncD1EvE3$_0NS_9allocatorIS4_EEFvvEEENS_22__allocator_destructorINS5_IS8_EEEEE3getB8ne190102Ev', symObjAddr: 0x1EF4, symBinAddr: 0x100010CCC, symSize: 0x28 }
  - { offset: 0xC37DC, size: 0x8, addend: 0x0, symName: '__ZNKSt3__110__function12__alloc_funcIZN20BGMDeviceControlSyncD1EvE3$_0NS_9allocatorIS3_EEFvvEE8__targetB8ne190102Ev', symObjAddr: 0x1F1C, symBinAddr: 0x100010CF4, symSize: 0x24 }
  - { offset: 0xC3802, size: 0x8, addend: 0x0, symName: '__ZNSt3__110__function6__funcIZN20BGMDeviceControlSyncD1EvE3$_0NS_9allocatorIS3_EEFvvEEC1B8ne190102ERKS3_OS5_', symObjAddr: 0x1F40, symBinAddr: 0x100010D18, symSize: 0x3C }
  - { offset: 0xC384C, size: 0x8, addend: 0x0, symName: '__ZNSt3__110unique_ptrINS_10__function6__funcIZN20BGMDeviceControlSyncD1EvE3$_0NS_9allocatorIS4_EEFvvEEENS_22__allocator_destructorINS5_IS8_EEEEE7releaseB8ne190102Ev', symObjAddr: 0x1F7C, symBinAddr: 0x100010D54, symSize: 0x44 }
  - { offset: 0xC3882, size: 0x8, addend: 0x0, symName: '__ZNSt3__110unique_ptrINS_10__function6__funcIZN20BGMDeviceControlSyncD1EvE3$_0NS_9allocatorIS4_EEFvvEEENS_22__allocator_destructorINS5_IS8_EEEEED1B8ne190102Ev', symObjAddr: 0x1FC0, symBinAddr: 0x100010D98, symSize: 0x2C }
  - { offset: 0xC38AC, size: 0x8, addend: 0x0, symName: '__ZNKSt3__117__compressed_pairIZN20BGMDeviceControlSyncD1EvE3$_0NS_9allocatorIS2_EEE6secondB8ne190102Ev', symObjAddr: 0x1FEC, symBinAddr: 0x100010DC4, symSize: 0x24 }
  - { offset: 0xC38D2, size: 0x8, addend: 0x0, symName: '__ZNKSt3__122__compressed_pair_elemINS_9allocatorIZN20BGMDeviceControlSyncD1EvE3$_0EELi1ELb1EE5__getB8ne190102Ev', symObjAddr: 0x2010, symBinAddr: 0x100010DE8, symSize: 0x14 }
  - { offset: 0xC3903, size: 0x8, addend: 0x0, symName: '__ZNSt3__116allocator_traitsINS_9allocatorINS_10__function6__funcIZN20BGMDeviceControlSyncD1EvE3$_0NS1_IS5_EEFvvEEEEEE8max_sizeB8ne190102IS9_Li0EEEmRKS9_', symObjAddr: 0x2024, symBinAddr: 0x100010DFC, symSize: 0x24 }
  - { offset: 0xC3939, size: 0x8, addend: 0x0, symName: '__ZNKSt3__19allocatorINS_10__function6__funcIZN20BGMDeviceControlSyncD1EvE3$_0NS0_IS4_EEFvvEEEE8max_sizeB8ne190102Ev', symObjAddr: 0x20A4, symBinAddr: 0x100010E20, symSize: 0x14 }
  - { offset: 0xC395F, size: 0x8, addend: 0x0, symName: '__ZNSt3__122__allocator_destructorINS_9allocatorINS_10__function6__funcIZN20BGMDeviceControlSyncD1EvE3$_0NS1_IS5_EEFvvEEEEEEC2B8ne190102ERS9_m', symObjAddr: 0x20DC, symBinAddr: 0x100010E34, symSize: 0x2C }
  - { offset: 0xC39A7, size: 0x8, addend: 0x0, symName: '__ZNSt3__110unique_ptrINS_10__function6__funcIZN20BGMDeviceControlSyncD1EvE3$_0NS_9allocatorIS4_EEFvvEEENS_22__allocator_destructorINS5_IS8_EEEEEC2B8ne190102ILb1EvEEPS8_NS_16__dependent_typeINS_27__unique_ptr_deleter_sfinaeISB_EEXT_EE20__good_rval_ref_typeE', symObjAddr: 0x2108, symBinAddr: 0x100010E60, symSize: 0x48 }
  - { offset: 0xC39FC, size: 0x8, addend: 0x0, symName: '__ZNSt3__117__compressed_pairIPNS_10__function6__funcIZN20BGMDeviceControlSyncD1EvE3$_0NS_9allocatorIS4_EEFvvEEENS_22__allocator_destructorINS5_IS8_EEEEEC1B8ne190102IRS9_SC_EEOT_OT0_', symObjAddr: 0x2150, symBinAddr: 0x100010EA8, symSize: 0x3C }
  - { offset: 0xC3A58, size: 0x8, addend: 0x0, symName: '__ZNSt3__117__compressed_pairIPNS_10__function6__funcIZN20BGMDeviceControlSyncD1EvE3$_0NS_9allocatorIS4_EEFvvEEENS_22__allocator_destructorINS5_IS8_EEEEEC2B8ne190102IRS9_SC_EEOT_OT0_', symObjAddr: 0x218C, symBinAddr: 0x100010EE4, symSize: 0x48 }
  - { offset: 0xC3AB4, size: 0x8, addend: 0x0, symName: '__ZNSt3__122__compressed_pair_elemIPNS_10__function6__funcIZN20BGMDeviceControlSyncD1EvE3$_0NS_9allocatorIS4_EEFvvEEELi0ELb0EEC2B8ne190102IRS9_Li0EEEOT_', symObjAddr: 0x21D4, symBinAddr: 0x100010F2C, symSize: 0x24 }
  - { offset: 0xC3AFE, size: 0x8, addend: 0x0, symName: '__ZNSt3__122__compressed_pair_elemINS_22__allocator_destructorINS_9allocatorINS_10__function6__funcIZN20BGMDeviceControlSyncD1EvE3$_0NS2_IS6_EEFvvEEEEEEELi1ELb0EEC2B8ne190102ISB_Li0EEEOT_', symObjAddr: 0x21F8, symBinAddr: 0x100010F50, symSize: 0x24 }
  - { offset: 0xC3B48, size: 0x8, addend: 0x0, symName: '__ZNKSt3__117__compressed_pairIPNS_10__function6__funcIZN20BGMDeviceControlSyncD1EvE3$_0NS_9allocatorIS4_EEFvvEEENS_22__allocator_destructorINS5_IS8_EEEEE5firstB8ne190102Ev', symObjAddr: 0x221C, symBinAddr: 0x100010F74, symSize: 0x24 }
  - { offset: 0xC3B6E, size: 0x8, addend: 0x0, symName: '__ZNKSt3__122__compressed_pair_elemIPNS_10__function6__funcIZN20BGMDeviceControlSyncD1EvE3$_0NS_9allocatorIS4_EEFvvEEELi0ELb0EE5__getB8ne190102Ev', symObjAddr: 0x2240, symBinAddr: 0x100010F98, symSize: 0x14 }
  - { offset: 0xC3B94, size: 0x8, addend: 0x0, symName: '__ZNKSt3__117__compressed_pairIZN20BGMDeviceControlSyncD1EvE3$_0NS_9allocatorIS2_EEE5firstB8ne190102Ev', symObjAddr: 0x2254, symBinAddr: 0x100010FAC, symSize: 0x24 }
  - { offset: 0xC3BBA, size: 0x8, addend: 0x0, symName: '__ZNKSt3__122__compressed_pair_elemIZN20BGMDeviceControlSyncD1EvE3$_0Li0ELb0EE5__getB8ne190102Ev', symObjAddr: 0x2278, symBinAddr: 0x100010FD0, symSize: 0x14 }
  - { offset: 0xC3BE0, size: 0x8, addend: 0x0, symName: '__ZNSt3__110__function6__funcIZN20BGMDeviceControlSyncD1EvE3$_0NS_9allocatorIS3_EEFvvEEC2B8ne190102ERKS3_OS5_', symObjAddr: 0x228C, symBinAddr: 0x100010FE4, symSize: 0x80 }
  - { offset: 0xC3C2A, size: 0x8, addend: 0x0, symName: '__ZNSt3__110__function12__alloc_funcIZN20BGMDeviceControlSyncD1EvE3$_0NS_9allocatorIS3_EEFvvEEC1B8ne190102ERKS3_OS5_', symObjAddr: 0x230C, symBinAddr: 0x100011064, symSize: 0x3C }
  - { offset: 0xC3C72, size: 0x8, addend: 0x0, symName: '__ZNSt3__110__function12__alloc_funcIZN20BGMDeviceControlSyncD1EvE3$_0NS_9allocatorIS3_EEFvvEEC2B8ne190102ERKS3_OS5_', symObjAddr: 0x2348, symBinAddr: 0x1000110A0, symSize: 0x5C }
  - { offset: 0xC3CBA, size: 0x8, addend: 0x0, symName: '__ZNSt3__117__compressed_pairIZN20BGMDeviceControlSyncD1EvE3$_0NS_9allocatorIS2_EEEC1B8ne190102IJRKS2_EJOS4_EEENS_21piecewise_construct_tENS_5tupleIJDpT_EEENSB_IJDpT0_EEE', symObjAddr: 0x23D0, symBinAddr: 0x100011128, symSize: 0x3C }
  - { offset: 0xC3D2B, size: 0x8, addend: 0x0, symName: '__ZNSt3__15tupleIJRKZN20BGMDeviceControlSyncD1EvE3$_0EEC1B8ne190102INS_4_AndELi0EEES4_', symObjAddr: 0x240C, symBinAddr: 0x100011164, symSize: 0x34 }
  - { offset: 0xC3D76, size: 0x8, addend: 0x0, symName: '__ZNSt3__15tupleIJRKZN20BGMDeviceControlSyncD1EvE3$_0EEC2B8ne190102INS_4_AndELi0EEES4_', symObjAddr: 0x2440, symBinAddr: 0x100011198, symSize: 0x34 }
  - { offset: 0xC3DC1, size: 0x8, addend: 0x0, symName: '__ZNSt3__112__tuple_implINS_15__tuple_indicesIJLm0EEEEJRKZN20BGMDeviceControlSyncD1EvE3$_0EEC1B8ne190102IJLm0EEJS6_EJEJEJS6_EEENS1_IJXspT_EEEENS_13__tuple_typesIJDpT0_EEENS1_IJXspT1_EEEENSA_IJDpT2_EEEDpOT3_', symObjAddr: 0x2474, symBinAddr: 0x1000111CC, symSize: 0x34 }
  - { offset: 0xC3E5F, size: 0x8, addend: 0x0, symName: '__ZNSt3__112__tuple_implINS_15__tuple_indicesIJLm0EEEEJRKZN20BGMDeviceControlSyncD1EvE3$_0EEC2B8ne190102IJLm0EEJS6_EJEJEJS6_EEENS1_IJXspT_EEEENS_13__tuple_typesIJDpT0_EEENS1_IJXspT1_EEEENSA_IJDpT2_EEEDpOT3_', symObjAddr: 0x24A8, symBinAddr: 0x100011200, symSize: 0x34 }
  - { offset: 0xC3EFD, size: 0x8, addend: 0x0, symName: '__ZNSt3__112__tuple_leafILm0ERKZN20BGMDeviceControlSyncD1EvE3$_0Lb0EEC2B8ne190102IS4_Li0EEEOT_', symObjAddr: 0x24DC, symBinAddr: 0x100011234, symSize: 0x20 }
  - { offset: 0xC3F48, size: 0x8, addend: 0x0, symName: '__ZNSt3__117__compressed_pairIZN20BGMDeviceControlSyncD1EvE3$_0NS_9allocatorIS2_EEEC2B8ne190102IJRKS2_EJOS4_EEENS_21piecewise_construct_tENS_5tupleIJDpT_EEENSB_IJDpT0_EEE', symObjAddr: 0x24FC, symBinAddr: 0x100011254, symSize: 0x54 }
  - { offset: 0xC3FB9, size: 0x8, addend: 0x0, symName: '__ZNSt3__122__compressed_pair_elemIZN20BGMDeviceControlSyncD1EvE3$_0Li0ELb0EEC2B8ne190102IJRKS2_EJLm0EEEENS_21piecewise_construct_tENS_5tupleIJDpT_EEENS_15__tuple_indicesIJXspT0_EEEE', symObjAddr: 0x2550, symBinAddr: 0x1000112A8, symSize: 0x44 }
  - { offset: 0xC4023, size: 0x8, addend: 0x0, symName: '__ZNSt3__112__tuple_leafILm0ERKZN20BGMDeviceControlSyncD1EvE3$_0Lb0EE3getB8ne190102Ev', symObjAddr: 0x25B8, symBinAddr: 0x100011310, symSize: 0x18 }
  - { offset: 0xC4049, size: 0x8, addend: 0x0, symName: '__ZNSt3__117__compressed_pairIPNS_10__function6__funcIZN20BGMDeviceControlSyncD1EvE3$_0NS_9allocatorIS4_EEFvvEEENS_22__allocator_destructorINS5_IS8_EEEEE5firstB8ne190102Ev', symObjAddr: 0x25D0, symBinAddr: 0x100011328, symSize: 0x24 }
  - { offset: 0xC406F, size: 0x8, addend: 0x0, symName: '__ZNSt3__122__compressed_pair_elemIPNS_10__function6__funcIZN20BGMDeviceControlSyncD1EvE3$_0NS_9allocatorIS4_EEFvvEEELi0ELb0EE5__getB8ne190102Ev', symObjAddr: 0x25F4, symBinAddr: 0x10001134C, symSize: 0x14 }
  - { offset: 0xC4095, size: 0x8, addend: 0x0, symName: '__ZNSt3__110unique_ptrINS_10__function6__funcIZN20BGMDeviceControlSyncD1EvE3$_0NS_9allocatorIS4_EEFvvEEENS_22__allocator_destructorINS5_IS8_EEEEED2B8ne190102Ev', symObjAddr: 0x2608, symBinAddr: 0x100011360, symSize: 0x30 }
  - { offset: 0xC40BF, size: 0x8, addend: 0x0, symName: '__ZNSt3__110unique_ptrINS_10__function6__funcIZN20BGMDeviceControlSyncD1EvE3$_0NS_9allocatorIS4_EEFvvEEENS_22__allocator_destructorINS5_IS8_EEEEE5resetB8ne190102EPS8_', symObjAddr: 0x2638, symBinAddr: 0x100011390, symSize: 0x70 }
  - { offset: 0xC4105, size: 0x8, addend: 0x0, symName: '__ZNSt3__117__compressed_pairIPNS_10__function6__funcIZN20BGMDeviceControlSyncD1EvE3$_0NS_9allocatorIS4_EEFvvEEENS_22__allocator_destructorINS5_IS8_EEEEE6secondB8ne190102Ev', symObjAddr: 0x26A8, symBinAddr: 0x100011400, symSize: 0x28 }
  - { offset: 0xC412B, size: 0x8, addend: 0x0, symName: '__ZNSt3__122__allocator_destructorINS_9allocatorINS_10__function6__funcIZN20BGMDeviceControlSyncD1EvE3$_0NS1_IS5_EEFvvEEEEEEclB8ne190102EPS8_', symObjAddr: 0x26D0, symBinAddr: 0x100011428, symSize: 0x34 }
  - { offset: 0xC4160, size: 0x8, addend: 0x0, symName: '__ZNSt3__122__compressed_pair_elemINS_22__allocator_destructorINS_9allocatorINS_10__function6__funcIZN20BGMDeviceControlSyncD1EvE3$_0NS2_IS6_EEFvvEEEEEEELi1ELb0EE5__getB8ne190102Ev', symObjAddr: 0x2704, symBinAddr: 0x10001145C, symSize: 0x14 }
  - { offset: 0xC4186, size: 0x8, addend: 0x0, symName: '__ZNSt3__116allocator_traitsINS_9allocatorINS_10__function6__funcIZN20BGMDeviceControlSyncD1EvE3$_0NS1_IS5_EEFvvEEEEEE10deallocateB8ne190102ERS9_PS8_m', symObjAddr: 0x2718, symBinAddr: 0x100011470, symSize: 0x34 }
  - { offset: 0xC41CB, size: 0x8, addend: 0x0, symName: '__ZNSt3__19allocatorINS_10__function6__funcIZN20BGMDeviceControlSyncD1EvE3$_0NS0_IS4_EEFvvEEEE10deallocateB8ne190102EPS7_m', symObjAddr: 0x274C, symBinAddr: 0x1000114A4, symSize: 0x40 }
  - { offset: 0xC420F, size: 0x8, addend: 0x0, symName: '__ZNSt3__110__function6__funcIZN20BGMDeviceControlSyncD1EvE3$_0NS_9allocatorIS3_EEFvvEEC1B8ne190102ERKS3_RKS5_', symObjAddr: 0x2808, symBinAddr: 0x1000114E4, symSize: 0x3C }
  - { offset: 0xC4259, size: 0x8, addend: 0x0, symName: '__ZNSt3__110__function6__funcIZN20BGMDeviceControlSyncD1EvE3$_0NS_9allocatorIS3_EEFvvEEC2B8ne190102ERKS3_RKS5_', symObjAddr: 0x2844, symBinAddr: 0x100011520, symSize: 0x80 }
  - { offset: 0xC42A3, size: 0x8, addend: 0x0, symName: '__ZNSt3__110__function12__alloc_funcIZN20BGMDeviceControlSyncD1EvE3$_0NS_9allocatorIS3_EEFvvEEC1B8ne190102ERKS3_RKS5_', symObjAddr: 0x28C4, symBinAddr: 0x1000115A0, symSize: 0x3C }
  - { offset: 0xC42EB, size: 0x8, addend: 0x0, symName: '__ZNSt3__110__function12__alloc_funcIZN20BGMDeviceControlSyncD1EvE3$_0NS_9allocatorIS3_EEFvvEEC2B8ne190102ERKS3_RKS5_', symObjAddr: 0x2900, symBinAddr: 0x1000115DC, symSize: 0x5C }
  - { offset: 0xC4333, size: 0x8, addend: 0x0, symName: '__ZNSt3__117__compressed_pairIZN20BGMDeviceControlSyncD1EvE3$_0NS_9allocatorIS2_EEEC1B8ne190102IJRKS2_EJRKS4_EEENS_21piecewise_construct_tENS_5tupleIJDpT_EEENSC_IJDpT0_EEE', symObjAddr: 0x2988, symBinAddr: 0x100011664, symSize: 0x3C }
  - { offset: 0xC43A4, size: 0x8, addend: 0x0, symName: '__ZNSt3__15tupleIJRKNS_9allocatorIZN20BGMDeviceControlSyncD1EvE3$_0EEEEC1B8ne190102INS_4_AndELi0EEES6_', symObjAddr: 0x29C4, symBinAddr: 0x1000116A0, symSize: 0x34 }
  - { offset: 0xC43EF, size: 0x8, addend: 0x0, symName: '__ZNSt3__15tupleIJRKNS_9allocatorIZN20BGMDeviceControlSyncD1EvE3$_0EEEEC2B8ne190102INS_4_AndELi0EEES6_', symObjAddr: 0x29F8, symBinAddr: 0x1000116D4, symSize: 0x34 }
  - { offset: 0xC443A, size: 0x8, addend: 0x0, symName: '__ZNSt3__112__tuple_implINS_15__tuple_indicesIJLm0EEEEJRKNS_9allocatorIZN20BGMDeviceControlSyncD1EvE3$_0EEEEC1B8ne190102IJLm0EEJS8_EJEJEJS8_EEENS1_IJXspT_EEEENS_13__tuple_typesIJDpT0_EEENS1_IJXspT1_EEEENSC_IJDpT2_EEEDpOT3_', symObjAddr: 0x2A2C, symBinAddr: 0x100011708, symSize: 0x34 }
  - { offset: 0xC44D8, size: 0x8, addend: 0x0, symName: '__ZNSt3__112__tuple_implINS_15__tuple_indicesIJLm0EEEEJRKNS_9allocatorIZN20BGMDeviceControlSyncD1EvE3$_0EEEEC2B8ne190102IJLm0EEJS8_EJEJEJS8_EEENS1_IJXspT_EEEENS_13__tuple_typesIJDpT0_EEENS1_IJXspT1_EEEENSC_IJDpT2_EEEDpOT3_', symObjAddr: 0x2A60, symBinAddr: 0x10001173C, symSize: 0x34 }
  - { offset: 0xC4576, size: 0x8, addend: 0x0, symName: '__ZNSt3__112__tuple_leafILm0ERKNS_9allocatorIZN20BGMDeviceControlSyncD1EvE3$_0EELb0EEC2B8ne190102IS6_Li0EEEOT_', symObjAddr: 0x2A94, symBinAddr: 0x100011770, symSize: 0x20 }
  - { offset: 0xC45C1, size: 0x8, addend: 0x0, symName: '__ZNSt3__117__compressed_pairIZN20BGMDeviceControlSyncD1EvE3$_0NS_9allocatorIS2_EEEC2B8ne190102IJRKS2_EJRKS4_EEENS_21piecewise_construct_tENS_5tupleIJDpT_EEENSC_IJDpT0_EEE', symObjAddr: 0x2AB4, symBinAddr: 0x100011790, symSize: 0x54 }
  - { offset: 0xC4632, size: 0x8, addend: 0x0, symName: '__ZNSt3__122__compressed_pair_elemINS_9allocatorIZN20BGMDeviceControlSyncD1EvE3$_0EELi1ELb1EEC2B8ne190102IJRKS4_EJLm0EEEENS_21piecewise_construct_tENS_5tupleIJDpT_EEENS_15__tuple_indicesIJXspT0_EEEE', symObjAddr: 0x2B08, symBinAddr: 0x1000117E4, symSize: 0x38 }
  - { offset: 0xC469C, size: 0x8, addend: 0x0, symName: '__ZNSt3__112__tuple_leafILm0ERKNS_9allocatorIZN20BGMDeviceControlSyncD1EvE3$_0EELb0EE3getB8ne190102Ev', symObjAddr: 0x2B64, symBinAddr: 0x100011840, symSize: 0x18 }
  - { offset: 0xC46C2, size: 0x8, addend: 0x0, symName: '__ZNSt3__110__function12__alloc_funcIZN20BGMDeviceControlSyncD1EvE3$_0NS_9allocatorIS3_EEFvvEE7destroyB8ne190102Ev', symObjAddr: 0x2B7C, symBinAddr: 0x100011858, symSize: 0x10 }
  - { offset: 0xC46E8, size: 0x8, addend: 0x0, symName: '__ZNSt3__110__function12__alloc_funcIZN20BGMDeviceControlSyncD1EvE3$_0NS_9allocatorIS3_EEFvvEEclB8ne190102Ev', symObjAddr: 0x2B8C, symBinAddr: 0x100011868, symSize: 0x28 }
  - { offset: 0xC470E, size: 0x8, addend: 0x0, symName: '__ZNSt3__128__invoke_void_return_wrapperIvLb1EE6__callB8ne190102IJRZN20BGMDeviceControlSyncD1EvE3$_0EEEvDpOT_', symObjAddr: 0x2BB4, symBinAddr: 0x100011890, symSize: 0x24 }
  - { offset: 0xC473F, size: 0x8, addend: 0x0, symName: '__ZNSt3__117__compressed_pairIZN20BGMDeviceControlSyncD1EvE3$_0NS_9allocatorIS2_EEE5firstB8ne190102Ev', symObjAddr: 0x2BD8, symBinAddr: 0x1000118B4, symSize: 0x24 }
  - { offset: 0xC476A, size: 0x8, addend: 0x0, symName: '__ZZN20BGMDeviceControlSyncD1EvENK3$_0clEv', symObjAddr: 0x2C20, symBinAddr: 0x1000118FC, symSize: 0x64 }
  - { offset: 0xC47A3, size: 0x8, addend: 0x0, symName: '__ZNSt3__122__compressed_pair_elemIZN20BGMDeviceControlSyncD1EvE3$_0Li0ELb0EE5__getB8ne190102Ev', symObjAddr: 0x2C84, symBinAddr: 0x100011960, symSize: 0x14 }
  - { offset: 0xC47FD, size: 0x8, addend: 0x0, symName: __ZNKSt9type_infoeqB8ne190102ERKS_, symObjAddr: 0x2C98, symBinAddr: 0x100011974, symSize: 0xD4 }
  - { offset: 0xC489A, size: 0x8, addend: 0x0, symName: __ZNSt27__type_info_implementations30__non_unique_arm_rtti_bit_impl21__is_type_name_uniqueB8ne190102Em, symObjAddr: 0x2D6C, symBinAddr: 0x100011A48, symSize: 0x1C }
  - { offset: 0xC48BF, size: 0x8, addend: 0x0, symName: __ZNSt3__18functionIFvvEED2Ev, symObjAddr: 0x2D88, symBinAddr: 0x100011A64, symSize: 0x2C }
  - { offset: 0xC48E9, size: 0x8, addend: 0x0, symName: __ZNSt3__110__function12__value_funcIFvvEED1B8ne190102Ev, symObjAddr: 0x2DB4, symBinAddr: 0x100011A90, symSize: 0x2C }
  - { offset: 0xC4913, size: 0x8, addend: 0x0, symName: __ZNSt3__110__function12__value_funcIFvvEED2B8ne190102Ev, symObjAddr: 0x2DE0, symBinAddr: 0x100011ABC, symSize: 0x84 }
  - { offset: 0xC493D, size: 0x8, addend: 0x0, symName: '__ZNSt3__18functionIFvvEEC2IZN20BGMDeviceControlSync8ActivateEvE3$_0vEET_', symObjAddr: 0x2E64, symBinAddr: 0x100011B40, symSize: 0x38 }
  - { offset: 0xC4983, size: 0x8, addend: 0x0, symName: '__ZNSt3__110__function12__value_funcIFvvEEC1B8ne190102IZN20BGMDeviceControlSync8ActivateEvE3$_0Li0EEEOT_', symObjAddr: 0x2E9C, symBinAddr: 0x100011B78, symSize: 0x50 }
  - { offset: 0xC49CE, size: 0x8, addend: 0x0, symName: '__ZNSt3__19allocatorIZN20BGMDeviceControlSync8ActivateEvE3$_0EC1B8ne190102Ev', symObjAddr: 0x2EEC, symBinAddr: 0x100011BC8, symSize: 0x2C }
  - { offset: 0xC49F8, size: 0x8, addend: 0x0, symName: '__ZNSt3__110__function12__value_funcIFvvEEC1B8ne190102IZN20BGMDeviceControlSync8ActivateEvE3$_0NS_9allocatorIS6_EEEEOT_RKT0_', symObjAddr: 0x2F18, symBinAddr: 0x100011BF4, symSize: 0x3C }
  - { offset: 0xC4A56, size: 0x8, addend: 0x0, symName: '__ZNSt3__19allocatorIZN20BGMDeviceControlSync8ActivateEvE3$_0EC2B8ne190102Ev', symObjAddr: 0x2F54, symBinAddr: 0x100011C30, symSize: 0x2C }
  - { offset: 0xC4A80, size: 0x8, addend: 0x0, symName: '__ZNSt3__116__non_trivial_ifILb1ENS_9allocatorIZN20BGMDeviceControlSync8ActivateEvE3$_0EEEC2B8ne190102Ev', symObjAddr: 0x2F80, symBinAddr: 0x100011C5C, symSize: 0x14 }
  - { offset: 0xC4AAA, size: 0x8, addend: 0x0, symName: '__ZNSt3__110__function12__value_funcIFvvEEC2B8ne190102IZN20BGMDeviceControlSync8ActivateEvE3$_0NS_9allocatorIS6_EEEEOT_RKT0_', symObjAddr: 0x2F94, symBinAddr: 0x100011C70, symSize: 0x94 }
  - { offset: 0xC4B58, size: 0x8, addend: 0x0, symName: '__ZNSt3__19allocatorINS_10__function6__funcIZN20BGMDeviceControlSync8ActivateEvE3$_0NS0_IS4_EEFvvEEEEC1B8ne190102IS4_EERKNS0_IT_EE', symObjAddr: 0x3040, symBinAddr: 0x100011D1C, symSize: 0x34 }
  - { offset: 0xC4B9D, size: 0x8, addend: 0x0, symName: '__ZNSt3__19allocatorIZN20BGMDeviceControlSync8ActivateEvE3$_0EC1B8ne190102INS_10__function6__funcIS2_S3_FvvEEEEERKNS0_IT_EE', symObjAddr: 0x3074, symBinAddr: 0x100011D50, symSize: 0x34 }
  - { offset: 0xC4BDC, size: 0x8, addend: 0x0, symName: '__ZNSt3__110__function6__funcIZN20BGMDeviceControlSync8ActivateEvE3$_0NS_9allocatorIS3_EEFvvEEC1B8ne190102EOS3_OS5_', symObjAddr: 0x30A8, symBinAddr: 0x100011D84, symSize: 0x3C }
  - { offset: 0xC4C26, size: 0x8, addend: 0x0, symName: '__ZNSt3__19allocatorINS_10__function6__funcIZN20BGMDeviceControlSync8ActivateEvE3$_0NS0_IS4_EEFvvEEEEC2B8ne190102IS4_EERKNS0_IT_EE', symObjAddr: 0x30E4, symBinAddr: 0x100011DC0, symSize: 0x30 }
  - { offset: 0xC4C65, size: 0x8, addend: 0x0, symName: '__ZNSt3__116__non_trivial_ifILb1ENS_9allocatorINS_10__function6__funcIZN20BGMDeviceControlSync8ActivateEvE3$_0NS1_IS5_EEFvvEEEEEEC2B8ne190102Ev', symObjAddr: 0x3114, symBinAddr: 0x100011DF0, symSize: 0x14 }
  - { offset: 0xC4C8F, size: 0x8, addend: 0x0, symName: '__ZNSt3__19allocatorIZN20BGMDeviceControlSync8ActivateEvE3$_0EC2B8ne190102INS_10__function6__funcIS2_S3_FvvEEEEERKNS0_IT_EE', symObjAddr: 0x3128, symBinAddr: 0x100011E04, symSize: 0x30 }
  - { offset: 0xC4CCE, size: 0x8, addend: 0x0, symName: '__ZNSt3__110__function6__funcIZN20BGMDeviceControlSync8ActivateEvE3$_0NS_9allocatorIS3_EEFvvEEC2B8ne190102EOS3_OS5_', symObjAddr: 0x3158, symBinAddr: 0x100011E34, symSize: 0x80 }
  - { offset: 0xC4D18, size: 0x8, addend: 0x0, symName: '__ZNSt3__110__function12__alloc_funcIZN20BGMDeviceControlSync8ActivateEvE3$_0NS_9allocatorIS3_EEFvvEEC1B8ne190102EOS3_OS5_', symObjAddr: 0x31D8, symBinAddr: 0x100011EB4, symSize: 0x3C }
  - { offset: 0xC4D60, size: 0x8, addend: 0x0, symName: '__ZNSt3__110__function6__funcIZN20BGMDeviceControlSync8ActivateEvE3$_0NS_9allocatorIS3_EEFvvEED1Ev', symObjAddr: 0x3214, symBinAddr: 0x100011EF0, symSize: 0x2C }
  - { offset: 0xC4D8C, size: 0x8, addend: 0x0, symName: '__ZNSt3__110__function6__funcIZN20BGMDeviceControlSync8ActivateEvE3$_0NS_9allocatorIS3_EEFvvEED0Ev', symObjAddr: 0x3240, symBinAddr: 0x100011F1C, symSize: 0x30 }
  - { offset: 0xC4DB8, size: 0x8, addend: 0x0, symName: '__ZNKSt3__110__function6__funcIZN20BGMDeviceControlSync8ActivateEvE3$_0NS_9allocatorIS3_EEFvvEE7__cloneEv', symObjAddr: 0x3270, symBinAddr: 0x100011F4C, symSize: 0xFC }
  - { offset: 0xC4E0A, size: 0x8, addend: 0x0, symName: '__ZNKSt3__110__function6__funcIZN20BGMDeviceControlSync8ActivateEvE3$_0NS_9allocatorIS3_EEFvvEE7__cloneEPNS0_6__baseIS6_EE', symObjAddr: 0x336C, symBinAddr: 0x100012048, symSize: 0x58 }
  - { offset: 0xC4E40, size: 0x8, addend: 0x0, symName: '__ZNSt3__110__function6__funcIZN20BGMDeviceControlSync8ActivateEvE3$_0NS_9allocatorIS3_EEFvvEE7destroyEv', symObjAddr: 0x33C4, symBinAddr: 0x1000120A0, symSize: 0x28 }
  - { offset: 0xC4E66, size: 0x8, addend: 0x0, symName: '__ZNSt3__110__function6__funcIZN20BGMDeviceControlSync8ActivateEvE3$_0NS_9allocatorIS3_EEFvvEE18destroy_deallocateEv', symObjAddr: 0x33EC, symBinAddr: 0x1000120C8, symSize: 0x58 }
  - { offset: 0xC4EA8, size: 0x8, addend: 0x0, symName: '__ZNSt3__110__function6__funcIZN20BGMDeviceControlSync8ActivateEvE3$_0NS_9allocatorIS3_EEFvvEEclEv', symObjAddr: 0x3444, symBinAddr: 0x100012120, symSize: 0x28 }
  - { offset: 0xC4ECE, size: 0x8, addend: 0x0, symName: '__ZNKSt3__110__function6__funcIZN20BGMDeviceControlSync8ActivateEvE3$_0NS_9allocatorIS3_EEFvvEE6targetERKSt9type_info', symObjAddr: 0x346C, symBinAddr: 0x100012148, symSize: 0x60 }
  - { offset: 0xC4F04, size: 0x8, addend: 0x0, symName: '__ZNKSt3__110__function6__funcIZN20BGMDeviceControlSync8ActivateEvE3$_0NS_9allocatorIS3_EEFvvEE11target_typeEv', symObjAddr: 0x34CC, symBinAddr: 0x1000121A8, symSize: 0x18 }
  - { offset: 0xC4F2A, size: 0x8, addend: 0x0, symName: '__ZNSt3__110__function12__alloc_funcIZN20BGMDeviceControlSync8ActivateEvE3$_0NS_9allocatorIS3_EEFvvEEC2B8ne190102EOS3_OS5_', symObjAddr: 0x34E4, symBinAddr: 0x1000121C0, symSize: 0x5C }
  - { offset: 0xC4F72, size: 0x8, addend: 0x0, symName: '__ZNSt3__117__compressed_pairIZN20BGMDeviceControlSync8ActivateEvE3$_0NS_9allocatorIS2_EEEC1B8ne190102IJOS2_EJOS4_EEENS_21piecewise_construct_tENS_5tupleIJDpT_EEENSA_IJDpT0_EEE', symObjAddr: 0x3598, symBinAddr: 0x100012274, symSize: 0x3C }
  - { offset: 0xC4FE3, size: 0x8, addend: 0x0, symName: '__ZNSt3__15tupleIJOZN20BGMDeviceControlSync8ActivateEvE3$_0EEC1B8ne190102IJS2_ELi0EEEDpOT_', symObjAddr: 0x35D4, symBinAddr: 0x1000122B0, symSize: 0x34 }
  - { offset: 0xC5031, size: 0x8, addend: 0x0, symName: '__ZNSt3__15tupleIJOZN20BGMDeviceControlSync8ActivateEvE3$_0EEC2B8ne190102IJS2_ELi0EEEDpOT_', symObjAddr: 0x3608, symBinAddr: 0x1000122E4, symSize: 0x34 }
  - { offset: 0xC507F, size: 0x8, addend: 0x0, symName: '__ZNSt3__112__tuple_implINS_15__tuple_indicesIJLm0EEEEJOZN20BGMDeviceControlSync8ActivateEvE3$_0EEC1B8ne190102IJLm0EEJS5_EJEJEJS4_EEENS1_IJXspT_EEEENS_13__tuple_typesIJDpT0_EEENS1_IJXspT1_EEEENS9_IJDpT2_EEEDpOT3_', symObjAddr: 0x363C, symBinAddr: 0x100012318, symSize: 0x34 }
  - { offset: 0xC511D, size: 0x8, addend: 0x0, symName: '__ZNSt3__112__tuple_implINS_15__tuple_indicesIJLm0EEEEJOZN20BGMDeviceControlSync8ActivateEvE3$_0EEC2B8ne190102IJLm0EEJS5_EJEJEJS4_EEENS1_IJXspT_EEEENS_13__tuple_typesIJDpT0_EEENS1_IJXspT1_EEEENS9_IJDpT2_EEEDpOT3_', symObjAddr: 0x3670, symBinAddr: 0x10001234C, symSize: 0x34 }
  - { offset: 0xC51BB, size: 0x8, addend: 0x0, symName: '__ZNSt3__112__tuple_leafILm0EOZN20BGMDeviceControlSync8ActivateEvE3$_0Lb0EEC2B8ne190102IS2_Li0EEEOT_', symObjAddr: 0x36A4, symBinAddr: 0x100012380, symSize: 0x20 }
  - { offset: 0xC5206, size: 0x8, addend: 0x0, symName: '__ZNSt3__15tupleIJONS_9allocatorIZN20BGMDeviceControlSync8ActivateEvE3$_0EEEEC1B8ne190102IJS4_ELi0EEEDpOT_', symObjAddr: 0x36C4, symBinAddr: 0x1000123A0, symSize: 0x34 }
  - { offset: 0xC5254, size: 0x8, addend: 0x0, symName: '__ZNSt3__15tupleIJONS_9allocatorIZN20BGMDeviceControlSync8ActivateEvE3$_0EEEEC2B8ne190102IJS4_ELi0EEEDpOT_', symObjAddr: 0x36F8, symBinAddr: 0x1000123D4, symSize: 0x34 }
  - { offset: 0xC52A2, size: 0x8, addend: 0x0, symName: '__ZNSt3__112__tuple_implINS_15__tuple_indicesIJLm0EEEEJONS_9allocatorIZN20BGMDeviceControlSync8ActivateEvE3$_0EEEEC1B8ne190102IJLm0EEJS7_EJEJEJS6_EEENS1_IJXspT_EEEENS_13__tuple_typesIJDpT0_EEENS1_IJXspT1_EEEENSB_IJDpT2_EEEDpOT3_', symObjAddr: 0x372C, symBinAddr: 0x100012408, symSize: 0x34 }
  - { offset: 0xC5340, size: 0x8, addend: 0x0, symName: '__ZNSt3__112__tuple_implINS_15__tuple_indicesIJLm0EEEEJONS_9allocatorIZN20BGMDeviceControlSync8ActivateEvE3$_0EEEEC2B8ne190102IJLm0EEJS7_EJEJEJS6_EEENS1_IJXspT_EEEENS_13__tuple_typesIJDpT0_EEENS1_IJXspT1_EEEENSB_IJDpT2_EEEDpOT3_', symObjAddr: 0x3760, symBinAddr: 0x10001243C, symSize: 0x34 }
  - { offset: 0xC53DE, size: 0x8, addend: 0x0, symName: '__ZNSt3__112__tuple_leafILm0EONS_9allocatorIZN20BGMDeviceControlSync8ActivateEvE3$_0EELb0EEC2B8ne190102IS4_Li0EEEOT_', symObjAddr: 0x3794, symBinAddr: 0x100012470, symSize: 0x20 }
  - { offset: 0xC5429, size: 0x8, addend: 0x0, symName: '__ZNSt3__117__compressed_pairIZN20BGMDeviceControlSync8ActivateEvE3$_0NS_9allocatorIS2_EEEC2B8ne190102IJOS2_EJOS4_EEENS_21piecewise_construct_tENS_5tupleIJDpT_EEENSA_IJDpT0_EEE', symObjAddr: 0x37B4, symBinAddr: 0x100012490, symSize: 0x54 }
  - { offset: 0xC549A, size: 0x8, addend: 0x0, symName: '__ZNSt3__122__compressed_pair_elemIZN20BGMDeviceControlSync8ActivateEvE3$_0Li0ELb0EEC2B8ne190102IJOS2_EJLm0EEEENS_21piecewise_construct_tENS_5tupleIJDpT_EEENS_15__tuple_indicesIJXspT0_EEEE', symObjAddr: 0x3808, symBinAddr: 0x1000124E4, symSize: 0x44 }
  - { offset: 0xC5504, size: 0x8, addend: 0x0, symName: '__ZNSt3__122__compressed_pair_elemINS_9allocatorIZN20BGMDeviceControlSync8ActivateEvE3$_0EELi1ELb1EEC2B8ne190102IJOS4_EJLm0EEEENS_21piecewise_construct_tENS_5tupleIJDpT_EEENS_15__tuple_indicesIJXspT0_EEEE', symObjAddr: 0x384C, symBinAddr: 0x100012528, symSize: 0x38 }
  - { offset: 0xC556E, size: 0x8, addend: 0x0, symName: '__ZNSt3__112__tuple_leafILm0EOZN20BGMDeviceControlSync8ActivateEvE3$_0Lb0EE3getB8ne190102Ev', symObjAddr: 0x38A8, symBinAddr: 0x100012584, symSize: 0x18 }
  - { offset: 0xC5594, size: 0x8, addend: 0x0, symName: '__ZNSt3__112__tuple_leafILm0EONS_9allocatorIZN20BGMDeviceControlSync8ActivateEvE3$_0EELb0EE3getB8ne190102Ev', symObjAddr: 0x38E4, symBinAddr: 0x1000125C0, symSize: 0x18 }
  - { offset: 0xC55BA, size: 0x8, addend: 0x0, symName: '__ZNSt3__110__function6__funcIZN20BGMDeviceControlSync8ActivateEvE3$_0NS_9allocatorIS3_EEFvvEED2Ev', symObjAddr: 0x38FC, symBinAddr: 0x1000125D8, symSize: 0x2C }
  - { offset: 0xC55E6, size: 0x8, addend: 0x0, symName: '__ZNKSt3__110__function12__alloc_funcIZN20BGMDeviceControlSync8ActivateEvE3$_0NS_9allocatorIS3_EEFvvEE15__get_allocatorB8ne190102Ev', symObjAddr: 0x3928, symBinAddr: 0x100012604, symSize: 0x24 }
  - { offset: 0xC560C, size: 0x8, addend: 0x0, symName: '__ZNSt3__19allocatorINS_10__function6__funcIZN20BGMDeviceControlSync8ActivateEvE3$_0NS0_IS4_EEFvvEEEE8allocateB8ne190102Em', symObjAddr: 0x394C, symBinAddr: 0x100012628, symSize: 0x54 }
  - { offset: 0xC5652, size: 0x8, addend: 0x0, symName: '__ZNSt3__122__allocator_destructorINS_9allocatorINS_10__function6__funcIZN20BGMDeviceControlSync8ActivateEvE3$_0NS1_IS5_EEFvvEEEEEEC1B8ne190102ERS9_m', symObjAddr: 0x39A0, symBinAddr: 0x10001267C, symSize: 0x3C }
  - { offset: 0xC5730, size: 0x8, addend: 0x0, symName: '__ZNSt3__110unique_ptrINS_10__function6__funcIZN20BGMDeviceControlSync8ActivateEvE3$_0NS_9allocatorIS4_EEFvvEEENS_22__allocator_destructorINS5_IS8_EEEEEC1B8ne190102ILb1EvEEPS8_NS_16__dependent_typeINS_27__unique_ptr_deleter_sfinaeISB_EEXT_EE20__good_rval_ref_typeE', symObjAddr: 0x39DC, symBinAddr: 0x1000126B8, symSize: 0x3C }
  - { offset: 0xC5785, size: 0x8, addend: 0x0, symName: '__ZNKSt3__110unique_ptrINS_10__function6__funcIZN20BGMDeviceControlSync8ActivateEvE3$_0NS_9allocatorIS4_EEFvvEEENS_22__allocator_destructorINS5_IS8_EEEEE3getB8ne190102Ev', symObjAddr: 0x3A18, symBinAddr: 0x1000126F4, symSize: 0x28 }
  - { offset: 0xC57AB, size: 0x8, addend: 0x0, symName: '__ZNKSt3__110__function12__alloc_funcIZN20BGMDeviceControlSync8ActivateEvE3$_0NS_9allocatorIS3_EEFvvEE8__targetB8ne190102Ev', symObjAddr: 0x3A40, symBinAddr: 0x10001271C, symSize: 0x24 }
  - { offset: 0xC57D1, size: 0x8, addend: 0x0, symName: '__ZNSt3__110__function6__funcIZN20BGMDeviceControlSync8ActivateEvE3$_0NS_9allocatorIS3_EEFvvEEC1B8ne190102ERKS3_OS5_', symObjAddr: 0x3A64, symBinAddr: 0x100012740, symSize: 0x3C }
  - { offset: 0xC581B, size: 0x8, addend: 0x0, symName: '__ZNSt3__110unique_ptrINS_10__function6__funcIZN20BGMDeviceControlSync8ActivateEvE3$_0NS_9allocatorIS4_EEFvvEEENS_22__allocator_destructorINS5_IS8_EEEEE7releaseB8ne190102Ev', symObjAddr: 0x3AA0, symBinAddr: 0x10001277C, symSize: 0x44 }
  - { offset: 0xC5851, size: 0x8, addend: 0x0, symName: '__ZNSt3__110unique_ptrINS_10__function6__funcIZN20BGMDeviceControlSync8ActivateEvE3$_0NS_9allocatorIS4_EEFvvEEENS_22__allocator_destructorINS5_IS8_EEEEED1B8ne190102Ev', symObjAddr: 0x3AE4, symBinAddr: 0x1000127C0, symSize: 0x2C }
  - { offset: 0xC587B, size: 0x8, addend: 0x0, symName: '__ZNKSt3__117__compressed_pairIZN20BGMDeviceControlSync8ActivateEvE3$_0NS_9allocatorIS2_EEE6secondB8ne190102Ev', symObjAddr: 0x3B10, symBinAddr: 0x1000127EC, symSize: 0x24 }
  - { offset: 0xC58A1, size: 0x8, addend: 0x0, symName: '__ZNKSt3__122__compressed_pair_elemINS_9allocatorIZN20BGMDeviceControlSync8ActivateEvE3$_0EELi1ELb1EE5__getB8ne190102Ev', symObjAddr: 0x3B34, symBinAddr: 0x100012810, symSize: 0x14 }
  - { offset: 0xC58D2, size: 0x8, addend: 0x0, symName: '__ZNSt3__116allocator_traitsINS_9allocatorINS_10__function6__funcIZN20BGMDeviceControlSync8ActivateEvE3$_0NS1_IS5_EEFvvEEEEEE8max_sizeB8ne190102IS9_Li0EEEmRKS9_', symObjAddr: 0x3B48, symBinAddr: 0x100012824, symSize: 0x24 }
  - { offset: 0xC5908, size: 0x8, addend: 0x0, symName: '__ZNKSt3__19allocatorINS_10__function6__funcIZN20BGMDeviceControlSync8ActivateEvE3$_0NS0_IS4_EEFvvEEEE8max_sizeB8ne190102Ev', symObjAddr: 0x3B6C, symBinAddr: 0x100012848, symSize: 0x14 }
  - { offset: 0xC592E, size: 0x8, addend: 0x0, symName: '__ZNSt3__122__allocator_destructorINS_9allocatorINS_10__function6__funcIZN20BGMDeviceControlSync8ActivateEvE3$_0NS1_IS5_EEFvvEEEEEEC2B8ne190102ERS9_m', symObjAddr: 0x3B80, symBinAddr: 0x10001285C, symSize: 0x2C }
  - { offset: 0xC5976, size: 0x8, addend: 0x0, symName: '__ZNSt3__110unique_ptrINS_10__function6__funcIZN20BGMDeviceControlSync8ActivateEvE3$_0NS_9allocatorIS4_EEFvvEEENS_22__allocator_destructorINS5_IS8_EEEEEC2B8ne190102ILb1EvEEPS8_NS_16__dependent_typeINS_27__unique_ptr_deleter_sfinaeISB_EEXT_EE20__good_rval_ref_typeE', symObjAddr: 0x3BAC, symBinAddr: 0x100012888, symSize: 0x48 }
  - { offset: 0xC59CB, size: 0x8, addend: 0x0, symName: '__ZNSt3__117__compressed_pairIPNS_10__function6__funcIZN20BGMDeviceControlSync8ActivateEvE3$_0NS_9allocatorIS4_EEFvvEEENS_22__allocator_destructorINS5_IS8_EEEEEC1B8ne190102IRS9_SC_EEOT_OT0_', symObjAddr: 0x3BF4, symBinAddr: 0x1000128D0, symSize: 0x3C }
  - { offset: 0xC5A27, size: 0x8, addend: 0x0, symName: '__ZNSt3__117__compressed_pairIPNS_10__function6__funcIZN20BGMDeviceControlSync8ActivateEvE3$_0NS_9allocatorIS4_EEFvvEEENS_22__allocator_destructorINS5_IS8_EEEEEC2B8ne190102IRS9_SC_EEOT_OT0_', symObjAddr: 0x3C30, symBinAddr: 0x10001290C, symSize: 0x48 }
  - { offset: 0xC5A83, size: 0x8, addend: 0x0, symName: '__ZNSt3__122__compressed_pair_elemIPNS_10__function6__funcIZN20BGMDeviceControlSync8ActivateEvE3$_0NS_9allocatorIS4_EEFvvEEELi0ELb0EEC2B8ne190102IRS9_Li0EEEOT_', symObjAddr: 0x3C78, symBinAddr: 0x100012954, symSize: 0x24 }
  - { offset: 0xC5ACD, size: 0x8, addend: 0x0, symName: '__ZNSt3__122__compressed_pair_elemINS_22__allocator_destructorINS_9allocatorINS_10__function6__funcIZN20BGMDeviceControlSync8ActivateEvE3$_0NS2_IS6_EEFvvEEEEEEELi1ELb0EEC2B8ne190102ISB_Li0EEEOT_', symObjAddr: 0x3C9C, symBinAddr: 0x100012978, symSize: 0x24 }
  - { offset: 0xC5B17, size: 0x8, addend: 0x0, symName: '__ZNKSt3__117__compressed_pairIPNS_10__function6__funcIZN20BGMDeviceControlSync8ActivateEvE3$_0NS_9allocatorIS4_EEFvvEEENS_22__allocator_destructorINS5_IS8_EEEEE5firstB8ne190102Ev', symObjAddr: 0x3CC0, symBinAddr: 0x10001299C, symSize: 0x24 }
  - { offset: 0xC5B3D, size: 0x8, addend: 0x0, symName: '__ZNKSt3__122__compressed_pair_elemIPNS_10__function6__funcIZN20BGMDeviceControlSync8ActivateEvE3$_0NS_9allocatorIS4_EEFvvEEELi0ELb0EE5__getB8ne190102Ev', symObjAddr: 0x3CE4, symBinAddr: 0x1000129C0, symSize: 0x14 }
  - { offset: 0xC5B63, size: 0x8, addend: 0x0, symName: '__ZNKSt3__117__compressed_pairIZN20BGMDeviceControlSync8ActivateEvE3$_0NS_9allocatorIS2_EEE5firstB8ne190102Ev', symObjAddr: 0x3CF8, symBinAddr: 0x1000129D4, symSize: 0x24 }
  - { offset: 0xC5B89, size: 0x8, addend: 0x0, symName: '__ZNKSt3__122__compressed_pair_elemIZN20BGMDeviceControlSync8ActivateEvE3$_0Li0ELb0EE5__getB8ne190102Ev', symObjAddr: 0x3D1C, symBinAddr: 0x1000129F8, symSize: 0x14 }
  - { offset: 0xC5BAF, size: 0x8, addend: 0x0, symName: '__ZNSt3__110__function6__funcIZN20BGMDeviceControlSync8ActivateEvE3$_0NS_9allocatorIS3_EEFvvEEC2B8ne190102ERKS3_OS5_', symObjAddr: 0x3D30, symBinAddr: 0x100012A0C, symSize: 0x80 }
  - { offset: 0xC5BF9, size: 0x8, addend: 0x0, symName: '__ZNSt3__110__function12__alloc_funcIZN20BGMDeviceControlSync8ActivateEvE3$_0NS_9allocatorIS3_EEFvvEEC1B8ne190102ERKS3_OS5_', symObjAddr: 0x3DB0, symBinAddr: 0x100012A8C, symSize: 0x3C }
  - { offset: 0xC5C41, size: 0x8, addend: 0x0, symName: '__ZNSt3__110__function12__alloc_funcIZN20BGMDeviceControlSync8ActivateEvE3$_0NS_9allocatorIS3_EEFvvEEC2B8ne190102ERKS3_OS5_', symObjAddr: 0x3DEC, symBinAddr: 0x100012AC8, symSize: 0x5C }
  - { offset: 0xC5C89, size: 0x8, addend: 0x0, symName: '__ZNSt3__117__compressed_pairIZN20BGMDeviceControlSync8ActivateEvE3$_0NS_9allocatorIS2_EEEC1B8ne190102IJRKS2_EJOS4_EEENS_21piecewise_construct_tENS_5tupleIJDpT_EEENSB_IJDpT0_EEE', symObjAddr: 0x3E74, symBinAddr: 0x100012B50, symSize: 0x3C }
  - { offset: 0xC5CFA, size: 0x8, addend: 0x0, symName: '__ZNSt3__15tupleIJRKZN20BGMDeviceControlSync8ActivateEvE3$_0EEC1B8ne190102INS_4_AndELi0EEES4_', symObjAddr: 0x3EB0, symBinAddr: 0x100012B8C, symSize: 0x34 }
  - { offset: 0xC5D45, size: 0x8, addend: 0x0, symName: '__ZNSt3__15tupleIJRKZN20BGMDeviceControlSync8ActivateEvE3$_0EEC2B8ne190102INS_4_AndELi0EEES4_', symObjAddr: 0x3EE4, symBinAddr: 0x100012BC0, symSize: 0x34 }
  - { offset: 0xC5D90, size: 0x8, addend: 0x0, symName: '__ZNSt3__112__tuple_implINS_15__tuple_indicesIJLm0EEEEJRKZN20BGMDeviceControlSync8ActivateEvE3$_0EEC1B8ne190102IJLm0EEJS6_EJEJEJS6_EEENS1_IJXspT_EEEENS_13__tuple_typesIJDpT0_EEENS1_IJXspT1_EEEENSA_IJDpT2_EEEDpOT3_', symObjAddr: 0x3F18, symBinAddr: 0x100012BF4, symSize: 0x34 }
  - { offset: 0xC5E2E, size: 0x8, addend: 0x0, symName: '__ZNSt3__112__tuple_implINS_15__tuple_indicesIJLm0EEEEJRKZN20BGMDeviceControlSync8ActivateEvE3$_0EEC2B8ne190102IJLm0EEJS6_EJEJEJS6_EEENS1_IJXspT_EEEENS_13__tuple_typesIJDpT0_EEENS1_IJXspT1_EEEENSA_IJDpT2_EEEDpOT3_', symObjAddr: 0x3F4C, symBinAddr: 0x100012C28, symSize: 0x34 }
  - { offset: 0xC5ECC, size: 0x8, addend: 0x0, symName: '__ZNSt3__112__tuple_leafILm0ERKZN20BGMDeviceControlSync8ActivateEvE3$_0Lb0EEC2B8ne190102IS4_Li0EEEOT_', symObjAddr: 0x3F80, symBinAddr: 0x100012C5C, symSize: 0x20 }
  - { offset: 0xC5F17, size: 0x8, addend: 0x0, symName: '__ZNSt3__117__compressed_pairIZN20BGMDeviceControlSync8ActivateEvE3$_0NS_9allocatorIS2_EEEC2B8ne190102IJRKS2_EJOS4_EEENS_21piecewise_construct_tENS_5tupleIJDpT_EEENSB_IJDpT0_EEE', symObjAddr: 0x3FA0, symBinAddr: 0x100012C7C, symSize: 0x54 }
  - { offset: 0xC5F88, size: 0x8, addend: 0x0, symName: '__ZNSt3__122__compressed_pair_elemIZN20BGMDeviceControlSync8ActivateEvE3$_0Li0ELb0EEC2B8ne190102IJRKS2_EJLm0EEEENS_21piecewise_construct_tENS_5tupleIJDpT_EEENS_15__tuple_indicesIJXspT0_EEEE', symObjAddr: 0x3FF4, symBinAddr: 0x100012CD0, symSize: 0x44 }
  - { offset: 0xC5FF2, size: 0x8, addend: 0x0, symName: '__ZNSt3__112__tuple_leafILm0ERKZN20BGMDeviceControlSync8ActivateEvE3$_0Lb0EE3getB8ne190102Ev', symObjAddr: 0x405C, symBinAddr: 0x100012D38, symSize: 0x18 }
  - { offset: 0xC6018, size: 0x8, addend: 0x0, symName: '__ZNSt3__117__compressed_pairIPNS_10__function6__funcIZN20BGMDeviceControlSync8ActivateEvE3$_0NS_9allocatorIS4_EEFvvEEENS_22__allocator_destructorINS5_IS8_EEEEE5firstB8ne190102Ev', symObjAddr: 0x4074, symBinAddr: 0x100012D50, symSize: 0x24 }
  - { offset: 0xC603E, size: 0x8, addend: 0x0, symName: '__ZNSt3__122__compressed_pair_elemIPNS_10__function6__funcIZN20BGMDeviceControlSync8ActivateEvE3$_0NS_9allocatorIS4_EEFvvEEELi0ELb0EE5__getB8ne190102Ev', symObjAddr: 0x4098, symBinAddr: 0x100012D74, symSize: 0x14 }
  - { offset: 0xC6064, size: 0x8, addend: 0x0, symName: '__ZNSt3__110unique_ptrINS_10__function6__funcIZN20BGMDeviceControlSync8ActivateEvE3$_0NS_9allocatorIS4_EEFvvEEENS_22__allocator_destructorINS5_IS8_EEEEED2B8ne190102Ev', symObjAddr: 0x40AC, symBinAddr: 0x100012D88, symSize: 0x30 }
  - { offset: 0xC608E, size: 0x8, addend: 0x0, symName: '__ZNSt3__110unique_ptrINS_10__function6__funcIZN20BGMDeviceControlSync8ActivateEvE3$_0NS_9allocatorIS4_EEFvvEEENS_22__allocator_destructorINS5_IS8_EEEEE5resetB8ne190102EPS8_', symObjAddr: 0x40DC, symBinAddr: 0x100012DB8, symSize: 0x70 }
  - { offset: 0xC60D4, size: 0x8, addend: 0x0, symName: '__ZNSt3__117__compressed_pairIPNS_10__function6__funcIZN20BGMDeviceControlSync8ActivateEvE3$_0NS_9allocatorIS4_EEFvvEEENS_22__allocator_destructorINS5_IS8_EEEEE6secondB8ne190102Ev', symObjAddr: 0x414C, symBinAddr: 0x100012E28, symSize: 0x28 }
  - { offset: 0xC60FA, size: 0x8, addend: 0x0, symName: '__ZNSt3__122__allocator_destructorINS_9allocatorINS_10__function6__funcIZN20BGMDeviceControlSync8ActivateEvE3$_0NS1_IS5_EEFvvEEEEEEclB8ne190102EPS8_', symObjAddr: 0x4174, symBinAddr: 0x100012E50, symSize: 0x34 }
  - { offset: 0xC612F, size: 0x8, addend: 0x0, symName: '__ZNSt3__122__compressed_pair_elemINS_22__allocator_destructorINS_9allocatorINS_10__function6__funcIZN20BGMDeviceControlSync8ActivateEvE3$_0NS2_IS6_EEFvvEEEEEEELi1ELb0EE5__getB8ne190102Ev', symObjAddr: 0x41A8, symBinAddr: 0x100012E84, symSize: 0x14 }
  - { offset: 0xC6155, size: 0x8, addend: 0x0, symName: '__ZNSt3__116allocator_traitsINS_9allocatorINS_10__function6__funcIZN20BGMDeviceControlSync8ActivateEvE3$_0NS1_IS5_EEFvvEEEEEE10deallocateB8ne190102ERS9_PS8_m', symObjAddr: 0x41BC, symBinAddr: 0x100012E98, symSize: 0x34 }
  - { offset: 0xC619A, size: 0x8, addend: 0x0, symName: '__ZNSt3__19allocatorINS_10__function6__funcIZN20BGMDeviceControlSync8ActivateEvE3$_0NS0_IS4_EEFvvEEEE10deallocateB8ne190102EPS7_m', symObjAddr: 0x41F0, symBinAddr: 0x100012ECC, symSize: 0x40 }
  - { offset: 0xC61DE, size: 0x8, addend: 0x0, symName: '__ZNSt3__110__function6__funcIZN20BGMDeviceControlSync8ActivateEvE3$_0NS_9allocatorIS3_EEFvvEEC1B8ne190102ERKS3_RKS5_', symObjAddr: 0x4230, symBinAddr: 0x100012F0C, symSize: 0x3C }
  - { offset: 0xC6228, size: 0x8, addend: 0x0, symName: '__ZNSt3__110__function6__funcIZN20BGMDeviceControlSync8ActivateEvE3$_0NS_9allocatorIS3_EEFvvEEC2B8ne190102ERKS3_RKS5_', symObjAddr: 0x426C, symBinAddr: 0x100012F48, symSize: 0x80 }
  - { offset: 0xC6272, size: 0x8, addend: 0x0, symName: '__ZNSt3__110__function12__alloc_funcIZN20BGMDeviceControlSync8ActivateEvE3$_0NS_9allocatorIS3_EEFvvEEC1B8ne190102ERKS3_RKS5_', symObjAddr: 0x42EC, symBinAddr: 0x100012FC8, symSize: 0x3C }
  - { offset: 0xC62BA, size: 0x8, addend: 0x0, symName: '__ZNSt3__110__function12__alloc_funcIZN20BGMDeviceControlSync8ActivateEvE3$_0NS_9allocatorIS3_EEFvvEEC2B8ne190102ERKS3_RKS5_', symObjAddr: 0x4328, symBinAddr: 0x100013004, symSize: 0x5C }
  - { offset: 0xC6302, size: 0x8, addend: 0x0, symName: '__ZNSt3__117__compressed_pairIZN20BGMDeviceControlSync8ActivateEvE3$_0NS_9allocatorIS2_EEEC1B8ne190102IJRKS2_EJRKS4_EEENS_21piecewise_construct_tENS_5tupleIJDpT_EEENSC_IJDpT0_EEE', symObjAddr: 0x43B0, symBinAddr: 0x10001308C, symSize: 0x3C }
  - { offset: 0xC6373, size: 0x8, addend: 0x0, symName: '__ZNSt3__15tupleIJRKNS_9allocatorIZN20BGMDeviceControlSync8ActivateEvE3$_0EEEEC1B8ne190102INS_4_AndELi0EEES6_', symObjAddr: 0x43EC, symBinAddr: 0x1000130C8, symSize: 0x34 }
  - { offset: 0xC63BE, size: 0x8, addend: 0x0, symName: '__ZNSt3__15tupleIJRKNS_9allocatorIZN20BGMDeviceControlSync8ActivateEvE3$_0EEEEC2B8ne190102INS_4_AndELi0EEES6_', symObjAddr: 0x4420, symBinAddr: 0x1000130FC, symSize: 0x34 }
  - { offset: 0xC6409, size: 0x8, addend: 0x0, symName: '__ZNSt3__112__tuple_implINS_15__tuple_indicesIJLm0EEEEJRKNS_9allocatorIZN20BGMDeviceControlSync8ActivateEvE3$_0EEEEC1B8ne190102IJLm0EEJS8_EJEJEJS8_EEENS1_IJXspT_EEEENS_13__tuple_typesIJDpT0_EEENS1_IJXspT1_EEEENSC_IJDpT2_EEEDpOT3_', symObjAddr: 0x4454, symBinAddr: 0x100013130, symSize: 0x34 }
  - { offset: 0xC64A7, size: 0x8, addend: 0x0, symName: '__ZNSt3__112__tuple_implINS_15__tuple_indicesIJLm0EEEEJRKNS_9allocatorIZN20BGMDeviceControlSync8ActivateEvE3$_0EEEEC2B8ne190102IJLm0EEJS8_EJEJEJS8_EEENS1_IJXspT_EEEENS_13__tuple_typesIJDpT0_EEENS1_IJXspT1_EEEENSC_IJDpT2_EEEDpOT3_', symObjAddr: 0x4488, symBinAddr: 0x100013164, symSize: 0x34 }
  - { offset: 0xC6545, size: 0x8, addend: 0x0, symName: '__ZNSt3__112__tuple_leafILm0ERKNS_9allocatorIZN20BGMDeviceControlSync8ActivateEvE3$_0EELb0EEC2B8ne190102IS6_Li0EEEOT_', symObjAddr: 0x44BC, symBinAddr: 0x100013198, symSize: 0x20 }
  - { offset: 0xC6590, size: 0x8, addend: 0x0, symName: '__ZNSt3__117__compressed_pairIZN20BGMDeviceControlSync8ActivateEvE3$_0NS_9allocatorIS2_EEEC2B8ne190102IJRKS2_EJRKS4_EEENS_21piecewise_construct_tENS_5tupleIJDpT_EEENSC_IJDpT0_EEE', symObjAddr: 0x44DC, symBinAddr: 0x1000131B8, symSize: 0x54 }
  - { offset: 0xC6601, size: 0x8, addend: 0x0, symName: '__ZNSt3__122__compressed_pair_elemINS_9allocatorIZN20BGMDeviceControlSync8ActivateEvE3$_0EELi1ELb1EEC2B8ne190102IJRKS4_EJLm0EEEENS_21piecewise_construct_tENS_5tupleIJDpT_EEENS_15__tuple_indicesIJXspT0_EEEE', symObjAddr: 0x4530, symBinAddr: 0x10001320C, symSize: 0x38 }
  - { offset: 0xC666B, size: 0x8, addend: 0x0, symName: '__ZNSt3__112__tuple_leafILm0ERKNS_9allocatorIZN20BGMDeviceControlSync8ActivateEvE3$_0EELb0EE3getB8ne190102Ev', symObjAddr: 0x458C, symBinAddr: 0x100013268, symSize: 0x18 }
  - { offset: 0xC6691, size: 0x8, addend: 0x0, symName: '__ZNSt3__110__function12__alloc_funcIZN20BGMDeviceControlSync8ActivateEvE3$_0NS_9allocatorIS3_EEFvvEE7destroyB8ne190102Ev', symObjAddr: 0x45A4, symBinAddr: 0x100013280, symSize: 0x10 }
  - { offset: 0xC66B7, size: 0x8, addend: 0x0, symName: '__ZNSt3__110__function12__alloc_funcIZN20BGMDeviceControlSync8ActivateEvE3$_0NS_9allocatorIS3_EEFvvEEclB8ne190102Ev', symObjAddr: 0x45B4, symBinAddr: 0x100013290, symSize: 0x28 }
  - { offset: 0xC66DD, size: 0x8, addend: 0x0, symName: '__ZNSt3__128__invoke_void_return_wrapperIvLb1EE6__callB8ne190102IJRZN20BGMDeviceControlSync8ActivateEvE3$_0EEEvDpOT_', symObjAddr: 0x45DC, symBinAddr: 0x1000132B8, symSize: 0x24 }
  - { offset: 0xC670E, size: 0x8, addend: 0x0, symName: '__ZNSt3__117__compressed_pairIZN20BGMDeviceControlSync8ActivateEvE3$_0NS_9allocatorIS2_EEE5firstB8ne190102Ev', symObjAddr: 0x4600, symBinAddr: 0x1000132DC, symSize: 0x24 }
  - { offset: 0xC6739, size: 0x8, addend: 0x0, symName: '__ZZN20BGMDeviceControlSync8ActivateEvENK3$_0clEv', symObjAddr: 0x4648, symBinAddr: 0x100013324, symSize: 0x60 }
  - { offset: 0xC6772, size: 0x8, addend: 0x0, symName: '__ZNSt3__122__compressed_pair_elemIZN20BGMDeviceControlSync8ActivateEvE3$_0Li0ELb0EE5__getB8ne190102Ev', symObjAddr: 0x46CC, symBinAddr: 0x100013384, symSize: 0x14 }
  - { offset: 0xC6798, size: 0x8, addend: 0x0, symName: '__ZNSt3__18functionIFvvEEC2IZN20BGMDeviceControlSync10DeactivateEvE3$_0vEET_', symObjAddr: 0x46E0, symBinAddr: 0x100013398, symSize: 0x38 }
  - { offset: 0xC67DE, size: 0x8, addend: 0x0, symName: '__ZNSt3__110__function12__value_funcIFvvEEC1B8ne190102IZN20BGMDeviceControlSync10DeactivateEvE3$_0Li0EEEOT_', symObjAddr: 0x4718, symBinAddr: 0x1000133D0, symSize: 0x50 }
  - { offset: 0xC6829, size: 0x8, addend: 0x0, symName: '__ZNSt3__19allocatorIZN20BGMDeviceControlSync10DeactivateEvE3$_0EC1B8ne190102Ev', symObjAddr: 0x4768, symBinAddr: 0x100013420, symSize: 0x2C }
  - { offset: 0xC6853, size: 0x8, addend: 0x0, symName: '__ZNSt3__110__function12__value_funcIFvvEEC1B8ne190102IZN20BGMDeviceControlSync10DeactivateEvE3$_0NS_9allocatorIS6_EEEEOT_RKT0_', symObjAddr: 0x4794, symBinAddr: 0x10001344C, symSize: 0x3C }
  - { offset: 0xC68B1, size: 0x8, addend: 0x0, symName: '__ZNSt3__19allocatorIZN20BGMDeviceControlSync10DeactivateEvE3$_0EC2B8ne190102Ev', symObjAddr: 0x47D0, symBinAddr: 0x100013488, symSize: 0x2C }
  - { offset: 0xC68DB, size: 0x8, addend: 0x0, symName: '__ZNSt3__116__non_trivial_ifILb1ENS_9allocatorIZN20BGMDeviceControlSync10DeactivateEvE3$_0EEEC2B8ne190102Ev', symObjAddr: 0x47FC, symBinAddr: 0x1000134B4, symSize: 0x14 }
  - { offset: 0xC6905, size: 0x8, addend: 0x0, symName: '__ZNSt3__110__function12__value_funcIFvvEEC2B8ne190102IZN20BGMDeviceControlSync10DeactivateEvE3$_0NS_9allocatorIS6_EEEEOT_RKT0_', symObjAddr: 0x4810, symBinAddr: 0x1000134C8, symSize: 0x94 }
  - { offset: 0xC69B3, size: 0x8, addend: 0x0, symName: '__ZNSt3__19allocatorINS_10__function6__funcIZN20BGMDeviceControlSync10DeactivateEvE3$_0NS0_IS4_EEFvvEEEEC1B8ne190102IS4_EERKNS0_IT_EE', symObjAddr: 0x48BC, symBinAddr: 0x100013574, symSize: 0x34 }
  - { offset: 0xC69F8, size: 0x8, addend: 0x0, symName: '__ZNSt3__19allocatorIZN20BGMDeviceControlSync10DeactivateEvE3$_0EC1B8ne190102INS_10__function6__funcIS2_S3_FvvEEEEERKNS0_IT_EE', symObjAddr: 0x48F0, symBinAddr: 0x1000135A8, symSize: 0x34 }
  - { offset: 0xC6A37, size: 0x8, addend: 0x0, symName: '__ZNSt3__110__function6__funcIZN20BGMDeviceControlSync10DeactivateEvE3$_0NS_9allocatorIS3_EEFvvEEC1B8ne190102EOS3_OS5_', symObjAddr: 0x4924, symBinAddr: 0x1000135DC, symSize: 0x3C }
  - { offset: 0xC6A81, size: 0x8, addend: 0x0, symName: '__ZNSt3__19allocatorINS_10__function6__funcIZN20BGMDeviceControlSync10DeactivateEvE3$_0NS0_IS4_EEFvvEEEEC2B8ne190102IS4_EERKNS0_IT_EE', symObjAddr: 0x4960, symBinAddr: 0x100013618, symSize: 0x30 }
  - { offset: 0xC6AC0, size: 0x8, addend: 0x0, symName: '__ZNSt3__116__non_trivial_ifILb1ENS_9allocatorINS_10__function6__funcIZN20BGMDeviceControlSync10DeactivateEvE3$_0NS1_IS5_EEFvvEEEEEEC2B8ne190102Ev', symObjAddr: 0x4990, symBinAddr: 0x100013648, symSize: 0x14 }
  - { offset: 0xC6AEA, size: 0x8, addend: 0x0, symName: '__ZNSt3__19allocatorIZN20BGMDeviceControlSync10DeactivateEvE3$_0EC2B8ne190102INS_10__function6__funcIS2_S3_FvvEEEEERKNS0_IT_EE', symObjAddr: 0x49A4, symBinAddr: 0x10001365C, symSize: 0x30 }
  - { offset: 0xC6B29, size: 0x8, addend: 0x0, symName: '__ZNSt3__110__function6__funcIZN20BGMDeviceControlSync10DeactivateEvE3$_0NS_9allocatorIS3_EEFvvEEC2B8ne190102EOS3_OS5_', symObjAddr: 0x49D4, symBinAddr: 0x10001368C, symSize: 0x80 }
  - { offset: 0xC6B73, size: 0x8, addend: 0x0, symName: '__ZNSt3__110__function12__alloc_funcIZN20BGMDeviceControlSync10DeactivateEvE3$_0NS_9allocatorIS3_EEFvvEEC1B8ne190102EOS3_OS5_', symObjAddr: 0x4A54, symBinAddr: 0x10001370C, symSize: 0x3C }
  - { offset: 0xC6BBB, size: 0x8, addend: 0x0, symName: '__ZNSt3__110__function6__funcIZN20BGMDeviceControlSync10DeactivateEvE3$_0NS_9allocatorIS3_EEFvvEED1Ev', symObjAddr: 0x4A90, symBinAddr: 0x100013748, symSize: 0x2C }
  - { offset: 0xC6BE7, size: 0x8, addend: 0x0, symName: '__ZNSt3__110__function6__funcIZN20BGMDeviceControlSync10DeactivateEvE3$_0NS_9allocatorIS3_EEFvvEED0Ev', symObjAddr: 0x4ABC, symBinAddr: 0x100013774, symSize: 0x30 }
  - { offset: 0xC6C13, size: 0x8, addend: 0x0, symName: '__ZNKSt3__110__function6__funcIZN20BGMDeviceControlSync10DeactivateEvE3$_0NS_9allocatorIS3_EEFvvEE7__cloneEv', symObjAddr: 0x4AEC, symBinAddr: 0x1000137A4, symSize: 0xFC }
  - { offset: 0xC6C65, size: 0x8, addend: 0x0, symName: '__ZNKSt3__110__function6__funcIZN20BGMDeviceControlSync10DeactivateEvE3$_0NS_9allocatorIS3_EEFvvEE7__cloneEPNS0_6__baseIS6_EE', symObjAddr: 0x4BE8, symBinAddr: 0x1000138A0, symSize: 0x58 }
  - { offset: 0xC6C9B, size: 0x8, addend: 0x0, symName: '__ZNSt3__110__function6__funcIZN20BGMDeviceControlSync10DeactivateEvE3$_0NS_9allocatorIS3_EEFvvEE7destroyEv', symObjAddr: 0x4C40, symBinAddr: 0x1000138F8, symSize: 0x28 }
  - { offset: 0xC6CC1, size: 0x8, addend: 0x0, symName: '__ZNSt3__110__function6__funcIZN20BGMDeviceControlSync10DeactivateEvE3$_0NS_9allocatorIS3_EEFvvEE18destroy_deallocateEv', symObjAddr: 0x4C68, symBinAddr: 0x100013920, symSize: 0x58 }
  - { offset: 0xC6D03, size: 0x8, addend: 0x0, symName: '__ZNSt3__110__function6__funcIZN20BGMDeviceControlSync10DeactivateEvE3$_0NS_9allocatorIS3_EEFvvEEclEv', symObjAddr: 0x4CC0, symBinAddr: 0x100013978, symSize: 0x28 }
  - { offset: 0xC6D29, size: 0x8, addend: 0x0, symName: '__ZNKSt3__110__function6__funcIZN20BGMDeviceControlSync10DeactivateEvE3$_0NS_9allocatorIS3_EEFvvEE6targetERKSt9type_info', symObjAddr: 0x4CE8, symBinAddr: 0x1000139A0, symSize: 0x60 }
  - { offset: 0xC6D5F, size: 0x8, addend: 0x0, symName: '__ZNKSt3__110__function6__funcIZN20BGMDeviceControlSync10DeactivateEvE3$_0NS_9allocatorIS3_EEFvvEE11target_typeEv', symObjAddr: 0x4D48, symBinAddr: 0x100013A00, symSize: 0x18 }
  - { offset: 0xC6D85, size: 0x8, addend: 0x0, symName: '__ZNSt3__110__function12__alloc_funcIZN20BGMDeviceControlSync10DeactivateEvE3$_0NS_9allocatorIS3_EEFvvEEC2B8ne190102EOS3_OS5_', symObjAddr: 0x4D60, symBinAddr: 0x100013A18, symSize: 0x5C }
  - { offset: 0xC6DCD, size: 0x8, addend: 0x0, symName: '__ZNSt3__117__compressed_pairIZN20BGMDeviceControlSync10DeactivateEvE3$_0NS_9allocatorIS2_EEEC1B8ne190102IJOS2_EJOS4_EEENS_21piecewise_construct_tENS_5tupleIJDpT_EEENSA_IJDpT0_EEE', symObjAddr: 0x4E14, symBinAddr: 0x100013ACC, symSize: 0x3C }
  - { offset: 0xC6E3E, size: 0x8, addend: 0x0, symName: '__ZNSt3__15tupleIJOZN20BGMDeviceControlSync10DeactivateEvE3$_0EEC1B8ne190102IJS2_ELi0EEEDpOT_', symObjAddr: 0x4E50, symBinAddr: 0x100013B08, symSize: 0x34 }
  - { offset: 0xC6E8C, size: 0x8, addend: 0x0, symName: '__ZNSt3__15tupleIJOZN20BGMDeviceControlSync10DeactivateEvE3$_0EEC2B8ne190102IJS2_ELi0EEEDpOT_', symObjAddr: 0x4E84, symBinAddr: 0x100013B3C, symSize: 0x34 }
  - { offset: 0xC6EDA, size: 0x8, addend: 0x0, symName: '__ZNSt3__112__tuple_implINS_15__tuple_indicesIJLm0EEEEJOZN20BGMDeviceControlSync10DeactivateEvE3$_0EEC1B8ne190102IJLm0EEJS5_EJEJEJS4_EEENS1_IJXspT_EEEENS_13__tuple_typesIJDpT0_EEENS1_IJXspT1_EEEENS9_IJDpT2_EEEDpOT3_', symObjAddr: 0x4EB8, symBinAddr: 0x100013B70, symSize: 0x34 }
  - { offset: 0xC6F78, size: 0x8, addend: 0x0, symName: '__ZNSt3__112__tuple_implINS_15__tuple_indicesIJLm0EEEEJOZN20BGMDeviceControlSync10DeactivateEvE3$_0EEC2B8ne190102IJLm0EEJS5_EJEJEJS4_EEENS1_IJXspT_EEEENS_13__tuple_typesIJDpT0_EEENS1_IJXspT1_EEEENS9_IJDpT2_EEEDpOT3_', symObjAddr: 0x4EEC, symBinAddr: 0x100013BA4, symSize: 0x34 }
  - { offset: 0xC7016, size: 0x8, addend: 0x0, symName: '__ZNSt3__112__tuple_leafILm0EOZN20BGMDeviceControlSync10DeactivateEvE3$_0Lb0EEC2B8ne190102IS2_Li0EEEOT_', symObjAddr: 0x4F20, symBinAddr: 0x100013BD8, symSize: 0x20 }
  - { offset: 0xC7061, size: 0x8, addend: 0x0, symName: '__ZNSt3__15tupleIJONS_9allocatorIZN20BGMDeviceControlSync10DeactivateEvE3$_0EEEEC1B8ne190102IJS4_ELi0EEEDpOT_', symObjAddr: 0x4F40, symBinAddr: 0x100013BF8, symSize: 0x34 }
  - { offset: 0xC70AF, size: 0x8, addend: 0x0, symName: '__ZNSt3__15tupleIJONS_9allocatorIZN20BGMDeviceControlSync10DeactivateEvE3$_0EEEEC2B8ne190102IJS4_ELi0EEEDpOT_', symObjAddr: 0x4F74, symBinAddr: 0x100013C2C, symSize: 0x34 }
  - { offset: 0xC70FD, size: 0x8, addend: 0x0, symName: '__ZNSt3__112__tuple_implINS_15__tuple_indicesIJLm0EEEEJONS_9allocatorIZN20BGMDeviceControlSync10DeactivateEvE3$_0EEEEC1B8ne190102IJLm0EEJS7_EJEJEJS6_EEENS1_IJXspT_EEEENS_13__tuple_typesIJDpT0_EEENS1_IJXspT1_EEEENSB_IJDpT2_EEEDpOT3_', symObjAddr: 0x4FA8, symBinAddr: 0x100013C60, symSize: 0x34 }
  - { offset: 0xC719B, size: 0x8, addend: 0x0, symName: '__ZNSt3__112__tuple_implINS_15__tuple_indicesIJLm0EEEEJONS_9allocatorIZN20BGMDeviceControlSync10DeactivateEvE3$_0EEEEC2B8ne190102IJLm0EEJS7_EJEJEJS6_EEENS1_IJXspT_EEEENS_13__tuple_typesIJDpT0_EEENS1_IJXspT1_EEEENSB_IJDpT2_EEEDpOT3_', symObjAddr: 0x4FDC, symBinAddr: 0x100013C94, symSize: 0x34 }
  - { offset: 0xC7239, size: 0x8, addend: 0x0, symName: '__ZNSt3__112__tuple_leafILm0EONS_9allocatorIZN20BGMDeviceControlSync10DeactivateEvE3$_0EELb0EEC2B8ne190102IS4_Li0EEEOT_', symObjAddr: 0x5010, symBinAddr: 0x100013CC8, symSize: 0x20 }
  - { offset: 0xC7284, size: 0x8, addend: 0x0, symName: '__ZNSt3__117__compressed_pairIZN20BGMDeviceControlSync10DeactivateEvE3$_0NS_9allocatorIS2_EEEC2B8ne190102IJOS2_EJOS4_EEENS_21piecewise_construct_tENS_5tupleIJDpT_EEENSA_IJDpT0_EEE', symObjAddr: 0x5030, symBinAddr: 0x100013CE8, symSize: 0x54 }
  - { offset: 0xC72F5, size: 0x8, addend: 0x0, symName: '__ZNSt3__122__compressed_pair_elemIZN20BGMDeviceControlSync10DeactivateEvE3$_0Li0ELb0EEC2B8ne190102IJOS2_EJLm0EEEENS_21piecewise_construct_tENS_5tupleIJDpT_EEENS_15__tuple_indicesIJXspT0_EEEE', symObjAddr: 0x5084, symBinAddr: 0x100013D3C, symSize: 0x44 }
  - { offset: 0xC735F, size: 0x8, addend: 0x0, symName: '__ZNSt3__122__compressed_pair_elemINS_9allocatorIZN20BGMDeviceControlSync10DeactivateEvE3$_0EELi1ELb1EEC2B8ne190102IJOS4_EJLm0EEEENS_21piecewise_construct_tENS_5tupleIJDpT_EEENS_15__tuple_indicesIJXspT0_EEEE', symObjAddr: 0x50C8, symBinAddr: 0x100013D80, symSize: 0x38 }
  - { offset: 0xC73C9, size: 0x8, addend: 0x0, symName: '__ZNSt3__112__tuple_leafILm0EOZN20BGMDeviceControlSync10DeactivateEvE3$_0Lb0EE3getB8ne190102Ev', symObjAddr: 0x5124, symBinAddr: 0x100013DDC, symSize: 0x18 }
  - { offset: 0xC73EF, size: 0x8, addend: 0x0, symName: '__ZNSt3__112__tuple_leafILm0EONS_9allocatorIZN20BGMDeviceControlSync10DeactivateEvE3$_0EELb0EE3getB8ne190102Ev', symObjAddr: 0x5160, symBinAddr: 0x100013E18, symSize: 0x18 }
  - { offset: 0xC7415, size: 0x8, addend: 0x0, symName: '__ZNSt3__110__function6__funcIZN20BGMDeviceControlSync10DeactivateEvE3$_0NS_9allocatorIS3_EEFvvEED2Ev', symObjAddr: 0x5178, symBinAddr: 0x100013E30, symSize: 0x2C }
  - { offset: 0xC7441, size: 0x8, addend: 0x0, symName: '__ZNKSt3__110__function12__alloc_funcIZN20BGMDeviceControlSync10DeactivateEvE3$_0NS_9allocatorIS3_EEFvvEE15__get_allocatorB8ne190102Ev', symObjAddr: 0x51A4, symBinAddr: 0x100013E5C, symSize: 0x24 }
  - { offset: 0xC7467, size: 0x8, addend: 0x0, symName: '__ZNSt3__19allocatorINS_10__function6__funcIZN20BGMDeviceControlSync10DeactivateEvE3$_0NS0_IS4_EEFvvEEEE8allocateB8ne190102Em', symObjAddr: 0x51C8, symBinAddr: 0x100013E80, symSize: 0x54 }
  - { offset: 0xC74AD, size: 0x8, addend: 0x0, symName: '__ZNSt3__122__allocator_destructorINS_9allocatorINS_10__function6__funcIZN20BGMDeviceControlSync10DeactivateEvE3$_0NS1_IS5_EEFvvEEEEEEC1B8ne190102ERS9_m', symObjAddr: 0x521C, symBinAddr: 0x100013ED4, symSize: 0x3C }
  - { offset: 0xC758B, size: 0x8, addend: 0x0, symName: '__ZNSt3__110unique_ptrINS_10__function6__funcIZN20BGMDeviceControlSync10DeactivateEvE3$_0NS_9allocatorIS4_EEFvvEEENS_22__allocator_destructorINS5_IS8_EEEEEC1B8ne190102ILb1EvEEPS8_NS_16__dependent_typeINS_27__unique_ptr_deleter_sfinaeISB_EEXT_EE20__good_rval_ref_typeE', symObjAddr: 0x5258, symBinAddr: 0x100013F10, symSize: 0x3C }
  - { offset: 0xC75E0, size: 0x8, addend: 0x0, symName: '__ZNKSt3__110unique_ptrINS_10__function6__funcIZN20BGMDeviceControlSync10DeactivateEvE3$_0NS_9allocatorIS4_EEFvvEEENS_22__allocator_destructorINS5_IS8_EEEEE3getB8ne190102Ev', symObjAddr: 0x5294, symBinAddr: 0x100013F4C, symSize: 0x28 }
  - { offset: 0xC7606, size: 0x8, addend: 0x0, symName: '__ZNKSt3__110__function12__alloc_funcIZN20BGMDeviceControlSync10DeactivateEvE3$_0NS_9allocatorIS3_EEFvvEE8__targetB8ne190102Ev', symObjAddr: 0x52BC, symBinAddr: 0x100013F74, symSize: 0x24 }
  - { offset: 0xC762C, size: 0x8, addend: 0x0, symName: '__ZNSt3__110__function6__funcIZN20BGMDeviceControlSync10DeactivateEvE3$_0NS_9allocatorIS3_EEFvvEEC1B8ne190102ERKS3_OS5_', symObjAddr: 0x52E0, symBinAddr: 0x100013F98, symSize: 0x3C }
  - { offset: 0xC7676, size: 0x8, addend: 0x0, symName: '__ZNSt3__110unique_ptrINS_10__function6__funcIZN20BGMDeviceControlSync10DeactivateEvE3$_0NS_9allocatorIS4_EEFvvEEENS_22__allocator_destructorINS5_IS8_EEEEE7releaseB8ne190102Ev', symObjAddr: 0x531C, symBinAddr: 0x100013FD4, symSize: 0x44 }
  - { offset: 0xC76AC, size: 0x8, addend: 0x0, symName: '__ZNSt3__110unique_ptrINS_10__function6__funcIZN20BGMDeviceControlSync10DeactivateEvE3$_0NS_9allocatorIS4_EEFvvEEENS_22__allocator_destructorINS5_IS8_EEEEED1B8ne190102Ev', symObjAddr: 0x5360, symBinAddr: 0x100014018, symSize: 0x2C }
  - { offset: 0xC76D6, size: 0x8, addend: 0x0, symName: '__ZNKSt3__117__compressed_pairIZN20BGMDeviceControlSync10DeactivateEvE3$_0NS_9allocatorIS2_EEE6secondB8ne190102Ev', symObjAddr: 0x538C, symBinAddr: 0x100014044, symSize: 0x24 }
  - { offset: 0xC76FC, size: 0x8, addend: 0x0, symName: '__ZNKSt3__122__compressed_pair_elemINS_9allocatorIZN20BGMDeviceControlSync10DeactivateEvE3$_0EELi1ELb1EE5__getB8ne190102Ev', symObjAddr: 0x53B0, symBinAddr: 0x100014068, symSize: 0x14 }
  - { offset: 0xC772D, size: 0x8, addend: 0x0, symName: '__ZNSt3__116allocator_traitsINS_9allocatorINS_10__function6__funcIZN20BGMDeviceControlSync10DeactivateEvE3$_0NS1_IS5_EEFvvEEEEEE8max_sizeB8ne190102IS9_Li0EEEmRKS9_', symObjAddr: 0x53C4, symBinAddr: 0x10001407C, symSize: 0x24 }
  - { offset: 0xC7763, size: 0x8, addend: 0x0, symName: '__ZNKSt3__19allocatorINS_10__function6__funcIZN20BGMDeviceControlSync10DeactivateEvE3$_0NS0_IS4_EEFvvEEEE8max_sizeB8ne190102Ev', symObjAddr: 0x53E8, symBinAddr: 0x1000140A0, symSize: 0x14 }
  - { offset: 0xC7789, size: 0x8, addend: 0x0, symName: '__ZNSt3__122__allocator_destructorINS_9allocatorINS_10__function6__funcIZN20BGMDeviceControlSync10DeactivateEvE3$_0NS1_IS5_EEFvvEEEEEEC2B8ne190102ERS9_m', symObjAddr: 0x53FC, symBinAddr: 0x1000140B4, symSize: 0x2C }
  - { offset: 0xC77D1, size: 0x8, addend: 0x0, symName: '__ZNSt3__110unique_ptrINS_10__function6__funcIZN20BGMDeviceControlSync10DeactivateEvE3$_0NS_9allocatorIS4_EEFvvEEENS_22__allocator_destructorINS5_IS8_EEEEEC2B8ne190102ILb1EvEEPS8_NS_16__dependent_typeINS_27__unique_ptr_deleter_sfinaeISB_EEXT_EE20__good_rval_ref_typeE', symObjAddr: 0x5428, symBinAddr: 0x1000140E0, symSize: 0x48 }
  - { offset: 0xC7826, size: 0x8, addend: 0x0, symName: '__ZNSt3__117__compressed_pairIPNS_10__function6__funcIZN20BGMDeviceControlSync10DeactivateEvE3$_0NS_9allocatorIS4_EEFvvEEENS_22__allocator_destructorINS5_IS8_EEEEEC1B8ne190102IRS9_SC_EEOT_OT0_', symObjAddr: 0x5470, symBinAddr: 0x100014128, symSize: 0x3C }
  - { offset: 0xC7882, size: 0x8, addend: 0x0, symName: '__ZNSt3__117__compressed_pairIPNS_10__function6__funcIZN20BGMDeviceControlSync10DeactivateEvE3$_0NS_9allocatorIS4_EEFvvEEENS_22__allocator_destructorINS5_IS8_EEEEEC2B8ne190102IRS9_SC_EEOT_OT0_', symObjAddr: 0x54AC, symBinAddr: 0x100014164, symSize: 0x48 }
  - { offset: 0xC78DE, size: 0x8, addend: 0x0, symName: '__ZNSt3__122__compressed_pair_elemIPNS_10__function6__funcIZN20BGMDeviceControlSync10DeactivateEvE3$_0NS_9allocatorIS4_EEFvvEEELi0ELb0EEC2B8ne190102IRS9_Li0EEEOT_', symObjAddr: 0x54F4, symBinAddr: 0x1000141AC, symSize: 0x24 }
  - { offset: 0xC7928, size: 0x8, addend: 0x0, symName: '__ZNSt3__122__compressed_pair_elemINS_22__allocator_destructorINS_9allocatorINS_10__function6__funcIZN20BGMDeviceControlSync10DeactivateEvE3$_0NS2_IS6_EEFvvEEEEEEELi1ELb0EEC2B8ne190102ISB_Li0EEEOT_', symObjAddr: 0x5518, symBinAddr: 0x1000141D0, symSize: 0x24 }
  - { offset: 0xC7972, size: 0x8, addend: 0x0, symName: '__ZNKSt3__117__compressed_pairIPNS_10__function6__funcIZN20BGMDeviceControlSync10DeactivateEvE3$_0NS_9allocatorIS4_EEFvvEEENS_22__allocator_destructorINS5_IS8_EEEEE5firstB8ne190102Ev', symObjAddr: 0x553C, symBinAddr: 0x1000141F4, symSize: 0x24 }
  - { offset: 0xC7998, size: 0x8, addend: 0x0, symName: '__ZNKSt3__122__compressed_pair_elemIPNS_10__function6__funcIZN20BGMDeviceControlSync10DeactivateEvE3$_0NS_9allocatorIS4_EEFvvEEELi0ELb0EE5__getB8ne190102Ev', symObjAddr: 0x5560, symBinAddr: 0x100014218, symSize: 0x14 }
  - { offset: 0xC79BE, size: 0x8, addend: 0x0, symName: '__ZNKSt3__117__compressed_pairIZN20BGMDeviceControlSync10DeactivateEvE3$_0NS_9allocatorIS2_EEE5firstB8ne190102Ev', symObjAddr: 0x5574, symBinAddr: 0x10001422C, symSize: 0x24 }
  - { offset: 0xC79E4, size: 0x8, addend: 0x0, symName: '__ZNKSt3__122__compressed_pair_elemIZN20BGMDeviceControlSync10DeactivateEvE3$_0Li0ELb0EE5__getB8ne190102Ev', symObjAddr: 0x5598, symBinAddr: 0x100014250, symSize: 0x14 }
  - { offset: 0xC7A0A, size: 0x8, addend: 0x0, symName: '__ZNSt3__110__function6__funcIZN20BGMDeviceControlSync10DeactivateEvE3$_0NS_9allocatorIS3_EEFvvEEC2B8ne190102ERKS3_OS5_', symObjAddr: 0x55AC, symBinAddr: 0x100014264, symSize: 0x80 }
  - { offset: 0xC7A54, size: 0x8, addend: 0x0, symName: '__ZNSt3__110__function12__alloc_funcIZN20BGMDeviceControlSync10DeactivateEvE3$_0NS_9allocatorIS3_EEFvvEEC1B8ne190102ERKS3_OS5_', symObjAddr: 0x562C, symBinAddr: 0x1000142E4, symSize: 0x3C }
  - { offset: 0xC7A9C, size: 0x8, addend: 0x0, symName: '__ZNSt3__110__function12__alloc_funcIZN20BGMDeviceControlSync10DeactivateEvE3$_0NS_9allocatorIS3_EEFvvEEC2B8ne190102ERKS3_OS5_', symObjAddr: 0x5668, symBinAddr: 0x100014320, symSize: 0x5C }
  - { offset: 0xC7AE4, size: 0x8, addend: 0x0, symName: '__ZNSt3__117__compressed_pairIZN20BGMDeviceControlSync10DeactivateEvE3$_0NS_9allocatorIS2_EEEC1B8ne190102IJRKS2_EJOS4_EEENS_21piecewise_construct_tENS_5tupleIJDpT_EEENSB_IJDpT0_EEE', symObjAddr: 0x56F0, symBinAddr: 0x1000143A8, symSize: 0x3C }
  - { offset: 0xC7B55, size: 0x8, addend: 0x0, symName: '__ZNSt3__15tupleIJRKZN20BGMDeviceControlSync10DeactivateEvE3$_0EEC1B8ne190102INS_4_AndELi0EEES4_', symObjAddr: 0x572C, symBinAddr: 0x1000143E4, symSize: 0x34 }
  - { offset: 0xC7BA0, size: 0x8, addend: 0x0, symName: '__ZNSt3__15tupleIJRKZN20BGMDeviceControlSync10DeactivateEvE3$_0EEC2B8ne190102INS_4_AndELi0EEES4_', symObjAddr: 0x5760, symBinAddr: 0x100014418, symSize: 0x34 }
  - { offset: 0xC7BEB, size: 0x8, addend: 0x0, symName: '__ZNSt3__112__tuple_implINS_15__tuple_indicesIJLm0EEEEJRKZN20BGMDeviceControlSync10DeactivateEvE3$_0EEC1B8ne190102IJLm0EEJS6_EJEJEJS6_EEENS1_IJXspT_EEEENS_13__tuple_typesIJDpT0_EEENS1_IJXspT1_EEEENSA_IJDpT2_EEEDpOT3_', symObjAddr: 0x5794, symBinAddr: 0x10001444C, symSize: 0x34 }
  - { offset: 0xC7C89, size: 0x8, addend: 0x0, symName: '__ZNSt3__112__tuple_implINS_15__tuple_indicesIJLm0EEEEJRKZN20BGMDeviceControlSync10DeactivateEvE3$_0EEC2B8ne190102IJLm0EEJS6_EJEJEJS6_EEENS1_IJXspT_EEEENS_13__tuple_typesIJDpT0_EEENS1_IJXspT1_EEEENSA_IJDpT2_EEEDpOT3_', symObjAddr: 0x57C8, symBinAddr: 0x100014480, symSize: 0x34 }
  - { offset: 0xC7D27, size: 0x8, addend: 0x0, symName: '__ZNSt3__112__tuple_leafILm0ERKZN20BGMDeviceControlSync10DeactivateEvE3$_0Lb0EEC2B8ne190102IS4_Li0EEEOT_', symObjAddr: 0x57FC, symBinAddr: 0x1000144B4, symSize: 0x20 }
  - { offset: 0xC7D72, size: 0x8, addend: 0x0, symName: '__ZNSt3__117__compressed_pairIZN20BGMDeviceControlSync10DeactivateEvE3$_0NS_9allocatorIS2_EEEC2B8ne190102IJRKS2_EJOS4_EEENS_21piecewise_construct_tENS_5tupleIJDpT_EEENSB_IJDpT0_EEE', symObjAddr: 0x581C, symBinAddr: 0x1000144D4, symSize: 0x54 }
  - { offset: 0xC7DE3, size: 0x8, addend: 0x0, symName: '__ZNSt3__122__compressed_pair_elemIZN20BGMDeviceControlSync10DeactivateEvE3$_0Li0ELb0EEC2B8ne190102IJRKS2_EJLm0EEEENS_21piecewise_construct_tENS_5tupleIJDpT_EEENS_15__tuple_indicesIJXspT0_EEEE', symObjAddr: 0x5870, symBinAddr: 0x100014528, symSize: 0x44 }
  - { offset: 0xC7E4D, size: 0x8, addend: 0x0, symName: '__ZNSt3__112__tuple_leafILm0ERKZN20BGMDeviceControlSync10DeactivateEvE3$_0Lb0EE3getB8ne190102Ev', symObjAddr: 0x58D8, symBinAddr: 0x100014590, symSize: 0x18 }
  - { offset: 0xC7E73, size: 0x8, addend: 0x0, symName: '__ZNSt3__117__compressed_pairIPNS_10__function6__funcIZN20BGMDeviceControlSync10DeactivateEvE3$_0NS_9allocatorIS4_EEFvvEEENS_22__allocator_destructorINS5_IS8_EEEEE5firstB8ne190102Ev', symObjAddr: 0x58F0, symBinAddr: 0x1000145A8, symSize: 0x24 }
  - { offset: 0xC7E99, size: 0x8, addend: 0x0, symName: '__ZNSt3__122__compressed_pair_elemIPNS_10__function6__funcIZN20BGMDeviceControlSync10DeactivateEvE3$_0NS_9allocatorIS4_EEFvvEEELi0ELb0EE5__getB8ne190102Ev', symObjAddr: 0x5914, symBinAddr: 0x1000145CC, symSize: 0x14 }
  - { offset: 0xC7EBF, size: 0x8, addend: 0x0, symName: '__ZNSt3__110unique_ptrINS_10__function6__funcIZN20BGMDeviceControlSync10DeactivateEvE3$_0NS_9allocatorIS4_EEFvvEEENS_22__allocator_destructorINS5_IS8_EEEEED2B8ne190102Ev', symObjAddr: 0x5928, symBinAddr: 0x1000145E0, symSize: 0x30 }
  - { offset: 0xC7EE9, size: 0x8, addend: 0x0, symName: '__ZNSt3__110unique_ptrINS_10__function6__funcIZN20BGMDeviceControlSync10DeactivateEvE3$_0NS_9allocatorIS4_EEFvvEEENS_22__allocator_destructorINS5_IS8_EEEEE5resetB8ne190102EPS8_', symObjAddr: 0x5958, symBinAddr: 0x100014610, symSize: 0x70 }
  - { offset: 0xC7F2F, size: 0x8, addend: 0x0, symName: '__ZNSt3__117__compressed_pairIPNS_10__function6__funcIZN20BGMDeviceControlSync10DeactivateEvE3$_0NS_9allocatorIS4_EEFvvEEENS_22__allocator_destructorINS5_IS8_EEEEE6secondB8ne190102Ev', symObjAddr: 0x59C8, symBinAddr: 0x100014680, symSize: 0x28 }
  - { offset: 0xC7F55, size: 0x8, addend: 0x0, symName: '__ZNSt3__122__allocator_destructorINS_9allocatorINS_10__function6__funcIZN20BGMDeviceControlSync10DeactivateEvE3$_0NS1_IS5_EEFvvEEEEEEclB8ne190102EPS8_', symObjAddr: 0x59F0, symBinAddr: 0x1000146A8, symSize: 0x34 }
  - { offset: 0xC7F8A, size: 0x8, addend: 0x0, symName: '__ZNSt3__122__compressed_pair_elemINS_22__allocator_destructorINS_9allocatorINS_10__function6__funcIZN20BGMDeviceControlSync10DeactivateEvE3$_0NS2_IS6_EEFvvEEEEEEELi1ELb0EE5__getB8ne190102Ev', symObjAddr: 0x5A24, symBinAddr: 0x1000146DC, symSize: 0x14 }
  - { offset: 0xC7FB0, size: 0x8, addend: 0x0, symName: '__ZNSt3__116allocator_traitsINS_9allocatorINS_10__function6__funcIZN20BGMDeviceControlSync10DeactivateEvE3$_0NS1_IS5_EEFvvEEEEEE10deallocateB8ne190102ERS9_PS8_m', symObjAddr: 0x5A38, symBinAddr: 0x1000146F0, symSize: 0x34 }
  - { offset: 0xC7FF5, size: 0x8, addend: 0x0, symName: '__ZNSt3__19allocatorINS_10__function6__funcIZN20BGMDeviceControlSync10DeactivateEvE3$_0NS0_IS4_EEFvvEEEE10deallocateB8ne190102EPS7_m', symObjAddr: 0x5A6C, symBinAddr: 0x100014724, symSize: 0x40 }
  - { offset: 0xC8039, size: 0x8, addend: 0x0, symName: '__ZNSt3__110__function6__funcIZN20BGMDeviceControlSync10DeactivateEvE3$_0NS_9allocatorIS3_EEFvvEEC1B8ne190102ERKS3_RKS5_', symObjAddr: 0x5AAC, symBinAddr: 0x100014764, symSize: 0x3C }
  - { offset: 0xC8083, size: 0x8, addend: 0x0, symName: '__ZNSt3__110__function6__funcIZN20BGMDeviceControlSync10DeactivateEvE3$_0NS_9allocatorIS3_EEFvvEEC2B8ne190102ERKS3_RKS5_', symObjAddr: 0x5AE8, symBinAddr: 0x1000147A0, symSize: 0x80 }
  - { offset: 0xC80CD, size: 0x8, addend: 0x0, symName: '__ZNSt3__110__function12__alloc_funcIZN20BGMDeviceControlSync10DeactivateEvE3$_0NS_9allocatorIS3_EEFvvEEC1B8ne190102ERKS3_RKS5_', symObjAddr: 0x5B68, symBinAddr: 0x100014820, symSize: 0x3C }
  - { offset: 0xC8115, size: 0x8, addend: 0x0, symName: '__ZNSt3__110__function12__alloc_funcIZN20BGMDeviceControlSync10DeactivateEvE3$_0NS_9allocatorIS3_EEFvvEEC2B8ne190102ERKS3_RKS5_', symObjAddr: 0x5BA4, symBinAddr: 0x10001485C, symSize: 0x5C }
  - { offset: 0xC815D, size: 0x8, addend: 0x0, symName: '__ZNSt3__117__compressed_pairIZN20BGMDeviceControlSync10DeactivateEvE3$_0NS_9allocatorIS2_EEEC1B8ne190102IJRKS2_EJRKS4_EEENS_21piecewise_construct_tENS_5tupleIJDpT_EEENSC_IJDpT0_EEE', symObjAddr: 0x5C2C, symBinAddr: 0x1000148E4, symSize: 0x3C }
  - { offset: 0xC81CE, size: 0x8, addend: 0x0, symName: '__ZNSt3__15tupleIJRKNS_9allocatorIZN20BGMDeviceControlSync10DeactivateEvE3$_0EEEEC1B8ne190102INS_4_AndELi0EEES6_', symObjAddr: 0x5C68, symBinAddr: 0x100014920, symSize: 0x34 }
  - { offset: 0xC8219, size: 0x8, addend: 0x0, symName: '__ZNSt3__15tupleIJRKNS_9allocatorIZN20BGMDeviceControlSync10DeactivateEvE3$_0EEEEC2B8ne190102INS_4_AndELi0EEES6_', symObjAddr: 0x5C9C, symBinAddr: 0x100014954, symSize: 0x34 }
  - { offset: 0xC8264, size: 0x8, addend: 0x0, symName: '__ZNSt3__112__tuple_implINS_15__tuple_indicesIJLm0EEEEJRKNS_9allocatorIZN20BGMDeviceControlSync10DeactivateEvE3$_0EEEEC1B8ne190102IJLm0EEJS8_EJEJEJS8_EEENS1_IJXspT_EEEENS_13__tuple_typesIJDpT0_EEENS1_IJXspT1_EEEENSC_IJDpT2_EEEDpOT3_', symObjAddr: 0x5CD0, symBinAddr: 0x100014988, symSize: 0x34 }
  - { offset: 0xC8302, size: 0x8, addend: 0x0, symName: '__ZNSt3__112__tuple_implINS_15__tuple_indicesIJLm0EEEEJRKNS_9allocatorIZN20BGMDeviceControlSync10DeactivateEvE3$_0EEEEC2B8ne190102IJLm0EEJS8_EJEJEJS8_EEENS1_IJXspT_EEEENS_13__tuple_typesIJDpT0_EEENS1_IJXspT1_EEEENSC_IJDpT2_EEEDpOT3_', symObjAddr: 0x5D04, symBinAddr: 0x1000149BC, symSize: 0x34 }
  - { offset: 0xC83A0, size: 0x8, addend: 0x0, symName: '__ZNSt3__112__tuple_leafILm0ERKNS_9allocatorIZN20BGMDeviceControlSync10DeactivateEvE3$_0EELb0EEC2B8ne190102IS6_Li0EEEOT_', symObjAddr: 0x5D38, symBinAddr: 0x1000149F0, symSize: 0x20 }
  - { offset: 0xC83EB, size: 0x8, addend: 0x0, symName: '__ZNSt3__117__compressed_pairIZN20BGMDeviceControlSync10DeactivateEvE3$_0NS_9allocatorIS2_EEEC2B8ne190102IJRKS2_EJRKS4_EEENS_21piecewise_construct_tENS_5tupleIJDpT_EEENSC_IJDpT0_EEE', symObjAddr: 0x5D58, symBinAddr: 0x100014A10, symSize: 0x54 }
  - { offset: 0xC845C, size: 0x8, addend: 0x0, symName: '__ZNSt3__122__compressed_pair_elemINS_9allocatorIZN20BGMDeviceControlSync10DeactivateEvE3$_0EELi1ELb1EEC2B8ne190102IJRKS4_EJLm0EEEENS_21piecewise_construct_tENS_5tupleIJDpT_EEENS_15__tuple_indicesIJXspT0_EEEE', symObjAddr: 0x5DAC, symBinAddr: 0x100014A64, symSize: 0x38 }
  - { offset: 0xC84C6, size: 0x8, addend: 0x0, symName: '__ZNSt3__112__tuple_leafILm0ERKNS_9allocatorIZN20BGMDeviceControlSync10DeactivateEvE3$_0EELb0EE3getB8ne190102Ev', symObjAddr: 0x5E08, symBinAddr: 0x100014AC0, symSize: 0x18 }
  - { offset: 0xC84EC, size: 0x8, addend: 0x0, symName: '__ZNSt3__110__function12__alloc_funcIZN20BGMDeviceControlSync10DeactivateEvE3$_0NS_9allocatorIS3_EEFvvEE7destroyB8ne190102Ev', symObjAddr: 0x5E20, symBinAddr: 0x100014AD8, symSize: 0x10 }
  - { offset: 0xC8512, size: 0x8, addend: 0x0, symName: '__ZNSt3__110__function12__alloc_funcIZN20BGMDeviceControlSync10DeactivateEvE3$_0NS_9allocatorIS3_EEFvvEEclB8ne190102Ev', symObjAddr: 0x5E30, symBinAddr: 0x100014AE8, symSize: 0x28 }
  - { offset: 0xC8538, size: 0x8, addend: 0x0, symName: '__ZNSt3__128__invoke_void_return_wrapperIvLb1EE6__callB8ne190102IJRZN20BGMDeviceControlSync10DeactivateEvE3$_0EEEvDpOT_', symObjAddr: 0x5E58, symBinAddr: 0x100014B10, symSize: 0x24 }
  - { offset: 0xC8569, size: 0x8, addend: 0x0, symName: '__ZNSt3__117__compressed_pairIZN20BGMDeviceControlSync10DeactivateEvE3$_0NS_9allocatorIS2_EEE5firstB8ne190102Ev', symObjAddr: 0x5E7C, symBinAddr: 0x100014B34, symSize: 0x24 }
  - { offset: 0xC8594, size: 0x8, addend: 0x0, symName: '__ZZN20BGMDeviceControlSync10DeactivateEvENK3$_0clEv', symObjAddr: 0x5EC4, symBinAddr: 0x100014B7C, symSize: 0x40 }
  - { offset: 0xC85BE, size: 0x8, addend: 0x0, symName: '__ZNSt3__122__compressed_pair_elemIZN20BGMDeviceControlSync10DeactivateEvE3$_0Li0ELb0EE5__getB8ne190102Ev', symObjAddr: 0x5F04, symBinAddr: 0x100014BBC, symSize: 0x14 }
  - { offset: 0xC85E4, size: 0x8, addend: 0x0, symName: '__ZNSt3__18functionIFvvEEC2IZN20BGMDeviceControlSync10DeactivateEvE3$_1vEET_', symObjAddr: 0x5F18, symBinAddr: 0x100014BD0, symSize: 0x38 }
  - { offset: 0xC862A, size: 0x8, addend: 0x0, symName: '__ZNSt3__110__function12__value_funcIFvvEEC1B8ne190102IZN20BGMDeviceControlSync10DeactivateEvE3$_1Li0EEEOT_', symObjAddr: 0x5F50, symBinAddr: 0x100014C08, symSize: 0x50 }
  - { offset: 0xC8675, size: 0x8, addend: 0x0, symName: '__ZNSt3__19allocatorIZN20BGMDeviceControlSync10DeactivateEvE3$_1EC1B8ne190102Ev', symObjAddr: 0x5FA0, symBinAddr: 0x100014C58, symSize: 0x2C }
  - { offset: 0xC869F, size: 0x8, addend: 0x0, symName: '__ZNSt3__110__function12__value_funcIFvvEEC1B8ne190102IZN20BGMDeviceControlSync10DeactivateEvE3$_1NS_9allocatorIS6_EEEEOT_RKT0_', symObjAddr: 0x5FCC, symBinAddr: 0x100014C84, symSize: 0x3C }
  - { offset: 0xC86FD, size: 0x8, addend: 0x0, symName: '__ZNSt3__19allocatorIZN20BGMDeviceControlSync10DeactivateEvE3$_1EC2B8ne190102Ev', symObjAddr: 0x6008, symBinAddr: 0x100014CC0, symSize: 0x2C }
  - { offset: 0xC8727, size: 0x8, addend: 0x0, symName: '__ZNSt3__116__non_trivial_ifILb1ENS_9allocatorIZN20BGMDeviceControlSync10DeactivateEvE3$_1EEEC2B8ne190102Ev', symObjAddr: 0x6034, symBinAddr: 0x100014CEC, symSize: 0x14 }
  - { offset: 0xC8751, size: 0x8, addend: 0x0, symName: '__ZNSt3__110__function12__value_funcIFvvEEC2B8ne190102IZN20BGMDeviceControlSync10DeactivateEvE3$_1NS_9allocatorIS6_EEEEOT_RKT0_', symObjAddr: 0x6048, symBinAddr: 0x100014D00, symSize: 0x94 }
  - { offset: 0xC87FF, size: 0x8, addend: 0x0, symName: '__ZNSt3__19allocatorINS_10__function6__funcIZN20BGMDeviceControlSync10DeactivateEvE3$_1NS0_IS4_EEFvvEEEEC1B8ne190102IS4_EERKNS0_IT_EE', symObjAddr: 0x60F4, symBinAddr: 0x100014DAC, symSize: 0x34 }
  - { offset: 0xC8844, size: 0x8, addend: 0x0, symName: '__ZNSt3__19allocatorIZN20BGMDeviceControlSync10DeactivateEvE3$_1EC1B8ne190102INS_10__function6__funcIS2_S3_FvvEEEEERKNS0_IT_EE', symObjAddr: 0x6128, symBinAddr: 0x100014DE0, symSize: 0x34 }
  - { offset: 0xC8883, size: 0x8, addend: 0x0, symName: '__ZNSt3__110__function6__funcIZN20BGMDeviceControlSync10DeactivateEvE3$_1NS_9allocatorIS3_EEFvvEEC1B8ne190102EOS3_OS5_', symObjAddr: 0x615C, symBinAddr: 0x100014E14, symSize: 0x3C }
  - { offset: 0xC88CD, size: 0x8, addend: 0x0, symName: '__ZNSt3__19allocatorINS_10__function6__funcIZN20BGMDeviceControlSync10DeactivateEvE3$_1NS0_IS4_EEFvvEEEEC2B8ne190102IS4_EERKNS0_IT_EE', symObjAddr: 0x6198, symBinAddr: 0x100014E50, symSize: 0x30 }
  - { offset: 0xC890C, size: 0x8, addend: 0x0, symName: '__ZNSt3__116__non_trivial_ifILb1ENS_9allocatorINS_10__function6__funcIZN20BGMDeviceControlSync10DeactivateEvE3$_1NS1_IS5_EEFvvEEEEEEC2B8ne190102Ev', symObjAddr: 0x61C8, symBinAddr: 0x100014E80, symSize: 0x14 }
  - { offset: 0xC8936, size: 0x8, addend: 0x0, symName: '__ZNSt3__19allocatorIZN20BGMDeviceControlSync10DeactivateEvE3$_1EC2B8ne190102INS_10__function6__funcIS2_S3_FvvEEEEERKNS0_IT_EE', symObjAddr: 0x61DC, symBinAddr: 0x100014E94, symSize: 0x30 }
  - { offset: 0xC8975, size: 0x8, addend: 0x0, symName: '__ZNSt3__110__function6__funcIZN20BGMDeviceControlSync10DeactivateEvE3$_1NS_9allocatorIS3_EEFvvEEC2B8ne190102EOS3_OS5_', symObjAddr: 0x620C, symBinAddr: 0x100014EC4, symSize: 0x80 }
  - { offset: 0xC89BF, size: 0x8, addend: 0x0, symName: '__ZNSt3__110__function12__alloc_funcIZN20BGMDeviceControlSync10DeactivateEvE3$_1NS_9allocatorIS3_EEFvvEEC1B8ne190102EOS3_OS5_', symObjAddr: 0x628C, symBinAddr: 0x100014F44, symSize: 0x3C }
  - { offset: 0xC8A07, size: 0x8, addend: 0x0, symName: '__ZNSt3__110__function6__funcIZN20BGMDeviceControlSync10DeactivateEvE3$_1NS_9allocatorIS3_EEFvvEED1Ev', symObjAddr: 0x62C8, symBinAddr: 0x100014F80, symSize: 0x2C }
  - { offset: 0xC8A33, size: 0x8, addend: 0x0, symName: '__ZNSt3__110__function6__funcIZN20BGMDeviceControlSync10DeactivateEvE3$_1NS_9allocatorIS3_EEFvvEED0Ev', symObjAddr: 0x62F4, symBinAddr: 0x100014FAC, symSize: 0x30 }
  - { offset: 0xC8A5F, size: 0x8, addend: 0x0, symName: '__ZNKSt3__110__function6__funcIZN20BGMDeviceControlSync10DeactivateEvE3$_1NS_9allocatorIS3_EEFvvEE7__cloneEv', symObjAddr: 0x6324, symBinAddr: 0x100014FDC, symSize: 0xFC }
  - { offset: 0xC8AB1, size: 0x8, addend: 0x0, symName: '__ZNKSt3__110__function6__funcIZN20BGMDeviceControlSync10DeactivateEvE3$_1NS_9allocatorIS3_EEFvvEE7__cloneEPNS0_6__baseIS6_EE', symObjAddr: 0x6420, symBinAddr: 0x1000150D8, symSize: 0x58 }
  - { offset: 0xC8AE7, size: 0x8, addend: 0x0, symName: '__ZNSt3__110__function6__funcIZN20BGMDeviceControlSync10DeactivateEvE3$_1NS_9allocatorIS3_EEFvvEE7destroyEv', symObjAddr: 0x6478, symBinAddr: 0x100015130, symSize: 0x28 }
  - { offset: 0xC8B0D, size: 0x8, addend: 0x0, symName: '__ZNSt3__110__function6__funcIZN20BGMDeviceControlSync10DeactivateEvE3$_1NS_9allocatorIS3_EEFvvEE18destroy_deallocateEv', symObjAddr: 0x64A0, symBinAddr: 0x100015158, symSize: 0x58 }
  - { offset: 0xC8B4F, size: 0x8, addend: 0x0, symName: '__ZNSt3__110__function6__funcIZN20BGMDeviceControlSync10DeactivateEvE3$_1NS_9allocatorIS3_EEFvvEEclEv', symObjAddr: 0x64F8, symBinAddr: 0x1000151B0, symSize: 0x28 }
  - { offset: 0xC8B75, size: 0x8, addend: 0x0, symName: '__ZNKSt3__110__function6__funcIZN20BGMDeviceControlSync10DeactivateEvE3$_1NS_9allocatorIS3_EEFvvEE6targetERKSt9type_info', symObjAddr: 0x6520, symBinAddr: 0x1000151D8, symSize: 0x60 }
  - { offset: 0xC8BAB, size: 0x8, addend: 0x0, symName: '__ZNKSt3__110__function6__funcIZN20BGMDeviceControlSync10DeactivateEvE3$_1NS_9allocatorIS3_EEFvvEE11target_typeEv', symObjAddr: 0x6580, symBinAddr: 0x100015238, symSize: 0x18 }
  - { offset: 0xC8BD1, size: 0x8, addend: 0x0, symName: '__ZNSt3__110__function12__alloc_funcIZN20BGMDeviceControlSync10DeactivateEvE3$_1NS_9allocatorIS3_EEFvvEEC2B8ne190102EOS3_OS5_', symObjAddr: 0x6598, symBinAddr: 0x100015250, symSize: 0x5C }
  - { offset: 0xC8C19, size: 0x8, addend: 0x0, symName: '__ZNSt3__117__compressed_pairIZN20BGMDeviceControlSync10DeactivateEvE3$_1NS_9allocatorIS2_EEEC1B8ne190102IJOS2_EJOS4_EEENS_21piecewise_construct_tENS_5tupleIJDpT_EEENSA_IJDpT0_EEE', symObjAddr: 0x664C, symBinAddr: 0x100015304, symSize: 0x3C }
  - { offset: 0xC8C8A, size: 0x8, addend: 0x0, symName: '__ZNSt3__15tupleIJOZN20BGMDeviceControlSync10DeactivateEvE3$_1EEC1B8ne190102IJS2_ELi0EEEDpOT_', symObjAddr: 0x6688, symBinAddr: 0x100015340, symSize: 0x34 }
  - { offset: 0xC8CD8, size: 0x8, addend: 0x0, symName: '__ZNSt3__15tupleIJOZN20BGMDeviceControlSync10DeactivateEvE3$_1EEC2B8ne190102IJS2_ELi0EEEDpOT_', symObjAddr: 0x66BC, symBinAddr: 0x100015374, symSize: 0x34 }
  - { offset: 0xC8D26, size: 0x8, addend: 0x0, symName: '__ZNSt3__112__tuple_implINS_15__tuple_indicesIJLm0EEEEJOZN20BGMDeviceControlSync10DeactivateEvE3$_1EEC1B8ne190102IJLm0EEJS5_EJEJEJS4_EEENS1_IJXspT_EEEENS_13__tuple_typesIJDpT0_EEENS1_IJXspT1_EEEENS9_IJDpT2_EEEDpOT3_', symObjAddr: 0x66F0, symBinAddr: 0x1000153A8, symSize: 0x34 }
  - { offset: 0xC8DC4, size: 0x8, addend: 0x0, symName: '__ZNSt3__112__tuple_implINS_15__tuple_indicesIJLm0EEEEJOZN20BGMDeviceControlSync10DeactivateEvE3$_1EEC2B8ne190102IJLm0EEJS5_EJEJEJS4_EEENS1_IJXspT_EEEENS_13__tuple_typesIJDpT0_EEENS1_IJXspT1_EEEENS9_IJDpT2_EEEDpOT3_', symObjAddr: 0x6724, symBinAddr: 0x1000153DC, symSize: 0x34 }
  - { offset: 0xC8E62, size: 0x8, addend: 0x0, symName: '__ZNSt3__112__tuple_leafILm0EOZN20BGMDeviceControlSync10DeactivateEvE3$_1Lb0EEC2B8ne190102IS2_Li0EEEOT_', symObjAddr: 0x6758, symBinAddr: 0x100015410, symSize: 0x20 }
  - { offset: 0xC8EAD, size: 0x8, addend: 0x0, symName: '__ZNSt3__15tupleIJONS_9allocatorIZN20BGMDeviceControlSync10DeactivateEvE3$_1EEEEC1B8ne190102IJS4_ELi0EEEDpOT_', symObjAddr: 0x6778, symBinAddr: 0x100015430, symSize: 0x34 }
  - { offset: 0xC8EFB, size: 0x8, addend: 0x0, symName: '__ZNSt3__15tupleIJONS_9allocatorIZN20BGMDeviceControlSync10DeactivateEvE3$_1EEEEC2B8ne190102IJS4_ELi0EEEDpOT_', symObjAddr: 0x67AC, symBinAddr: 0x100015464, symSize: 0x34 }
  - { offset: 0xC8F49, size: 0x8, addend: 0x0, symName: '__ZNSt3__112__tuple_implINS_15__tuple_indicesIJLm0EEEEJONS_9allocatorIZN20BGMDeviceControlSync10DeactivateEvE3$_1EEEEC1B8ne190102IJLm0EEJS7_EJEJEJS6_EEENS1_IJXspT_EEEENS_13__tuple_typesIJDpT0_EEENS1_IJXspT1_EEEENSB_IJDpT2_EEEDpOT3_', symObjAddr: 0x67E0, symBinAddr: 0x100015498, symSize: 0x34 }
  - { offset: 0xC8FE7, size: 0x8, addend: 0x0, symName: '__ZNSt3__112__tuple_implINS_15__tuple_indicesIJLm0EEEEJONS_9allocatorIZN20BGMDeviceControlSync10DeactivateEvE3$_1EEEEC2B8ne190102IJLm0EEJS7_EJEJEJS6_EEENS1_IJXspT_EEEENS_13__tuple_typesIJDpT0_EEENS1_IJXspT1_EEEENSB_IJDpT2_EEEDpOT3_', symObjAddr: 0x6814, symBinAddr: 0x1000154CC, symSize: 0x34 }
  - { offset: 0xC9085, size: 0x8, addend: 0x0, symName: '__ZNSt3__112__tuple_leafILm0EONS_9allocatorIZN20BGMDeviceControlSync10DeactivateEvE3$_1EELb0EEC2B8ne190102IS4_Li0EEEOT_', symObjAddr: 0x6848, symBinAddr: 0x100015500, symSize: 0x20 }
  - { offset: 0xC90D0, size: 0x8, addend: 0x0, symName: '__ZNSt3__117__compressed_pairIZN20BGMDeviceControlSync10DeactivateEvE3$_1NS_9allocatorIS2_EEEC2B8ne190102IJOS2_EJOS4_EEENS_21piecewise_construct_tENS_5tupleIJDpT_EEENSA_IJDpT0_EEE', symObjAddr: 0x6868, symBinAddr: 0x100015520, symSize: 0x54 }
  - { offset: 0xC9141, size: 0x8, addend: 0x0, symName: '__ZNSt3__122__compressed_pair_elemIZN20BGMDeviceControlSync10DeactivateEvE3$_1Li0ELb0EEC2B8ne190102IJOS2_EJLm0EEEENS_21piecewise_construct_tENS_5tupleIJDpT_EEENS_15__tuple_indicesIJXspT0_EEEE', symObjAddr: 0x68BC, symBinAddr: 0x100015574, symSize: 0x44 }
  - { offset: 0xC91AB, size: 0x8, addend: 0x0, symName: '__ZNSt3__122__compressed_pair_elemINS_9allocatorIZN20BGMDeviceControlSync10DeactivateEvE3$_1EELi1ELb1EEC2B8ne190102IJOS4_EJLm0EEEENS_21piecewise_construct_tENS_5tupleIJDpT_EEENS_15__tuple_indicesIJXspT0_EEEE', symObjAddr: 0x6900, symBinAddr: 0x1000155B8, symSize: 0x38 }
  - { offset: 0xC9215, size: 0x8, addend: 0x0, symName: '__ZNSt3__112__tuple_leafILm0EOZN20BGMDeviceControlSync10DeactivateEvE3$_1Lb0EE3getB8ne190102Ev', symObjAddr: 0x695C, symBinAddr: 0x100015614, symSize: 0x18 }
  - { offset: 0xC923B, size: 0x8, addend: 0x0, symName: '__ZNSt3__112__tuple_leafILm0EONS_9allocatorIZN20BGMDeviceControlSync10DeactivateEvE3$_1EELb0EE3getB8ne190102Ev', symObjAddr: 0x6998, symBinAddr: 0x100015650, symSize: 0x18 }
  - { offset: 0xC9261, size: 0x8, addend: 0x0, symName: '__ZNSt3__110__function6__funcIZN20BGMDeviceControlSync10DeactivateEvE3$_1NS_9allocatorIS3_EEFvvEED2Ev', symObjAddr: 0x69B0, symBinAddr: 0x100015668, symSize: 0x2C }
  - { offset: 0xC928D, size: 0x8, addend: 0x0, symName: '__ZNKSt3__110__function12__alloc_funcIZN20BGMDeviceControlSync10DeactivateEvE3$_1NS_9allocatorIS3_EEFvvEE15__get_allocatorB8ne190102Ev', symObjAddr: 0x69DC, symBinAddr: 0x100015694, symSize: 0x24 }
  - { offset: 0xC92B3, size: 0x8, addend: 0x0, symName: '__ZNSt3__19allocatorINS_10__function6__funcIZN20BGMDeviceControlSync10DeactivateEvE3$_1NS0_IS4_EEFvvEEEE8allocateB8ne190102Em', symObjAddr: 0x6A00, symBinAddr: 0x1000156B8, symSize: 0x54 }
  - { offset: 0xC92F9, size: 0x8, addend: 0x0, symName: '__ZNSt3__122__allocator_destructorINS_9allocatorINS_10__function6__funcIZN20BGMDeviceControlSync10DeactivateEvE3$_1NS1_IS5_EEFvvEEEEEEC1B8ne190102ERS9_m', symObjAddr: 0x6A54, symBinAddr: 0x10001570C, symSize: 0x3C }
  - { offset: 0xC93D7, size: 0x8, addend: 0x0, symName: '__ZNSt3__110unique_ptrINS_10__function6__funcIZN20BGMDeviceControlSync10DeactivateEvE3$_1NS_9allocatorIS4_EEFvvEEENS_22__allocator_destructorINS5_IS8_EEEEEC1B8ne190102ILb1EvEEPS8_NS_16__dependent_typeINS_27__unique_ptr_deleter_sfinaeISB_EEXT_EE20__good_rval_ref_typeE', symObjAddr: 0x6A90, symBinAddr: 0x100015748, symSize: 0x3C }
  - { offset: 0xC942C, size: 0x8, addend: 0x0, symName: '__ZNKSt3__110unique_ptrINS_10__function6__funcIZN20BGMDeviceControlSync10DeactivateEvE3$_1NS_9allocatorIS4_EEFvvEEENS_22__allocator_destructorINS5_IS8_EEEEE3getB8ne190102Ev', symObjAddr: 0x6ACC, symBinAddr: 0x100015784, symSize: 0x28 }
  - { offset: 0xC9452, size: 0x8, addend: 0x0, symName: '__ZNKSt3__110__function12__alloc_funcIZN20BGMDeviceControlSync10DeactivateEvE3$_1NS_9allocatorIS3_EEFvvEE8__targetB8ne190102Ev', symObjAddr: 0x6AF4, symBinAddr: 0x1000157AC, symSize: 0x24 }
  - { offset: 0xC9478, size: 0x8, addend: 0x0, symName: '__ZNSt3__110__function6__funcIZN20BGMDeviceControlSync10DeactivateEvE3$_1NS_9allocatorIS3_EEFvvEEC1B8ne190102ERKS3_OS5_', symObjAddr: 0x6B18, symBinAddr: 0x1000157D0, symSize: 0x3C }
  - { offset: 0xC94C2, size: 0x8, addend: 0x0, symName: '__ZNSt3__110unique_ptrINS_10__function6__funcIZN20BGMDeviceControlSync10DeactivateEvE3$_1NS_9allocatorIS4_EEFvvEEENS_22__allocator_destructorINS5_IS8_EEEEE7releaseB8ne190102Ev', symObjAddr: 0x6B54, symBinAddr: 0x10001580C, symSize: 0x44 }
  - { offset: 0xC94F8, size: 0x8, addend: 0x0, symName: '__ZNSt3__110unique_ptrINS_10__function6__funcIZN20BGMDeviceControlSync10DeactivateEvE3$_1NS_9allocatorIS4_EEFvvEEENS_22__allocator_destructorINS5_IS8_EEEEED1B8ne190102Ev', symObjAddr: 0x6B98, symBinAddr: 0x100015850, symSize: 0x2C }
  - { offset: 0xC9522, size: 0x8, addend: 0x0, symName: '__ZNKSt3__117__compressed_pairIZN20BGMDeviceControlSync10DeactivateEvE3$_1NS_9allocatorIS2_EEE6secondB8ne190102Ev', symObjAddr: 0x6BC4, symBinAddr: 0x10001587C, symSize: 0x24 }
  - { offset: 0xC9548, size: 0x8, addend: 0x0, symName: '__ZNKSt3__122__compressed_pair_elemINS_9allocatorIZN20BGMDeviceControlSync10DeactivateEvE3$_1EELi1ELb1EE5__getB8ne190102Ev', symObjAddr: 0x6BE8, symBinAddr: 0x1000158A0, symSize: 0x14 }
  - { offset: 0xC9579, size: 0x8, addend: 0x0, symName: '__ZNSt3__116allocator_traitsINS_9allocatorINS_10__function6__funcIZN20BGMDeviceControlSync10DeactivateEvE3$_1NS1_IS5_EEFvvEEEEEE8max_sizeB8ne190102IS9_Li0EEEmRKS9_', symObjAddr: 0x6BFC, symBinAddr: 0x1000158B4, symSize: 0x24 }
  - { offset: 0xC95AF, size: 0x8, addend: 0x0, symName: '__ZNKSt3__19allocatorINS_10__function6__funcIZN20BGMDeviceControlSync10DeactivateEvE3$_1NS0_IS4_EEFvvEEEE8max_sizeB8ne190102Ev', symObjAddr: 0x6C20, symBinAddr: 0x1000158D8, symSize: 0x14 }
  - { offset: 0xC95D5, size: 0x8, addend: 0x0, symName: '__ZNSt3__122__allocator_destructorINS_9allocatorINS_10__function6__funcIZN20BGMDeviceControlSync10DeactivateEvE3$_1NS1_IS5_EEFvvEEEEEEC2B8ne190102ERS9_m', symObjAddr: 0x6C34, symBinAddr: 0x1000158EC, symSize: 0x2C }
  - { offset: 0xC961D, size: 0x8, addend: 0x0, symName: '__ZNSt3__110unique_ptrINS_10__function6__funcIZN20BGMDeviceControlSync10DeactivateEvE3$_1NS_9allocatorIS4_EEFvvEEENS_22__allocator_destructorINS5_IS8_EEEEEC2B8ne190102ILb1EvEEPS8_NS_16__dependent_typeINS_27__unique_ptr_deleter_sfinaeISB_EEXT_EE20__good_rval_ref_typeE', symObjAddr: 0x6C60, symBinAddr: 0x100015918, symSize: 0x48 }
  - { offset: 0xC9672, size: 0x8, addend: 0x0, symName: '__ZNSt3__117__compressed_pairIPNS_10__function6__funcIZN20BGMDeviceControlSync10DeactivateEvE3$_1NS_9allocatorIS4_EEFvvEEENS_22__allocator_destructorINS5_IS8_EEEEEC1B8ne190102IRS9_SC_EEOT_OT0_', symObjAddr: 0x6CA8, symBinAddr: 0x100015960, symSize: 0x3C }
  - { offset: 0xC96CE, size: 0x8, addend: 0x0, symName: '__ZNSt3__117__compressed_pairIPNS_10__function6__funcIZN20BGMDeviceControlSync10DeactivateEvE3$_1NS_9allocatorIS4_EEFvvEEENS_22__allocator_destructorINS5_IS8_EEEEEC2B8ne190102IRS9_SC_EEOT_OT0_', symObjAddr: 0x6CE4, symBinAddr: 0x10001599C, symSize: 0x48 }
  - { offset: 0xC972A, size: 0x8, addend: 0x0, symName: '__ZNSt3__122__compressed_pair_elemIPNS_10__function6__funcIZN20BGMDeviceControlSync10DeactivateEvE3$_1NS_9allocatorIS4_EEFvvEEELi0ELb0EEC2B8ne190102IRS9_Li0EEEOT_', symObjAddr: 0x6D2C, symBinAddr: 0x1000159E4, symSize: 0x24 }
  - { offset: 0xC9774, size: 0x8, addend: 0x0, symName: '__ZNSt3__122__compressed_pair_elemINS_22__allocator_destructorINS_9allocatorINS_10__function6__funcIZN20BGMDeviceControlSync10DeactivateEvE3$_1NS2_IS6_EEFvvEEEEEEELi1ELb0EEC2B8ne190102ISB_Li0EEEOT_', symObjAddr: 0x6D50, symBinAddr: 0x100015A08, symSize: 0x24 }
  - { offset: 0xC97BE, size: 0x8, addend: 0x0, symName: '__ZNKSt3__117__compressed_pairIPNS_10__function6__funcIZN20BGMDeviceControlSync10DeactivateEvE3$_1NS_9allocatorIS4_EEFvvEEENS_22__allocator_destructorINS5_IS8_EEEEE5firstB8ne190102Ev', symObjAddr: 0x6D74, symBinAddr: 0x100015A2C, symSize: 0x24 }
  - { offset: 0xC97E4, size: 0x8, addend: 0x0, symName: '__ZNKSt3__122__compressed_pair_elemIPNS_10__function6__funcIZN20BGMDeviceControlSync10DeactivateEvE3$_1NS_9allocatorIS4_EEFvvEEELi0ELb0EE5__getB8ne190102Ev', symObjAddr: 0x6D98, symBinAddr: 0x100015A50, symSize: 0x14 }
  - { offset: 0xC980A, size: 0x8, addend: 0x0, symName: '__ZNKSt3__117__compressed_pairIZN20BGMDeviceControlSync10DeactivateEvE3$_1NS_9allocatorIS2_EEE5firstB8ne190102Ev', symObjAddr: 0x6DAC, symBinAddr: 0x100015A64, symSize: 0x24 }
  - { offset: 0xC9830, size: 0x8, addend: 0x0, symName: '__ZNKSt3__122__compressed_pair_elemIZN20BGMDeviceControlSync10DeactivateEvE3$_1Li0ELb0EE5__getB8ne190102Ev', symObjAddr: 0x6DD0, symBinAddr: 0x100015A88, symSize: 0x14 }
  - { offset: 0xC9856, size: 0x8, addend: 0x0, symName: '__ZNSt3__110__function6__funcIZN20BGMDeviceControlSync10DeactivateEvE3$_1NS_9allocatorIS3_EEFvvEEC2B8ne190102ERKS3_OS5_', symObjAddr: 0x6DE4, symBinAddr: 0x100015A9C, symSize: 0x80 }
  - { offset: 0xC98A0, size: 0x8, addend: 0x0, symName: '__ZNSt3__110__function12__alloc_funcIZN20BGMDeviceControlSync10DeactivateEvE3$_1NS_9allocatorIS3_EEFvvEEC1B8ne190102ERKS3_OS5_', symObjAddr: 0x6E64, symBinAddr: 0x100015B1C, symSize: 0x3C }
  - { offset: 0xC98E8, size: 0x8, addend: 0x0, symName: '__ZNSt3__110__function12__alloc_funcIZN20BGMDeviceControlSync10DeactivateEvE3$_1NS_9allocatorIS3_EEFvvEEC2B8ne190102ERKS3_OS5_', symObjAddr: 0x6EA0, symBinAddr: 0x100015B58, symSize: 0x5C }
  - { offset: 0xC9930, size: 0x8, addend: 0x0, symName: '__ZNSt3__117__compressed_pairIZN20BGMDeviceControlSync10DeactivateEvE3$_1NS_9allocatorIS2_EEEC1B8ne190102IJRKS2_EJOS4_EEENS_21piecewise_construct_tENS_5tupleIJDpT_EEENSB_IJDpT0_EEE', symObjAddr: 0x6F28, symBinAddr: 0x100015BE0, symSize: 0x3C }
  - { offset: 0xC99A1, size: 0x8, addend: 0x0, symName: '__ZNSt3__15tupleIJRKZN20BGMDeviceControlSync10DeactivateEvE3$_1EEC1B8ne190102INS_4_AndELi0EEES4_', symObjAddr: 0x6F64, symBinAddr: 0x100015C1C, symSize: 0x34 }
  - { offset: 0xC99EC, size: 0x8, addend: 0x0, symName: '__ZNSt3__15tupleIJRKZN20BGMDeviceControlSync10DeactivateEvE3$_1EEC2B8ne190102INS_4_AndELi0EEES4_', symObjAddr: 0x6F98, symBinAddr: 0x100015C50, symSize: 0x34 }
  - { offset: 0xC9A37, size: 0x8, addend: 0x0, symName: '__ZNSt3__112__tuple_implINS_15__tuple_indicesIJLm0EEEEJRKZN20BGMDeviceControlSync10DeactivateEvE3$_1EEC1B8ne190102IJLm0EEJS6_EJEJEJS6_EEENS1_IJXspT_EEEENS_13__tuple_typesIJDpT0_EEENS1_IJXspT1_EEEENSA_IJDpT2_EEEDpOT3_', symObjAddr: 0x6FCC, symBinAddr: 0x100015C84, symSize: 0x34 }
  - { offset: 0xC9AD5, size: 0x8, addend: 0x0, symName: '__ZNSt3__112__tuple_implINS_15__tuple_indicesIJLm0EEEEJRKZN20BGMDeviceControlSync10DeactivateEvE3$_1EEC2B8ne190102IJLm0EEJS6_EJEJEJS6_EEENS1_IJXspT_EEEENS_13__tuple_typesIJDpT0_EEENS1_IJXspT1_EEEENSA_IJDpT2_EEEDpOT3_', symObjAddr: 0x7000, symBinAddr: 0x100015CB8, symSize: 0x34 }
  - { offset: 0xC9B73, size: 0x8, addend: 0x0, symName: '__ZNSt3__112__tuple_leafILm0ERKZN20BGMDeviceControlSync10DeactivateEvE3$_1Lb0EEC2B8ne190102IS4_Li0EEEOT_', symObjAddr: 0x7034, symBinAddr: 0x100015CEC, symSize: 0x20 }
  - { offset: 0xC9BBE, size: 0x8, addend: 0x0, symName: '__ZNSt3__117__compressed_pairIZN20BGMDeviceControlSync10DeactivateEvE3$_1NS_9allocatorIS2_EEEC2B8ne190102IJRKS2_EJOS4_EEENS_21piecewise_construct_tENS_5tupleIJDpT_EEENSB_IJDpT0_EEE', symObjAddr: 0x7054, symBinAddr: 0x100015D0C, symSize: 0x54 }
  - { offset: 0xC9C2F, size: 0x8, addend: 0x0, symName: '__ZNSt3__122__compressed_pair_elemIZN20BGMDeviceControlSync10DeactivateEvE3$_1Li0ELb0EEC2B8ne190102IJRKS2_EJLm0EEEENS_21piecewise_construct_tENS_5tupleIJDpT_EEENS_15__tuple_indicesIJXspT0_EEEE', symObjAddr: 0x70A8, symBinAddr: 0x100015D60, symSize: 0x44 }
  - { offset: 0xC9C99, size: 0x8, addend: 0x0, symName: '__ZNSt3__112__tuple_leafILm0ERKZN20BGMDeviceControlSync10DeactivateEvE3$_1Lb0EE3getB8ne190102Ev', symObjAddr: 0x7110, symBinAddr: 0x100015DC8, symSize: 0x18 }
  - { offset: 0xC9CBF, size: 0x8, addend: 0x0, symName: '__ZNSt3__117__compressed_pairIPNS_10__function6__funcIZN20BGMDeviceControlSync10DeactivateEvE3$_1NS_9allocatorIS4_EEFvvEEENS_22__allocator_destructorINS5_IS8_EEEEE5firstB8ne190102Ev', symObjAddr: 0x7128, symBinAddr: 0x100015DE0, symSize: 0x24 }
  - { offset: 0xC9CE5, size: 0x8, addend: 0x0, symName: '__ZNSt3__122__compressed_pair_elemIPNS_10__function6__funcIZN20BGMDeviceControlSync10DeactivateEvE3$_1NS_9allocatorIS4_EEFvvEEELi0ELb0EE5__getB8ne190102Ev', symObjAddr: 0x714C, symBinAddr: 0x100015E04, symSize: 0x14 }
  - { offset: 0xC9D0B, size: 0x8, addend: 0x0, symName: '__ZNSt3__110unique_ptrINS_10__function6__funcIZN20BGMDeviceControlSync10DeactivateEvE3$_1NS_9allocatorIS4_EEFvvEEENS_22__allocator_destructorINS5_IS8_EEEEED2B8ne190102Ev', symObjAddr: 0x7160, symBinAddr: 0x100015E18, symSize: 0x30 }
  - { offset: 0xC9D35, size: 0x8, addend: 0x0, symName: '__ZNSt3__110unique_ptrINS_10__function6__funcIZN20BGMDeviceControlSync10DeactivateEvE3$_1NS_9allocatorIS4_EEFvvEEENS_22__allocator_destructorINS5_IS8_EEEEE5resetB8ne190102EPS8_', symObjAddr: 0x7190, symBinAddr: 0x100015E48, symSize: 0x70 }
  - { offset: 0xC9D7B, size: 0x8, addend: 0x0, symName: '__ZNSt3__117__compressed_pairIPNS_10__function6__funcIZN20BGMDeviceControlSync10DeactivateEvE3$_1NS_9allocatorIS4_EEFvvEEENS_22__allocator_destructorINS5_IS8_EEEEE6secondB8ne190102Ev', symObjAddr: 0x7200, symBinAddr: 0x100015EB8, symSize: 0x28 }
  - { offset: 0xC9DA1, size: 0x8, addend: 0x0, symName: '__ZNSt3__122__allocator_destructorINS_9allocatorINS_10__function6__funcIZN20BGMDeviceControlSync10DeactivateEvE3$_1NS1_IS5_EEFvvEEEEEEclB8ne190102EPS8_', symObjAddr: 0x7228, symBinAddr: 0x100015EE0, symSize: 0x34 }
  - { offset: 0xC9DD6, size: 0x8, addend: 0x0, symName: '__ZNSt3__122__compressed_pair_elemINS_22__allocator_destructorINS_9allocatorINS_10__function6__funcIZN20BGMDeviceControlSync10DeactivateEvE3$_1NS2_IS6_EEFvvEEEEEEELi1ELb0EE5__getB8ne190102Ev', symObjAddr: 0x725C, symBinAddr: 0x100015F14, symSize: 0x14 }
  - { offset: 0xC9DFC, size: 0x8, addend: 0x0, symName: '__ZNSt3__116allocator_traitsINS_9allocatorINS_10__function6__funcIZN20BGMDeviceControlSync10DeactivateEvE3$_1NS1_IS5_EEFvvEEEEEE10deallocateB8ne190102ERS9_PS8_m', symObjAddr: 0x7270, symBinAddr: 0x100015F28, symSize: 0x34 }
  - { offset: 0xC9E41, size: 0x8, addend: 0x0, symName: '__ZNSt3__19allocatorINS_10__function6__funcIZN20BGMDeviceControlSync10DeactivateEvE3$_1NS0_IS4_EEFvvEEEE10deallocateB8ne190102EPS7_m', symObjAddr: 0x72A4, symBinAddr: 0x100015F5C, symSize: 0x40 }
  - { offset: 0xC9E85, size: 0x8, addend: 0x0, symName: '__ZNSt3__110__function6__funcIZN20BGMDeviceControlSync10DeactivateEvE3$_1NS_9allocatorIS3_EEFvvEEC1B8ne190102ERKS3_RKS5_', symObjAddr: 0x72E4, symBinAddr: 0x100015F9C, symSize: 0x3C }
  - { offset: 0xC9ECF, size: 0x8, addend: 0x0, symName: '__ZNSt3__110__function6__funcIZN20BGMDeviceControlSync10DeactivateEvE3$_1NS_9allocatorIS3_EEFvvEEC2B8ne190102ERKS3_RKS5_', symObjAddr: 0x7320, symBinAddr: 0x100015FD8, symSize: 0x80 }
  - { offset: 0xC9F19, size: 0x8, addend: 0x0, symName: '__ZNSt3__110__function12__alloc_funcIZN20BGMDeviceControlSync10DeactivateEvE3$_1NS_9allocatorIS3_EEFvvEEC1B8ne190102ERKS3_RKS5_', symObjAddr: 0x73A0, symBinAddr: 0x100016058, symSize: 0x3C }
  - { offset: 0xC9F61, size: 0x8, addend: 0x0, symName: '__ZNSt3__110__function12__alloc_funcIZN20BGMDeviceControlSync10DeactivateEvE3$_1NS_9allocatorIS3_EEFvvEEC2B8ne190102ERKS3_RKS5_', symObjAddr: 0x73DC, symBinAddr: 0x100016094, symSize: 0x5C }
  - { offset: 0xC9FA9, size: 0x8, addend: 0x0, symName: '__ZNSt3__117__compressed_pairIZN20BGMDeviceControlSync10DeactivateEvE3$_1NS_9allocatorIS2_EEEC1B8ne190102IJRKS2_EJRKS4_EEENS_21piecewise_construct_tENS_5tupleIJDpT_EEENSC_IJDpT0_EEE', symObjAddr: 0x7464, symBinAddr: 0x10001611C, symSize: 0x3C }
  - { offset: 0xCA01A, size: 0x8, addend: 0x0, symName: '__ZNSt3__15tupleIJRKNS_9allocatorIZN20BGMDeviceControlSync10DeactivateEvE3$_1EEEEC1B8ne190102INS_4_AndELi0EEES6_', symObjAddr: 0x74A0, symBinAddr: 0x100016158, symSize: 0x34 }
  - { offset: 0xCA065, size: 0x8, addend: 0x0, symName: '__ZNSt3__15tupleIJRKNS_9allocatorIZN20BGMDeviceControlSync10DeactivateEvE3$_1EEEEC2B8ne190102INS_4_AndELi0EEES6_', symObjAddr: 0x74D4, symBinAddr: 0x10001618C, symSize: 0x34 }
  - { offset: 0xCA0B0, size: 0x8, addend: 0x0, symName: '__ZNSt3__112__tuple_implINS_15__tuple_indicesIJLm0EEEEJRKNS_9allocatorIZN20BGMDeviceControlSync10DeactivateEvE3$_1EEEEC1B8ne190102IJLm0EEJS8_EJEJEJS8_EEENS1_IJXspT_EEEENS_13__tuple_typesIJDpT0_EEENS1_IJXspT1_EEEENSC_IJDpT2_EEEDpOT3_', symObjAddr: 0x7508, symBinAddr: 0x1000161C0, symSize: 0x34 }
  - { offset: 0xCA14E, size: 0x8, addend: 0x0, symName: '__ZNSt3__112__tuple_implINS_15__tuple_indicesIJLm0EEEEJRKNS_9allocatorIZN20BGMDeviceControlSync10DeactivateEvE3$_1EEEEC2B8ne190102IJLm0EEJS8_EJEJEJS8_EEENS1_IJXspT_EEEENS_13__tuple_typesIJDpT0_EEENS1_IJXspT1_EEEENSC_IJDpT2_EEEDpOT3_', symObjAddr: 0x753C, symBinAddr: 0x1000161F4, symSize: 0x34 }
  - { offset: 0xCA1EC, size: 0x8, addend: 0x0, symName: '__ZNSt3__112__tuple_leafILm0ERKNS_9allocatorIZN20BGMDeviceControlSync10DeactivateEvE3$_1EELb0EEC2B8ne190102IS6_Li0EEEOT_', symObjAddr: 0x7570, symBinAddr: 0x100016228, symSize: 0x20 }
  - { offset: 0xCA237, size: 0x8, addend: 0x0, symName: '__ZNSt3__117__compressed_pairIZN20BGMDeviceControlSync10DeactivateEvE3$_1NS_9allocatorIS2_EEEC2B8ne190102IJRKS2_EJRKS4_EEENS_21piecewise_construct_tENS_5tupleIJDpT_EEENSC_IJDpT0_EEE', symObjAddr: 0x7590, symBinAddr: 0x100016248, symSize: 0x54 }
  - { offset: 0xCA2A8, size: 0x8, addend: 0x0, symName: '__ZNSt3__122__compressed_pair_elemINS_9allocatorIZN20BGMDeviceControlSync10DeactivateEvE3$_1EELi1ELb1EEC2B8ne190102IJRKS4_EJLm0EEEENS_21piecewise_construct_tENS_5tupleIJDpT_EEENS_15__tuple_indicesIJXspT0_EEEE', symObjAddr: 0x75E4, symBinAddr: 0x10001629C, symSize: 0x38 }
  - { offset: 0xCA312, size: 0x8, addend: 0x0, symName: '__ZNSt3__112__tuple_leafILm0ERKNS_9allocatorIZN20BGMDeviceControlSync10DeactivateEvE3$_1EELb0EE3getB8ne190102Ev', symObjAddr: 0x7640, symBinAddr: 0x1000162F8, symSize: 0x18 }
  - { offset: 0xCA338, size: 0x8, addend: 0x0, symName: '__ZNSt3__110__function12__alloc_funcIZN20BGMDeviceControlSync10DeactivateEvE3$_1NS_9allocatorIS3_EEFvvEE7destroyB8ne190102Ev', symObjAddr: 0x7658, symBinAddr: 0x100016310, symSize: 0x10 }
  - { offset: 0xCA35E, size: 0x8, addend: 0x0, symName: '__ZNSt3__110__function12__alloc_funcIZN20BGMDeviceControlSync10DeactivateEvE3$_1NS_9allocatorIS3_EEFvvEEclB8ne190102Ev', symObjAddr: 0x7668, symBinAddr: 0x100016320, symSize: 0x28 }
  - { offset: 0xCA384, size: 0x8, addend: 0x0, symName: '__ZNSt3__128__invoke_void_return_wrapperIvLb1EE6__callB8ne190102IJRZN20BGMDeviceControlSync10DeactivateEvE3$_1EEEvDpOT_', symObjAddr: 0x7690, symBinAddr: 0x100016348, symSize: 0x24 }
  - { offset: 0xCA3B5, size: 0x8, addend: 0x0, symName: '__ZNSt3__117__compressed_pairIZN20BGMDeviceControlSync10DeactivateEvE3$_1NS_9allocatorIS2_EEE5firstB8ne190102Ev', symObjAddr: 0x76B4, symBinAddr: 0x10001636C, symSize: 0x24 }
  - { offset: 0xCA3E0, size: 0x8, addend: 0x0, symName: '__ZZN20BGMDeviceControlSync10DeactivateEvENK3$_1clEv', symObjAddr: 0x76FC, symBinAddr: 0x1000163B4, symSize: 0x40 }
  - { offset: 0xCA40A, size: 0x8, addend: 0x0, symName: '__ZNSt3__122__compressed_pair_elemIZN20BGMDeviceControlSync10DeactivateEvE3$_1Li0ELb0EE5__getB8ne190102Ev', symObjAddr: 0x773C, symBinAddr: 0x1000163F4, symSize: 0x14 }
  - { offset: 0xCC42C, size: 0x8, addend: 0x0, symName: __ZL32kBGMEnabledOutputControlsAddress, symObjAddr: 0xEA50, symBinAddr: 0x100050160, symSize: 0x0 }
  - { offset: 0xCC45E, size: 0x8, addend: 0x0, symName: __ZNSt3__1L19piecewise_constructE, symObjAddr: 0xEAE3, symBinAddr: 0x1000501C7, symSize: 0x0 }
  - { offset: 0xCE2BE, size: 0x8, addend: 0x0, symName: '__ZNSt3__110__function10__not_nullB8ne190102IZN21BGMDeviceControlsListD1EvE3$_0EEbRKT_', symObjAddr: 0x2980, symBinAddr: 0x1000187D4, symSize: 0x18 }
  - { offset: 0xCE2F2, size: 0x8, addend: 0x0, symName: '__ZNSt3__110__function10__not_nullB8ne190102IZN21BGMDeviceControlsList19MatchControlsListOfEjE3$_0EEbRKT_', symObjAddr: 0x4654, symBinAddr: 0x10001A188, symSize: 0x18 }
  - { offset: 0xCE326, size: 0x8, addend: 0x0, symName: '__ZNSt3__110__function10__not_nullB8ne190102IZN21BGMDeviceControlsList26PropagateControlListChangeEvE3$_0EEbRKT_', symObjAddr: 0x60AC, symBinAddr: 0x10001BBE0, symSize: 0x18 }
  - { offset: 0xCE35A, size: 0x8, addend: 0x0, symName: '__ZNSt3__110__function10__not_nullB8ne190102IZN21BGMDeviceControlsList18InitDeviceTogglingEvE3$_0EEbRKT_', symObjAddr: 0x791C, symBinAddr: 0x10001D450, symSize: 0x18 }
  - { offset: 0xCE38E, size: 0x8, addend: 0x0, symName: '__ZNSt3__110__function10__not_nullB8ne190102IZZN21BGMDeviceControlsList23CreateDeviceToggleBlockEvEUb_E3$_4EEbRKT_', symObjAddr: 0x9274, symBinAddr: 0x10001EDA8, symSize: 0x18 }
  - { offset: 0xCE3C2, size: 0x8, addend: 0x0, symName: '__ZNSt3__110__function10__not_nullB8ne190102IZZN21BGMDeviceControlsList27CreateDeviceToggleBackBlockEvEUb0_E3$_5EEbRKT_', symObjAddr: 0xAA94, symBinAddr: 0x1000205C8, symSize: 0x18 }
  - { offset: 0xCE3F6, size: 0x8, addend: 0x0, symName: '__ZNSt3__110__function10__not_nullB8ne190102IZZN21BGMDeviceControlsList28CreateDisableNullDeviceBlockEvEUb1_E3$_6EEbRKT_', symObjAddr: 0xC2D8, symBinAddr: 0x100021E0C, symSize: 0x18 }
  - { offset: 0xD5898, size: 0x8, addend: 0x0, symName: '__ZNSt3__116forward_as_tupleB8ne190102IJZN21BGMDeviceControlsListD1EvE3$_0EEENS_5tupleIJDpOT_EEES6_', symObjAddr: 0x2EF0, symBinAddr: 0x100018CEC, symSize: 0x2C }
  - { offset: 0xD58D5, size: 0x8, addend: 0x0, symName: '__ZNSt3__116forward_as_tupleB8ne190102IJNS_9allocatorIZN21BGMDeviceControlsListD1EvE3$_0EEEEENS_5tupleIJDpOT_EEES8_', symObjAddr: 0x2F1C, symBinAddr: 0x100018D18, symSize: 0x2C }
  - { offset: 0xD5942, size: 0x8, addend: 0x0, symName: '__ZNSt3__13getB8ne190102ILm0EJOZN21BGMDeviceControlsListD1EvE3$_0EEERNS_13tuple_elementIXT_ENS_5tupleIJDpT0_EEEE4typeERS8_', symObjAddr: 0x3234, symBinAddr: 0x100019030, symSize: 0x24 }
  - { offset: 0xD598A, size: 0x8, addend: 0x0, symName: '__ZNSt3__13getB8ne190102ILm0EJONS_9allocatorIZN21BGMDeviceControlsListD1EvE3$_0EEEEERNS_13tuple_elementIXT_ENS_5tupleIJDpT0_EEEE4typeERSA_', symObjAddr: 0x3270, symBinAddr: 0x10001906C, symSize: 0x24 }
  - { offset: 0xD5F2D, size: 0x8, addend: 0x0, symName: '__ZNSt3__116forward_as_tupleB8ne190102IJRKZN21BGMDeviceControlsListD1EvE3$_0EEENS_5tupleIJDpOT_EEES8_', symObjAddr: 0x3878, symBinAddr: 0x1000195F4, symSize: 0x2C }
  - { offset: 0xD5F82, size: 0x8, addend: 0x0, symName: '__ZNSt3__13getB8ne190102ILm0EJRKZN21BGMDeviceControlsListD1EvE3$_0EEERNS_13tuple_elementIXT_ENS_5tupleIJDpT0_EEEE4typeERS9_', symObjAddr: 0x3A68, symBinAddr: 0x1000197E4, symSize: 0x24 }
  - { offset: 0xD5FCA, size: 0x8, addend: 0x0, symName: '__ZNSt3__116forward_as_tupleB8ne190102IJRKNS_9allocatorIZN21BGMDeviceControlsListD1EvE3$_0EEEEENS_5tupleIJDpOT_EEESA_', symObjAddr: 0x3E30, symBinAddr: 0x100019B30, symSize: 0x2C }
  - { offset: 0xD601F, size: 0x8, addend: 0x0, symName: '__ZNSt3__13getB8ne190102ILm0EJRKNS_9allocatorIZN21BGMDeviceControlsListD1EvE3$_0EEEEERNS_13tuple_elementIXT_ENS_5tupleIJDpT0_EEEE4typeERSB_', symObjAddr: 0x4014, symBinAddr: 0x100019D14, symSize: 0x24 }
  - { offset: 0xD6158, size: 0x8, addend: 0x0, symName: '__ZNSt3__18__invokeB8ne190102IRZN21BGMDeviceControlsListD1EvE3$_0JEEEDTclclsr3stdE7declvalIT_EEspclsr3stdE7declvalIT0_EEEEOS4_DpOS5_', symObjAddr: 0x40D0, symBinAddr: 0x100019DD0, symSize: 0x24 }
  - { offset: 0xD6870, size: 0x8, addend: 0x0, symName: '__ZNSt3__116forward_as_tupleB8ne190102IJZN21BGMDeviceControlsList19MatchControlsListOfEjE3$_0EEENS_5tupleIJDpOT_EEES6_', symObjAddr: 0x4E24, symBinAddr: 0x10001A958, symSize: 0x2C }
  - { offset: 0xD68AD, size: 0x8, addend: 0x0, symName: '__ZNSt3__116forward_as_tupleB8ne190102IJNS_9allocatorIZN21BGMDeviceControlsList19MatchControlsListOfEjE3$_0EEEEENS_5tupleIJDpOT_EEES8_', symObjAddr: 0x4E50, symBinAddr: 0x10001A984, symSize: 0x2C }
  - { offset: 0xD691A, size: 0x8, addend: 0x0, symName: '__ZNSt3__13getB8ne190102ILm0EJOZN21BGMDeviceControlsList19MatchControlsListOfEjE3$_0EEERNS_13tuple_elementIXT_ENS_5tupleIJDpT0_EEEE4typeERS8_', symObjAddr: 0x5170, symBinAddr: 0x10001ACA4, symSize: 0x24 }
  - { offset: 0xD6962, size: 0x8, addend: 0x0, symName: '__ZNSt3__13getB8ne190102ILm0EJONS_9allocatorIZN21BGMDeviceControlsList19MatchControlsListOfEjE3$_0EEEEERNS_13tuple_elementIXT_ENS_5tupleIJDpT0_EEEE4typeERSA_', symObjAddr: 0x51AC, symBinAddr: 0x10001ACE0, symSize: 0x24 }
  - { offset: 0xD6B58, size: 0x8, addend: 0x0, symName: '__ZNSt3__116forward_as_tupleB8ne190102IJRKZN21BGMDeviceControlsList19MatchControlsListOfEjE3$_0EEENS_5tupleIJDpOT_EEES8_', symObjAddr: 0x55A0, symBinAddr: 0x10001B0D4, symSize: 0x2C }
  - { offset: 0xD6BAD, size: 0x8, addend: 0x0, symName: '__ZNSt3__13getB8ne190102ILm0EJRKZN21BGMDeviceControlsList19MatchControlsListOfEjE3$_0EEERNS_13tuple_elementIXT_ENS_5tupleIJDpT0_EEEE4typeERS9_', symObjAddr: 0x5798, symBinAddr: 0x10001B2CC, symSize: 0x24 }
  - { offset: 0xD6BF5, size: 0x8, addend: 0x0, symName: '__ZNSt3__116forward_as_tupleB8ne190102IJRKNS_9allocatorIZN21BGMDeviceControlsList19MatchControlsListOfEjE3$_0EEEEENS_5tupleIJDpOT_EEESA_', symObjAddr: 0x5AE8, symBinAddr: 0x10001B61C, symSize: 0x2C }
  - { offset: 0xD6C4A, size: 0x8, addend: 0x0, symName: '__ZNSt3__13getB8ne190102ILm0EJRKNS_9allocatorIZN21BGMDeviceControlsList19MatchControlsListOfEjE3$_0EEEEERNS_13tuple_elementIXT_ENS_5tupleIJDpT0_EEEE4typeERSB_', symObjAddr: 0x5CCC, symBinAddr: 0x10001B800, symSize: 0x24 }
  - { offset: 0xD6C92, size: 0x8, addend: 0x0, symName: '__ZNSt3__18__invokeB8ne190102IRZN21BGMDeviceControlsList19MatchControlsListOfEjE3$_0JEEEDTclclsr3stdE7declvalIT_EEspclsr3stdE7declvalIT0_EEEEOS4_DpOS5_', symObjAddr: 0x5D88, symBinAddr: 0x10001B8BC, symSize: 0x24 }
  - { offset: 0xD6E4F, size: 0x8, addend: 0x0, symName: '__ZNSt3__116forward_as_tupleB8ne190102IJZN21BGMDeviceControlsList26PropagateControlListChangeEvE3$_0EEENS_5tupleIJDpOT_EEES6_', symObjAddr: 0x65C4, symBinAddr: 0x10001C0F8, symSize: 0x2C }
  - { offset: 0xD6E8C, size: 0x8, addend: 0x0, symName: '__ZNSt3__116forward_as_tupleB8ne190102IJNS_9allocatorIZN21BGMDeviceControlsList26PropagateControlListChangeEvE3$_0EEEEENS_5tupleIJDpOT_EEES8_', symObjAddr: 0x65F0, symBinAddr: 0x10001C124, symSize: 0x2C }
  - { offset: 0xD6EF9, size: 0x8, addend: 0x0, symName: '__ZNSt3__13getB8ne190102ILm0EJOZN21BGMDeviceControlsList26PropagateControlListChangeEvE3$_0EEERNS_13tuple_elementIXT_ENS_5tupleIJDpT0_EEEE4typeERS8_', symObjAddr: 0x6908, symBinAddr: 0x10001C43C, symSize: 0x24 }
  - { offset: 0xD6F41, size: 0x8, addend: 0x0, symName: '__ZNSt3__13getB8ne190102ILm0EJONS_9allocatorIZN21BGMDeviceControlsList26PropagateControlListChangeEvE3$_0EEEEERNS_13tuple_elementIXT_ENS_5tupleIJDpT0_EEEE4typeERSA_', symObjAddr: 0x6944, symBinAddr: 0x10001C478, symSize: 0x24 }
  - { offset: 0xD74E4, size: 0x8, addend: 0x0, symName: '__ZNSt3__116forward_as_tupleB8ne190102IJRKZN21BGMDeviceControlsList26PropagateControlListChangeEvE3$_0EEENS_5tupleIJDpOT_EEES8_', symObjAddr: 0x6ED4, symBinAddr: 0x10001CA08, symSize: 0x2C }
  - { offset: 0xD7539, size: 0x8, addend: 0x0, symName: '__ZNSt3__13getB8ne190102ILm0EJRKZN21BGMDeviceControlsList26PropagateControlListChangeEvE3$_0EEERNS_13tuple_elementIXT_ENS_5tupleIJDpT0_EEEE4typeERS9_', symObjAddr: 0x70C4, symBinAddr: 0x10001CBF8, symSize: 0x24 }
  - { offset: 0xD7581, size: 0x8, addend: 0x0, symName: '__ZNSt3__116forward_as_tupleB8ne190102IJRKNS_9allocatorIZN21BGMDeviceControlsList26PropagateControlListChangeEvE3$_0EEEEENS_5tupleIJDpOT_EEESA_', symObjAddr: 0x7414, symBinAddr: 0x10001CF48, symSize: 0x2C }
  - { offset: 0xD75D6, size: 0x8, addend: 0x0, symName: '__ZNSt3__13getB8ne190102ILm0EJRKNS_9allocatorIZN21BGMDeviceControlsList26PropagateControlListChangeEvE3$_0EEEEERNS_13tuple_elementIXT_ENS_5tupleIJDpT0_EEEE4typeERSB_', symObjAddr: 0x75F8, symBinAddr: 0x10001D12C, symSize: 0x24 }
  - { offset: 0xD761E, size: 0x8, addend: 0x0, symName: '__ZNSt3__18__invokeB8ne190102IRZN21BGMDeviceControlsList26PropagateControlListChangeEvE3$_0JEEEDTclclsr3stdE7declvalIT_EEspclsr3stdE7declvalIT0_EEEEOS4_DpOS5_', symObjAddr: 0x76B4, symBinAddr: 0x10001D1E8, symSize: 0x24 }
  - { offset: 0xD77DB, size: 0x8, addend: 0x0, symName: '__ZNSt3__116forward_as_tupleB8ne190102IJZN21BGMDeviceControlsList18InitDeviceTogglingEvE3$_0EEENS_5tupleIJDpOT_EEES6_', symObjAddr: 0x7E34, symBinAddr: 0x10001D968, symSize: 0x2C }
  - { offset: 0xD7818, size: 0x8, addend: 0x0, symName: '__ZNSt3__116forward_as_tupleB8ne190102IJNS_9allocatorIZN21BGMDeviceControlsList18InitDeviceTogglingEvE3$_0EEEEENS_5tupleIJDpOT_EEES8_', symObjAddr: 0x7E60, symBinAddr: 0x10001D994, symSize: 0x2C }
  - { offset: 0xD7885, size: 0x8, addend: 0x0, symName: '__ZNSt3__13getB8ne190102ILm0EJOZN21BGMDeviceControlsList18InitDeviceTogglingEvE3$_0EEERNS_13tuple_elementIXT_ENS_5tupleIJDpT0_EEEE4typeERS8_', symObjAddr: 0x8178, symBinAddr: 0x10001DCAC, symSize: 0x24 }
  - { offset: 0xD78CD, size: 0x8, addend: 0x0, symName: '__ZNSt3__13getB8ne190102ILm0EJONS_9allocatorIZN21BGMDeviceControlsList18InitDeviceTogglingEvE3$_0EEEEERNS_13tuple_elementIXT_ENS_5tupleIJDpT0_EEEE4typeERSA_', symObjAddr: 0x81B4, symBinAddr: 0x10001DCE8, symSize: 0x24 }
  - { offset: 0xD7E70, size: 0x8, addend: 0x0, symName: '__ZNSt3__116forward_as_tupleB8ne190102IJRKZN21BGMDeviceControlsList18InitDeviceTogglingEvE3$_0EEENS_5tupleIJDpOT_EEES8_', symObjAddr: 0x873C, symBinAddr: 0x10001E270, symSize: 0x2C }
  - { offset: 0xD7EC5, size: 0x8, addend: 0x0, symName: '__ZNSt3__13getB8ne190102ILm0EJRKZN21BGMDeviceControlsList18InitDeviceTogglingEvE3$_0EEERNS_13tuple_elementIXT_ENS_5tupleIJDpT0_EEEE4typeERS9_', symObjAddr: 0x892C, symBinAddr: 0x10001E460, symSize: 0x24 }
  - { offset: 0xD7F0D, size: 0x8, addend: 0x0, symName: '__ZNSt3__116forward_as_tupleB8ne190102IJRKNS_9allocatorIZN21BGMDeviceControlsList18InitDeviceTogglingEvE3$_0EEEEENS_5tupleIJDpOT_EEESA_', symObjAddr: 0x8C78, symBinAddr: 0x10001E7AC, symSize: 0x2C }
  - { offset: 0xD7F62, size: 0x8, addend: 0x0, symName: '__ZNSt3__13getB8ne190102ILm0EJRKNS_9allocatorIZN21BGMDeviceControlsList18InitDeviceTogglingEvE3$_0EEEEERNS_13tuple_elementIXT_ENS_5tupleIJDpT0_EEEE4typeERSB_', symObjAddr: 0x8E5C, symBinAddr: 0x10001E990, symSize: 0x24 }
  - { offset: 0xD7FAA, size: 0x8, addend: 0x0, symName: '__ZNSt3__18__invokeB8ne190102IRZN21BGMDeviceControlsList18InitDeviceTogglingEvE3$_0JEEEDTclclsr3stdE7declvalIT_EEspclsr3stdE7declvalIT0_EEEEOS4_DpOS5_', symObjAddr: 0x8F18, symBinAddr: 0x10001EA4C, symSize: 0x24 }
  - { offset: 0xD8167, size: 0x8, addend: 0x0, symName: '__ZNSt3__116forward_as_tupleB8ne190102IJZZN21BGMDeviceControlsList23CreateDeviceToggleBlockEvEUb_E3$_4EEENS_5tupleIJDpOT_EEES6_', symObjAddr: 0x978C, symBinAddr: 0x10001F2C0, symSize: 0x2C }
  - { offset: 0xD81A4, size: 0x8, addend: 0x0, symName: '__ZNSt3__116forward_as_tupleB8ne190102IJNS_9allocatorIZZN21BGMDeviceControlsList23CreateDeviceToggleBlockEvEUb_E3$_4EEEEENS_5tupleIJDpOT_EEES8_', symObjAddr: 0x97B8, symBinAddr: 0x10001F2EC, symSize: 0x2C }
  - { offset: 0xD8211, size: 0x8, addend: 0x0, symName: '__ZNSt3__13getB8ne190102ILm0EJOZZN21BGMDeviceControlsList23CreateDeviceToggleBlockEvEUb_E3$_4EEERNS_13tuple_elementIXT_ENS_5tupleIJDpT0_EEEE4typeERS8_', symObjAddr: 0x9AD0, symBinAddr: 0x10001F604, symSize: 0x24 }
  - { offset: 0xD8259, size: 0x8, addend: 0x0, symName: '__ZNSt3__13getB8ne190102ILm0EJONS_9allocatorIZZN21BGMDeviceControlsList23CreateDeviceToggleBlockEvEUb_E3$_4EEEEERNS_13tuple_elementIXT_ENS_5tupleIJDpT0_EEEE4typeERSA_', symObjAddr: 0x9B0C, symBinAddr: 0x10001F640, symSize: 0x24 }
  - { offset: 0xD87FC, size: 0x8, addend: 0x0, symName: '__ZNSt3__116forward_as_tupleB8ne190102IJRKZZN21BGMDeviceControlsList23CreateDeviceToggleBlockEvEUb_E3$_4EEENS_5tupleIJDpOT_EEES8_', symObjAddr: 0xA094, symBinAddr: 0x10001FBC8, symSize: 0x2C }
  - { offset: 0xD8851, size: 0x8, addend: 0x0, symName: '__ZNSt3__13getB8ne190102ILm0EJRKZZN21BGMDeviceControlsList23CreateDeviceToggleBlockEvEUb_E3$_4EEERNS_13tuple_elementIXT_ENS_5tupleIJDpT0_EEEE4typeERS9_', symObjAddr: 0xA284, symBinAddr: 0x10001FDB8, symSize: 0x24 }
  - { offset: 0xD8899, size: 0x8, addend: 0x0, symName: '__ZNSt3__116forward_as_tupleB8ne190102IJRKNS_9allocatorIZZN21BGMDeviceControlsList23CreateDeviceToggleBlockEvEUb_E3$_4EEEEENS_5tupleIJDpOT_EEESA_', symObjAddr: 0xA5D0, symBinAddr: 0x100020104, symSize: 0x2C }
  - { offset: 0xD88EE, size: 0x8, addend: 0x0, symName: '__ZNSt3__13getB8ne190102ILm0EJRKNS_9allocatorIZZN21BGMDeviceControlsList23CreateDeviceToggleBlockEvEUb_E3$_4EEEEERNS_13tuple_elementIXT_ENS_5tupleIJDpT0_EEEE4typeERSB_', symObjAddr: 0xA7B4, symBinAddr: 0x1000202E8, symSize: 0x24 }
  - { offset: 0xD8936, size: 0x8, addend: 0x0, symName: '__ZNSt3__18__invokeB8ne190102IRZZN21BGMDeviceControlsList23CreateDeviceToggleBlockEvEUb_E3$_4JEEEDTclclsr3stdE7declvalIT_EEspclsr3stdE7declvalIT0_EEEEOS4_DpOS5_', symObjAddr: 0xA870, symBinAddr: 0x1000203A4, symSize: 0x24 }
  - { offset: 0xD8AF3, size: 0x8, addend: 0x0, symName: '__ZNSt3__116forward_as_tupleB8ne190102IJZZN21BGMDeviceControlsList27CreateDeviceToggleBackBlockEvEUb0_E3$_5EEENS_5tupleIJDpOT_EEES6_', symObjAddr: 0xAFAC, symBinAddr: 0x100020AE0, symSize: 0x2C }
  - { offset: 0xD8B30, size: 0x8, addend: 0x0, symName: '__ZNSt3__116forward_as_tupleB8ne190102IJNS_9allocatorIZZN21BGMDeviceControlsList27CreateDeviceToggleBackBlockEvEUb0_E3$_5EEEEENS_5tupleIJDpOT_EEES8_', symObjAddr: 0xAFD8, symBinAddr: 0x100020B0C, symSize: 0x2C }
  - { offset: 0xD8B9D, size: 0x8, addend: 0x0, symName: '__ZNSt3__13getB8ne190102ILm0EJOZZN21BGMDeviceControlsList27CreateDeviceToggleBackBlockEvEUb0_E3$_5EEERNS_13tuple_elementIXT_ENS_5tupleIJDpT0_EEEE4typeERS8_', symObjAddr: 0xB2F0, symBinAddr: 0x100020E24, symSize: 0x24 }
  - { offset: 0xD8BE5, size: 0x8, addend: 0x0, symName: '__ZNSt3__13getB8ne190102ILm0EJONS_9allocatorIZZN21BGMDeviceControlsList27CreateDeviceToggleBackBlockEvEUb0_E3$_5EEEEERNS_13tuple_elementIXT_ENS_5tupleIJDpT0_EEEE4typeERSA_', symObjAddr: 0xB32C, symBinAddr: 0x100020E60, symSize: 0x24 }
  - { offset: 0xD9188, size: 0x8, addend: 0x0, symName: '__ZNSt3__116forward_as_tupleB8ne190102IJRKZZN21BGMDeviceControlsList27CreateDeviceToggleBackBlockEvEUb0_E3$_5EEENS_5tupleIJDpOT_EEES8_', symObjAddr: 0xB8B4, symBinAddr: 0x1000213E8, symSize: 0x2C }
  - { offset: 0xD91DD, size: 0x8, addend: 0x0, symName: '__ZNSt3__13getB8ne190102ILm0EJRKZZN21BGMDeviceControlsList27CreateDeviceToggleBackBlockEvEUb0_E3$_5EEERNS_13tuple_elementIXT_ENS_5tupleIJDpT0_EEEE4typeERS9_', symObjAddr: 0xBAA4, symBinAddr: 0x1000215D8, symSize: 0x24 }
  - { offset: 0xD9225, size: 0x8, addend: 0x0, symName: '__ZNSt3__116forward_as_tupleB8ne190102IJRKNS_9allocatorIZZN21BGMDeviceControlsList27CreateDeviceToggleBackBlockEvEUb0_E3$_5EEEEENS_5tupleIJDpOT_EEESA_', symObjAddr: 0xBDF0, symBinAddr: 0x100021924, symSize: 0x2C }
  - { offset: 0xD927A, size: 0x8, addend: 0x0, symName: '__ZNSt3__13getB8ne190102ILm0EJRKNS_9allocatorIZZN21BGMDeviceControlsList27CreateDeviceToggleBackBlockEvEUb0_E3$_5EEEEERNS_13tuple_elementIXT_ENS_5tupleIJDpT0_EEEE4typeERSB_', symObjAddr: 0xBFD4, symBinAddr: 0x100021B08, symSize: 0x24 }
  - { offset: 0xD92C2, size: 0x8, addend: 0x0, symName: '__ZNSt3__18__invokeB8ne190102IRZZN21BGMDeviceControlsList27CreateDeviceToggleBackBlockEvEUb0_E3$_5JEEEDTclclsr3stdE7declvalIT_EEspclsr3stdE7declvalIT0_EEEEOS4_DpOS5_', symObjAddr: 0xC090, symBinAddr: 0x100021BC4, symSize: 0x24 }
  - { offset: 0xD947F, size: 0x8, addend: 0x0, symName: '__ZNSt3__116forward_as_tupleB8ne190102IJZZN21BGMDeviceControlsList28CreateDisableNullDeviceBlockEvEUb1_E3$_6EEENS_5tupleIJDpOT_EEES6_', symObjAddr: 0xC7F0, symBinAddr: 0x100022324, symSize: 0x2C }
  - { offset: 0xD94BC, size: 0x8, addend: 0x0, symName: '__ZNSt3__116forward_as_tupleB8ne190102IJNS_9allocatorIZZN21BGMDeviceControlsList28CreateDisableNullDeviceBlockEvEUb1_E3$_6EEEEENS_5tupleIJDpOT_EEES8_', symObjAddr: 0xC81C, symBinAddr: 0x100022350, symSize: 0x2C }
  - { offset: 0xD9529, size: 0x8, addend: 0x0, symName: '__ZNSt3__13getB8ne190102ILm0EJOZZN21BGMDeviceControlsList28CreateDisableNullDeviceBlockEvEUb1_E3$_6EEERNS_13tuple_elementIXT_ENS_5tupleIJDpT0_EEEE4typeERS8_', symObjAddr: 0xCB34, symBinAddr: 0x100022668, symSize: 0x24 }
  - { offset: 0xD9571, size: 0x8, addend: 0x0, symName: '__ZNSt3__13getB8ne190102ILm0EJONS_9allocatorIZZN21BGMDeviceControlsList28CreateDisableNullDeviceBlockEvEUb1_E3$_6EEEEERNS_13tuple_elementIXT_ENS_5tupleIJDpT0_EEEE4typeERSA_', symObjAddr: 0xCB70, symBinAddr: 0x1000226A4, symSize: 0x24 }
  - { offset: 0xD9B14, size: 0x8, addend: 0x0, symName: '__ZNSt3__116forward_as_tupleB8ne190102IJRKZZN21BGMDeviceControlsList28CreateDisableNullDeviceBlockEvEUb1_E3$_6EEENS_5tupleIJDpOT_EEES8_', symObjAddr: 0xD0F8, symBinAddr: 0x100022C2C, symSize: 0x2C }
  - { offset: 0xD9B69, size: 0x8, addend: 0x0, symName: '__ZNSt3__13getB8ne190102ILm0EJRKZZN21BGMDeviceControlsList28CreateDisableNullDeviceBlockEvEUb1_E3$_6EEERNS_13tuple_elementIXT_ENS_5tupleIJDpT0_EEEE4typeERS9_', symObjAddr: 0xD2E8, symBinAddr: 0x100022E1C, symSize: 0x24 }
  - { offset: 0xD9BB1, size: 0x8, addend: 0x0, symName: '__ZNSt3__116forward_as_tupleB8ne190102IJRKNS_9allocatorIZZN21BGMDeviceControlsList28CreateDisableNullDeviceBlockEvEUb1_E3$_6EEEEENS_5tupleIJDpOT_EEESA_', symObjAddr: 0xD634, symBinAddr: 0x100023168, symSize: 0x2C }
  - { offset: 0xD9C06, size: 0x8, addend: 0x0, symName: '__ZNSt3__13getB8ne190102ILm0EJRKNS_9allocatorIZZN21BGMDeviceControlsList28CreateDisableNullDeviceBlockEvEUb1_E3$_6EEEEERNS_13tuple_elementIXT_ENS_5tupleIJDpT0_EEEE4typeERSB_', symObjAddr: 0xD818, symBinAddr: 0x10002334C, symSize: 0x24 }
  - { offset: 0xD9C4E, size: 0x8, addend: 0x0, symName: '__ZNSt3__18__invokeB8ne190102IRZZN21BGMDeviceControlsList28CreateDisableNullDeviceBlockEvEUb1_E3$_6JEEEDTclclsr3stdE7declvalIT_EEspclsr3stdE7declvalIT0_EEEEOS4_DpOS5_', symObjAddr: 0xD8D4, symBinAddr: 0x100023408, symSize: 0x24 }
  - { offset: 0xDB62B, size: 0x8, addend: 0x0, symName: __ZN21BGMDeviceControlsListD1Ev, symObjAddr: 0x700, symBinAddr: 0x100016A38, symSize: 0x2C }
  - { offset: 0xDB8D4, size: 0x8, addend: 0x0, symName: __ZN21BGMDeviceControlsList19MatchControlsListOfEj, symObjAddr: 0x868, symBinAddr: 0x100016B6C, symSize: 0x868 }
  - { offset: 0xDBC77, size: 0x8, addend: 0x0, symName: __ZN21BGMDeviceControlsList26PropagateControlListChangeEv, symObjAddr: 0x1374, symBinAddr: 0x1000174C0, symSize: 0x27C }
  - { offset: 0xDBF95, size: 0x8, addend: 0x0, symName: __ZN21BGMDeviceControlsList18InitDeviceTogglingEv, symObjAddr: 0x1614, symBinAddr: 0x10001773C, symSize: 0x23C }
  - { offset: 0xDC23F, size: 0x8, addend: 0x0, symName: ____ZN21BGMDeviceControlsList23CreateDeviceToggleBlockEv_block_invoke, symObjAddr: 0x1EE4, symBinAddr: 0x100017FD8, symSize: 0x11C }
  - { offset: 0xDC4DD, size: 0x8, addend: 0x0, symName: ____ZN21BGMDeviceControlsList27CreateDeviceToggleBackBlockEv_block_invoke, symObjAddr: 0x2034, symBinAddr: 0x100018128, symSize: 0x1F8 }
  - { offset: 0xDC77C, size: 0x8, addend: 0x0, symName: ____ZN21BGMDeviceControlsList28CreateDisableNullDeviceBlockEv_block_invoke, symObjAddr: 0x22E4, symBinAddr: 0x1000183D8, symSize: 0x1B4 }
  - { offset: 0xDCA1B, size: 0x8, addend: 0x0, symName: __ZN21BGMDeviceControlsListC2Ej22CAHALAudioSystemObject, symObjAddr: 0x0, symBinAddr: 0x100016408, symSize: 0x188 }
  - { offset: 0xDCA66, size: 0x8, addend: 0x0, symName: __ZNK14BGMAudioDevice11IsBGMDeviceEv, symObjAddr: 0x1BC, symBinAddr: 0x100016590, symSize: 0x2C }
  - { offset: 0xDCA8C, size: 0x8, addend: 0x0, symName: __ZN21BGMDeviceControlsListC1Ej22CAHALAudioSystemObject, symObjAddr: 0x1E8, symBinAddr: 0x1000165BC, symSize: 0x3C }
  - { offset: 0xDCAD7, size: 0x8, addend: 0x0, symName: __ZN21BGMDeviceControlsListD2Ev, symObjAddr: 0x224, symBinAddr: 0x1000165F8, symSize: 0x298 }
  - { offset: 0xDCBBE, size: 0x8, addend: 0x0, symName: '__ZNSt3__18functionIFvvEEC1IZN21BGMDeviceControlsListD1EvE3$_0vEET_', symObjAddr: 0x500, symBinAddr: 0x100016890, symSize: 0x34 }
  - { offset: 0xDCC04, size: 0x8, addend: 0x0, symName: __ZN21BGMDeviceControlsList12DestroyBlockERU13block_pointerFvvE, symObjAddr: 0x560, symBinAddr: 0x1000168C4, symSize: 0xD8 }
  - { offset: 0xDCC6A, size: 0x8, addend: 0x0, symName: __ZN9BGM_Utils2NNIP16dispatch_queue_sEET_S3_, symObjAddr: 0x638, symBinAddr: 0x10001699C, symSize: 0x9C }
  - { offset: 0xDCCA2, size: 0x8, addend: 0x0, symName: __ZN9BGM_Utils2NNIU13block_pointerFvvEEET_S3_, symObjAddr: 0x1C40, symBinAddr: 0x100017D68, symSize: 0x9C }
  - { offset: 0xDCCDB, size: 0x8, addend: 0x0, symName: __ZN21BGMDeviceControlsList12SetBGMDeviceEj, symObjAddr: 0x72C, symBinAddr: 0x100016A64, symSize: 0x108 }
  - { offset: 0xDCD26, size: 0x8, addend: 0x0, symName: '__ZNSt3__18functionIFvvEEC1IZN21BGMDeviceControlsList19MatchControlsListOfEjE3$_0vEET_', symObjAddr: 0x1214, symBinAddr: 0x1000173D4, symSize: 0x34 }
  - { offset: 0xDCD6D, size: 0x8, addend: 0x0, symName: __ZN9CACFArrayC1Ev, symObjAddr: 0x1248, symBinAddr: 0x100017408, symSize: 0x2C }
  - { offset: 0xDCD97, size: 0x8, addend: 0x0, symName: __ZN9CACFArray25SetCFMutableArrayFromCopyEPK9__CFArrayb, symObjAddr: 0x1274, symBinAddr: 0x100017434, symSize: 0x5C }
  - { offset: 0xDCDDB, size: 0x8, addend: 0x0, symName: __ZNK9CACFArray10GetCFArrayEv, symObjAddr: 0x12D0, symBinAddr: 0x100017490, symSize: 0x18 }
  - { offset: 0xDCE01, size: 0x8, addend: 0x0, symName: __ZNK9CACFArray17GetCFMutableArrayEv, symObjAddr: 0x1330, symBinAddr: 0x1000174A8, symSize: 0x18 }
  - { offset: 0xDCE27, size: 0x8, addend: 0x0, symName: '__ZNSt3__18functionIFvvEEC1IZN21BGMDeviceControlsList26PropagateControlListChangeEvE3$_0vEET_', symObjAddr: 0x1850, symBinAddr: 0x100017978, symSize: 0x3C }
  - { offset: 0xDCE6D, size: 0x8, addend: 0x0, symName: __ZN21BGMDeviceControlsList20SetNullDeviceEnabledEb, symObjAddr: 0x188C, symBinAddr: 0x1000179B4, symSize: 0x190 }
  - { offset: 0xDCEC6, size: 0x8, addend: 0x0, symName: ____ZN21BGMDeviceControlsList18InitDeviceTogglingEv_block_invoke, symObjAddr: 0x1A1C, symBinAddr: 0x100017B44, symSize: 0x1A0 }
  - { offset: 0xDCF40, size: 0x8, addend: 0x0, symName: __ZN21BGMDeviceControlsList23CreateDeviceToggleBlockEv, symObjAddr: 0x1BBC, symBinAddr: 0x100017CE4, symSize: 0x84 }
  - { offset: 0xDCF79, size: 0x8, addend: 0x0, symName: '__ZNSt3__18functionIFvvEEC1IZN21BGMDeviceControlsList18InitDeviceTogglingEvE3$_0vEET_', symObjAddr: 0x1CDC, symBinAddr: 0x100017E04, symSize: 0x34 }
  - { offset: 0xDCFBF, size: 0x8, addend: 0x0, symName: __ZN21BGMDeviceControlsList19ToggleDefaultDeviceEv, symObjAddr: 0x1D10, symBinAddr: 0x100017E38, symSize: 0x11C }
  - { offset: 0xDCFF8, size: 0x8, addend: 0x0, symName: __ZN21BGMDeviceControlsList27CreateDeviceToggleBackBlockEv, symObjAddr: 0x1E2C, symBinAddr: 0x100017F54, symSize: 0x84 }
  - { offset: 0xDD031, size: 0x8, addend: 0x0, symName: '__ZNSt3__18functionIFvvEEC1IZZN21BGMDeviceControlsList23CreateDeviceToggleBlockEvEUb_E3$_4vEET_', symObjAddr: 0x2000, symBinAddr: 0x1000180F4, symSize: 0x34 }
  - { offset: 0xDD077, size: 0x8, addend: 0x0, symName: '__ZNSt3__18functionIFvvEEC1IZZN21BGMDeviceControlsList27CreateDeviceToggleBackBlockEvEUb0_E3$_5vEET_', symObjAddr: 0x222C, symBinAddr: 0x100018320, symSize: 0x34 }
  - { offset: 0xDD0BD, size: 0x8, addend: 0x0, symName: __ZN21BGMDeviceControlsList28CreateDisableNullDeviceBlockEv, symObjAddr: 0x2260, symBinAddr: 0x100018354, symSize: 0x84 }
  - { offset: 0xDD0F6, size: 0x8, addend: 0x0, symName: '__ZNSt3__18functionIFvvEEC1IZZN21BGMDeviceControlsList28CreateDisableNullDeviceBlockEvEUb1_E3$_6vEET_', symObjAddr: 0x2498, symBinAddr: 0x10001858C, symSize: 0x34 }
  - { offset: 0xDD148, size: 0x8, addend: 0x0, symName: __ZN9CACFArrayC2Ev, symObjAddr: 0x26B0, symBinAddr: 0x1000185C0, symSize: 0x50 }
  - { offset: 0xDD172, size: 0x8, addend: 0x0, symName: '__ZNSt3__18functionIFvvEEC2IZN21BGMDeviceControlsListD1EvE3$_0vEET_', symObjAddr: 0x27BC, symBinAddr: 0x100018610, symSize: 0x38 }
  - { offset: 0xDD1B8, size: 0x8, addend: 0x0, symName: '__ZNSt3__110__function12__value_funcIFvvEEC1B8ne190102IZN21BGMDeviceControlsListD1EvE3$_0Li0EEEOT_', symObjAddr: 0x27F4, symBinAddr: 0x100018648, symSize: 0x50 }
  - { offset: 0xDD203, size: 0x8, addend: 0x0, symName: '__ZNSt3__19allocatorIZN21BGMDeviceControlsListD1EvE3$_0EC1B8ne190102Ev', symObjAddr: 0x2844, symBinAddr: 0x100018698, symSize: 0x2C }
  - { offset: 0xDD22D, size: 0x8, addend: 0x0, symName: '__ZNSt3__110__function12__value_funcIFvvEEC1B8ne190102IZN21BGMDeviceControlsListD1EvE3$_0NS_9allocatorIS6_EEEEOT_RKT0_', symObjAddr: 0x2870, symBinAddr: 0x1000186C4, symSize: 0x3C }
  - { offset: 0xDD28B, size: 0x8, addend: 0x0, symName: '__ZNSt3__19allocatorIZN21BGMDeviceControlsListD1EvE3$_0EC2B8ne190102Ev', symObjAddr: 0x28AC, symBinAddr: 0x100018700, symSize: 0x2C }
  - { offset: 0xDD2B5, size: 0x8, addend: 0x0, symName: '__ZNSt3__116__non_trivial_ifILb1ENS_9allocatorIZN21BGMDeviceControlsListD1EvE3$_0EEEC2B8ne190102Ev', symObjAddr: 0x28D8, symBinAddr: 0x10001872C, symSize: 0x14 }
  - { offset: 0xDD2DF, size: 0x8, addend: 0x0, symName: '__ZNSt3__110__function12__value_funcIFvvEEC2B8ne190102IZN21BGMDeviceControlsListD1EvE3$_0NS_9allocatorIS6_EEEEOT_RKT0_', symObjAddr: 0x28EC, symBinAddr: 0x100018740, symSize: 0x94 }
  - { offset: 0xDD38D, size: 0x8, addend: 0x0, symName: '__ZNSt3__19allocatorINS_10__function6__funcIZN21BGMDeviceControlsListD1EvE3$_0NS0_IS4_EEFvvEEEEC1B8ne190102IS4_EERKNS0_IT_EE', symObjAddr: 0x2998, symBinAddr: 0x1000187EC, symSize: 0x34 }
  - { offset: 0xDD3D2, size: 0x8, addend: 0x0, symName: '__ZNSt3__19allocatorIZN21BGMDeviceControlsListD1EvE3$_0EC1B8ne190102INS_10__function6__funcIS2_S3_FvvEEEEERKNS0_IT_EE', symObjAddr: 0x29CC, symBinAddr: 0x100018820, symSize: 0x34 }
  - { offset: 0xDD411, size: 0x8, addend: 0x0, symName: '__ZNSt3__110__function6__funcIZN21BGMDeviceControlsListD1EvE3$_0NS_9allocatorIS3_EEFvvEEC1B8ne190102EOS3_OS5_', symObjAddr: 0x2A00, symBinAddr: 0x100018854, symSize: 0x3C }
  - { offset: 0xDD45B, size: 0x8, addend: 0x0, symName: '__ZNSt3__19allocatorINS_10__function6__funcIZN21BGMDeviceControlsListD1EvE3$_0NS0_IS4_EEFvvEEEEC2B8ne190102IS4_EERKNS0_IT_EE', symObjAddr: 0x2A3C, symBinAddr: 0x100018890, symSize: 0x30 }
  - { offset: 0xDD49A, size: 0x8, addend: 0x0, symName: '__ZNSt3__116__non_trivial_ifILb1ENS_9allocatorINS_10__function6__funcIZN21BGMDeviceControlsListD1EvE3$_0NS1_IS5_EEFvvEEEEEEC2B8ne190102Ev', symObjAddr: 0x2A6C, symBinAddr: 0x1000188C0, symSize: 0x14 }
  - { offset: 0xDD4C4, size: 0x8, addend: 0x0, symName: '__ZNSt3__19allocatorIZN21BGMDeviceControlsListD1EvE3$_0EC2B8ne190102INS_10__function6__funcIS2_S3_FvvEEEEERKNS0_IT_EE', symObjAddr: 0x2A80, symBinAddr: 0x1000188D4, symSize: 0x30 }
  - { offset: 0xDD503, size: 0x8, addend: 0x0, symName: '__ZNSt3__110__function6__funcIZN21BGMDeviceControlsListD1EvE3$_0NS_9allocatorIS3_EEFvvEEC2B8ne190102EOS3_OS5_', symObjAddr: 0x2AB0, symBinAddr: 0x100018904, symSize: 0x80 }
  - { offset: 0xDD54D, size: 0x8, addend: 0x0, symName: '__ZNSt3__110__function12__alloc_funcIZN21BGMDeviceControlsListD1EvE3$_0NS_9allocatorIS3_EEFvvEEC1B8ne190102EOS3_OS5_', symObjAddr: 0x2B54, symBinAddr: 0x100018984, symSize: 0x3C }
  - { offset: 0xDD595, size: 0x8, addend: 0x0, symName: '__ZNSt3__110__function6__funcIZN21BGMDeviceControlsListD1EvE3$_0NS_9allocatorIS3_EEFvvEED1Ev', symObjAddr: 0x2BA4, symBinAddr: 0x1000189C0, symSize: 0x2C }
  - { offset: 0xDD5C1, size: 0x8, addend: 0x0, symName: '__ZNSt3__110__function6__funcIZN21BGMDeviceControlsListD1EvE3$_0NS_9allocatorIS3_EEFvvEED0Ev', symObjAddr: 0x2BD0, symBinAddr: 0x1000189EC, symSize: 0x30 }
  - { offset: 0xDD5ED, size: 0x8, addend: 0x0, symName: '__ZNKSt3__110__function6__funcIZN21BGMDeviceControlsListD1EvE3$_0NS_9allocatorIS3_EEFvvEE7__cloneEv', symObjAddr: 0x2C00, symBinAddr: 0x100018A1C, symSize: 0xFC }
  - { offset: 0xDD63F, size: 0x8, addend: 0x0, symName: '__ZNKSt3__110__function6__funcIZN21BGMDeviceControlsListD1EvE3$_0NS_9allocatorIS3_EEFvvEE7__cloneEPNS0_6__baseIS6_EE', symObjAddr: 0x2CFC, symBinAddr: 0x100018B18, symSize: 0x58 }
  - { offset: 0xDD675, size: 0x8, addend: 0x0, symName: '__ZNSt3__110__function6__funcIZN21BGMDeviceControlsListD1EvE3$_0NS_9allocatorIS3_EEFvvEE7destroyEv', symObjAddr: 0x2D54, symBinAddr: 0x100018B70, symSize: 0x28 }
  - { offset: 0xDD69B, size: 0x8, addend: 0x0, symName: '__ZNSt3__110__function6__funcIZN21BGMDeviceControlsListD1EvE3$_0NS_9allocatorIS3_EEFvvEE18destroy_deallocateEv', symObjAddr: 0x2D7C, symBinAddr: 0x100018B98, symSize: 0x58 }
  - { offset: 0xDD6DD, size: 0x8, addend: 0x0, symName: '__ZNSt3__110__function6__funcIZN21BGMDeviceControlsListD1EvE3$_0NS_9allocatorIS3_EEFvvEEclEv', symObjAddr: 0x2DD4, symBinAddr: 0x100018BF0, symSize: 0x28 }
  - { offset: 0xDD703, size: 0x8, addend: 0x0, symName: '__ZNKSt3__110__function6__funcIZN21BGMDeviceControlsListD1EvE3$_0NS_9allocatorIS3_EEFvvEE6targetERKSt9type_info', symObjAddr: 0x2DFC, symBinAddr: 0x100018C18, symSize: 0x60 }
  - { offset: 0xDD739, size: 0x8, addend: 0x0, symName: '__ZNKSt3__110__function6__funcIZN21BGMDeviceControlsListD1EvE3$_0NS_9allocatorIS3_EEFvvEE11target_typeEv', symObjAddr: 0x2E5C, symBinAddr: 0x100018C78, symSize: 0x18 }
  - { offset: 0xDD75F, size: 0x8, addend: 0x0, symName: '__ZNSt3__110__function12__alloc_funcIZN21BGMDeviceControlsListD1EvE3$_0NS_9allocatorIS3_EEFvvEEC2B8ne190102EOS3_OS5_', symObjAddr: 0x2E94, symBinAddr: 0x100018C90, symSize: 0x5C }
  - { offset: 0xDD7A7, size: 0x8, addend: 0x0, symName: '__ZNSt3__117__compressed_pairIZN21BGMDeviceControlsListD1EvE3$_0NS_9allocatorIS2_EEEC1B8ne190102IJOS2_EJOS4_EEENS_21piecewise_construct_tENS_5tupleIJDpT_EEENSA_IJDpT0_EEE', symObjAddr: 0x2F48, symBinAddr: 0x100018D44, symSize: 0x3C }
  - { offset: 0xDD818, size: 0x8, addend: 0x0, symName: '__ZNSt3__15tupleIJOZN21BGMDeviceControlsListD1EvE3$_0EEC1B8ne190102IJS2_ELi0EEEDpOT_', symObjAddr: 0x2F84, symBinAddr: 0x100018D80, symSize: 0x34 }
  - { offset: 0xDD866, size: 0x8, addend: 0x0, symName: '__ZNSt3__15tupleIJOZN21BGMDeviceControlsListD1EvE3$_0EEC2B8ne190102IJS2_ELi0EEEDpOT_', symObjAddr: 0x2FB8, symBinAddr: 0x100018DB4, symSize: 0x34 }
  - { offset: 0xDD8B4, size: 0x8, addend: 0x0, symName: '__ZNSt3__112__tuple_implINS_15__tuple_indicesIJLm0EEEEJOZN21BGMDeviceControlsListD1EvE3$_0EEC1B8ne190102IJLm0EEJS5_EJEJEJS4_EEENS1_IJXspT_EEEENS_13__tuple_typesIJDpT0_EEENS1_IJXspT1_EEEENS9_IJDpT2_EEEDpOT3_', symObjAddr: 0x2FEC, symBinAddr: 0x100018DE8, symSize: 0x34 }
  - { offset: 0xDD952, size: 0x8, addend: 0x0, symName: '__ZNSt3__112__tuple_implINS_15__tuple_indicesIJLm0EEEEJOZN21BGMDeviceControlsListD1EvE3$_0EEC2B8ne190102IJLm0EEJS5_EJEJEJS4_EEENS1_IJXspT_EEEENS_13__tuple_typesIJDpT0_EEENS1_IJXspT1_EEEENS9_IJDpT2_EEEDpOT3_', symObjAddr: 0x3020, symBinAddr: 0x100018E1C, symSize: 0x34 }
  - { offset: 0xDD9F0, size: 0x8, addend: 0x0, symName: '__ZNSt3__112__tuple_leafILm0EOZN21BGMDeviceControlsListD1EvE3$_0Lb0EEC2B8ne190102IS2_Li0EEEOT_', symObjAddr: 0x3054, symBinAddr: 0x100018E50, symSize: 0x20 }
  - { offset: 0xDDA3B, size: 0x8, addend: 0x0, symName: '__ZNSt3__15tupleIJONS_9allocatorIZN21BGMDeviceControlsListD1EvE3$_0EEEEC1B8ne190102IJS4_ELi0EEEDpOT_', symObjAddr: 0x3074, symBinAddr: 0x100018E70, symSize: 0x34 }
  - { offset: 0xDDA89, size: 0x8, addend: 0x0, symName: '__ZNSt3__15tupleIJONS_9allocatorIZN21BGMDeviceControlsListD1EvE3$_0EEEEC2B8ne190102IJS4_ELi0EEEDpOT_', symObjAddr: 0x30A8, symBinAddr: 0x100018EA4, symSize: 0x34 }
  - { offset: 0xDDAD7, size: 0x8, addend: 0x0, symName: '__ZNSt3__112__tuple_implINS_15__tuple_indicesIJLm0EEEEJONS_9allocatorIZN21BGMDeviceControlsListD1EvE3$_0EEEEC1B8ne190102IJLm0EEJS7_EJEJEJS6_EEENS1_IJXspT_EEEENS_13__tuple_typesIJDpT0_EEENS1_IJXspT1_EEEENSB_IJDpT2_EEEDpOT3_', symObjAddr: 0x30DC, symBinAddr: 0x100018ED8, symSize: 0x34 }
  - { offset: 0xDDB75, size: 0x8, addend: 0x0, symName: '__ZNSt3__112__tuple_implINS_15__tuple_indicesIJLm0EEEEJONS_9allocatorIZN21BGMDeviceControlsListD1EvE3$_0EEEEC2B8ne190102IJLm0EEJS7_EJEJEJS6_EEENS1_IJXspT_EEEENS_13__tuple_typesIJDpT0_EEENS1_IJXspT1_EEEENSB_IJDpT2_EEEDpOT3_', symObjAddr: 0x3110, symBinAddr: 0x100018F0C, symSize: 0x34 }
  - { offset: 0xDDC13, size: 0x8, addend: 0x0, symName: '__ZNSt3__112__tuple_leafILm0EONS_9allocatorIZN21BGMDeviceControlsListD1EvE3$_0EELb0EEC2B8ne190102IS4_Li0EEEOT_', symObjAddr: 0x3144, symBinAddr: 0x100018F40, symSize: 0x20 }
  - { offset: 0xDDC5E, size: 0x8, addend: 0x0, symName: '__ZNSt3__117__compressed_pairIZN21BGMDeviceControlsListD1EvE3$_0NS_9allocatorIS2_EEEC2B8ne190102IJOS2_EJOS4_EEENS_21piecewise_construct_tENS_5tupleIJDpT_EEENSA_IJDpT0_EEE', symObjAddr: 0x3164, symBinAddr: 0x100018F60, symSize: 0x54 }
  - { offset: 0xDDCCF, size: 0x8, addend: 0x0, symName: '__ZNSt3__122__compressed_pair_elemIZN21BGMDeviceControlsListD1EvE3$_0Li0ELb0EEC2B8ne190102IJOS2_EJLm0EEEENS_21piecewise_construct_tENS_5tupleIJDpT_EEENS_15__tuple_indicesIJXspT0_EEEE', symObjAddr: 0x31B8, symBinAddr: 0x100018FB4, symSize: 0x44 }
  - { offset: 0xDDD39, size: 0x8, addend: 0x0, symName: '__ZNSt3__122__compressed_pair_elemINS_9allocatorIZN21BGMDeviceControlsListD1EvE3$_0EELi1ELb1EEC2B8ne190102IJOS4_EJLm0EEEENS_21piecewise_construct_tENS_5tupleIJDpT_EEENS_15__tuple_indicesIJXspT0_EEEE', symObjAddr: 0x31FC, symBinAddr: 0x100018FF8, symSize: 0x38 }
  - { offset: 0xDDDA3, size: 0x8, addend: 0x0, symName: '__ZNSt3__112__tuple_leafILm0EOZN21BGMDeviceControlsListD1EvE3$_0Lb0EE3getB8ne190102Ev', symObjAddr: 0x3258, symBinAddr: 0x100019054, symSize: 0x18 }
  - { offset: 0xDDDC9, size: 0x8, addend: 0x0, symName: '__ZNSt3__112__tuple_leafILm0EONS_9allocatorIZN21BGMDeviceControlsListD1EvE3$_0EELb0EE3getB8ne190102Ev', symObjAddr: 0x3294, symBinAddr: 0x100019090, symSize: 0x18 }
  - { offset: 0xDDDEF, size: 0x8, addend: 0x0, symName: '__ZNSt3__110__function6__funcIZN21BGMDeviceControlsListD1EvE3$_0NS_9allocatorIS3_EEFvvEED2Ev', symObjAddr: 0x32AC, symBinAddr: 0x1000190A8, symSize: 0x2C }
  - { offset: 0xDDE1B, size: 0x8, addend: 0x0, symName: '__ZNKSt3__110__function12__alloc_funcIZN21BGMDeviceControlsListD1EvE3$_0NS_9allocatorIS3_EEFvvEE15__get_allocatorB8ne190102Ev', symObjAddr: 0x32D8, symBinAddr: 0x1000190D4, symSize: 0x24 }
  - { offset: 0xDDE41, size: 0x8, addend: 0x0, symName: '__ZNSt3__19allocatorINS_10__function6__funcIZN21BGMDeviceControlsListD1EvE3$_0NS0_IS4_EEFvvEEEE8allocateB8ne190102Em', symObjAddr: 0x32FC, symBinAddr: 0x1000190F8, symSize: 0x54 }
  - { offset: 0xDDE87, size: 0x8, addend: 0x0, symName: '__ZNSt3__122__allocator_destructorINS_9allocatorINS_10__function6__funcIZN21BGMDeviceControlsListD1EvE3$_0NS1_IS5_EEFvvEEEEEEC1B8ne190102ERS9_m', symObjAddr: 0x3350, symBinAddr: 0x10001914C, symSize: 0x3C }
  - { offset: 0xDDF65, size: 0x8, addend: 0x0, symName: '__ZNSt3__110unique_ptrINS_10__function6__funcIZN21BGMDeviceControlsListD1EvE3$_0NS_9allocatorIS4_EEFvvEEENS_22__allocator_destructorINS5_IS8_EEEEEC1B8ne190102ILb1EvEEPS8_NS_16__dependent_typeINS_27__unique_ptr_deleter_sfinaeISB_EEXT_EE20__good_rval_ref_typeE', symObjAddr: 0x338C, symBinAddr: 0x100019188, symSize: 0x3C }
  - { offset: 0xDDFBA, size: 0x8, addend: 0x0, symName: '__ZNKSt3__110unique_ptrINS_10__function6__funcIZN21BGMDeviceControlsListD1EvE3$_0NS_9allocatorIS4_EEFvvEEENS_22__allocator_destructorINS5_IS8_EEEEE3getB8ne190102Ev', symObjAddr: 0x33C8, symBinAddr: 0x1000191C4, symSize: 0x28 }
  - { offset: 0xDDFE0, size: 0x8, addend: 0x0, symName: '__ZNKSt3__110__function12__alloc_funcIZN21BGMDeviceControlsListD1EvE3$_0NS_9allocatorIS3_EEFvvEE8__targetB8ne190102Ev', symObjAddr: 0x33F0, symBinAddr: 0x1000191EC, symSize: 0x24 }
  - { offset: 0xDE006, size: 0x8, addend: 0x0, symName: '__ZNSt3__110__function6__funcIZN21BGMDeviceControlsListD1EvE3$_0NS_9allocatorIS3_EEFvvEEC1B8ne190102ERKS3_OS5_', symObjAddr: 0x3414, symBinAddr: 0x100019210, symSize: 0x3C }
  - { offset: 0xDE050, size: 0x8, addend: 0x0, symName: '__ZNSt3__110unique_ptrINS_10__function6__funcIZN21BGMDeviceControlsListD1EvE3$_0NS_9allocatorIS4_EEFvvEEENS_22__allocator_destructorINS5_IS8_EEEEE7releaseB8ne190102Ev', symObjAddr: 0x3450, symBinAddr: 0x10001924C, symSize: 0x44 }
  - { offset: 0xDE086, size: 0x8, addend: 0x0, symName: '__ZNSt3__110unique_ptrINS_10__function6__funcIZN21BGMDeviceControlsListD1EvE3$_0NS_9allocatorIS4_EEFvvEEENS_22__allocator_destructorINS5_IS8_EEEEED1B8ne190102Ev', symObjAddr: 0x3494, symBinAddr: 0x100019290, symSize: 0x2C }
  - { offset: 0xDE0B0, size: 0x8, addend: 0x0, symName: '__ZNKSt3__117__compressed_pairIZN21BGMDeviceControlsListD1EvE3$_0NS_9allocatorIS2_EEE6secondB8ne190102Ev', symObjAddr: 0x34C0, symBinAddr: 0x1000192BC, symSize: 0x24 }
  - { offset: 0xDE0D6, size: 0x8, addend: 0x0, symName: '__ZNKSt3__122__compressed_pair_elemINS_9allocatorIZN21BGMDeviceControlsListD1EvE3$_0EELi1ELb1EE5__getB8ne190102Ev', symObjAddr: 0x34E4, symBinAddr: 0x1000192E0, symSize: 0x14 }
  - { offset: 0xDE107, size: 0x8, addend: 0x0, symName: '__ZNSt3__116allocator_traitsINS_9allocatorINS_10__function6__funcIZN21BGMDeviceControlsListD1EvE3$_0NS1_IS5_EEFvvEEEEEE8max_sizeB8ne190102IS9_Li0EEEmRKS9_', symObjAddr: 0x34F8, symBinAddr: 0x1000192F4, symSize: 0x24 }
  - { offset: 0xDE13D, size: 0x8, addend: 0x0, symName: '__ZNKSt3__19allocatorINS_10__function6__funcIZN21BGMDeviceControlsListD1EvE3$_0NS0_IS4_EEFvvEEEE8max_sizeB8ne190102Ev', symObjAddr: 0x3578, symBinAddr: 0x100019318, symSize: 0x14 }
  - { offset: 0xDE163, size: 0x8, addend: 0x0, symName: '__ZNSt3__122__allocator_destructorINS_9allocatorINS_10__function6__funcIZN21BGMDeviceControlsListD1EvE3$_0NS1_IS5_EEFvvEEEEEEC2B8ne190102ERS9_m', symObjAddr: 0x35B0, symBinAddr: 0x10001932C, symSize: 0x2C }
  - { offset: 0xDE1AB, size: 0x8, addend: 0x0, symName: '__ZNSt3__110unique_ptrINS_10__function6__funcIZN21BGMDeviceControlsListD1EvE3$_0NS_9allocatorIS4_EEFvvEEENS_22__allocator_destructorINS5_IS8_EEEEEC2B8ne190102ILb1EvEEPS8_NS_16__dependent_typeINS_27__unique_ptr_deleter_sfinaeISB_EEXT_EE20__good_rval_ref_typeE', symObjAddr: 0x35DC, symBinAddr: 0x100019358, symSize: 0x48 }
  - { offset: 0xDE200, size: 0x8, addend: 0x0, symName: '__ZNSt3__117__compressed_pairIPNS_10__function6__funcIZN21BGMDeviceControlsListD1EvE3$_0NS_9allocatorIS4_EEFvvEEENS_22__allocator_destructorINS5_IS8_EEEEEC1B8ne190102IRS9_SC_EEOT_OT0_', symObjAddr: 0x3624, symBinAddr: 0x1000193A0, symSize: 0x3C }
  - { offset: 0xDE25C, size: 0x8, addend: 0x0, symName: '__ZNSt3__117__compressed_pairIPNS_10__function6__funcIZN21BGMDeviceControlsListD1EvE3$_0NS_9allocatorIS4_EEFvvEEENS_22__allocator_destructorINS5_IS8_EEEEEC2B8ne190102IRS9_SC_EEOT_OT0_', symObjAddr: 0x3660, symBinAddr: 0x1000193DC, symSize: 0x48 }
  - { offset: 0xDE2B8, size: 0x8, addend: 0x0, symName: '__ZNSt3__122__compressed_pair_elemIPNS_10__function6__funcIZN21BGMDeviceControlsListD1EvE3$_0NS_9allocatorIS4_EEFvvEEELi0ELb0EEC2B8ne190102IRS9_Li0EEEOT_', symObjAddr: 0x36A8, symBinAddr: 0x100019424, symSize: 0x24 }
  - { offset: 0xDE302, size: 0x8, addend: 0x0, symName: '__ZNSt3__122__compressed_pair_elemINS_22__allocator_destructorINS_9allocatorINS_10__function6__funcIZN21BGMDeviceControlsListD1EvE3$_0NS2_IS6_EEFvvEEEEEEELi1ELb0EEC2B8ne190102ISB_Li0EEEOT_', symObjAddr: 0x36CC, symBinAddr: 0x100019448, symSize: 0x24 }
  - { offset: 0xDE34C, size: 0x8, addend: 0x0, symName: '__ZNKSt3__117__compressed_pairIPNS_10__function6__funcIZN21BGMDeviceControlsListD1EvE3$_0NS_9allocatorIS4_EEFvvEEENS_22__allocator_destructorINS5_IS8_EEEEE5firstB8ne190102Ev', symObjAddr: 0x36F0, symBinAddr: 0x10001946C, symSize: 0x24 }
  - { offset: 0xDE372, size: 0x8, addend: 0x0, symName: '__ZNKSt3__122__compressed_pair_elemIPNS_10__function6__funcIZN21BGMDeviceControlsListD1EvE3$_0NS_9allocatorIS4_EEFvvEEELi0ELb0EE5__getB8ne190102Ev', symObjAddr: 0x3714, symBinAddr: 0x100019490, symSize: 0x14 }
  - { offset: 0xDE398, size: 0x8, addend: 0x0, symName: '__ZNKSt3__117__compressed_pairIZN21BGMDeviceControlsListD1EvE3$_0NS_9allocatorIS2_EEE5firstB8ne190102Ev', symObjAddr: 0x3728, symBinAddr: 0x1000194A4, symSize: 0x24 }
  - { offset: 0xDE3BE, size: 0x8, addend: 0x0, symName: '__ZNKSt3__122__compressed_pair_elemIZN21BGMDeviceControlsListD1EvE3$_0Li0ELb0EE5__getB8ne190102Ev', symObjAddr: 0x374C, symBinAddr: 0x1000194C8, symSize: 0x14 }
  - { offset: 0xDE3E4, size: 0x8, addend: 0x0, symName: '__ZNSt3__110__function6__funcIZN21BGMDeviceControlsListD1EvE3$_0NS_9allocatorIS3_EEFvvEEC2B8ne190102ERKS3_OS5_', symObjAddr: 0x3760, symBinAddr: 0x1000194DC, symSize: 0x80 }
  - { offset: 0xDE42E, size: 0x8, addend: 0x0, symName: '__ZNSt3__110__function12__alloc_funcIZN21BGMDeviceControlsListD1EvE3$_0NS_9allocatorIS3_EEFvvEEC1B8ne190102ERKS3_OS5_', symObjAddr: 0x37E0, symBinAddr: 0x10001955C, symSize: 0x3C }
  - { offset: 0xDE476, size: 0x8, addend: 0x0, symName: '__ZNSt3__110__function12__alloc_funcIZN21BGMDeviceControlsListD1EvE3$_0NS_9allocatorIS3_EEFvvEEC2B8ne190102ERKS3_OS5_', symObjAddr: 0x381C, symBinAddr: 0x100019598, symSize: 0x5C }
  - { offset: 0xDE4BE, size: 0x8, addend: 0x0, symName: '__ZNSt3__117__compressed_pairIZN21BGMDeviceControlsListD1EvE3$_0NS_9allocatorIS2_EEEC1B8ne190102IJRKS2_EJOS4_EEENS_21piecewise_construct_tENS_5tupleIJDpT_EEENSB_IJDpT0_EEE', symObjAddr: 0x38A4, symBinAddr: 0x100019620, symSize: 0x3C }
  - { offset: 0xDE52F, size: 0x8, addend: 0x0, symName: '__ZNSt3__15tupleIJRKZN21BGMDeviceControlsListD1EvE3$_0EEC1B8ne190102INS_4_AndELi0EEES4_', symObjAddr: 0x38E0, symBinAddr: 0x10001965C, symSize: 0x34 }
  - { offset: 0xDE57A, size: 0x8, addend: 0x0, symName: '__ZNSt3__15tupleIJRKZN21BGMDeviceControlsListD1EvE3$_0EEC2B8ne190102INS_4_AndELi0EEES4_', symObjAddr: 0x3914, symBinAddr: 0x100019690, symSize: 0x34 }
  - { offset: 0xDE5C5, size: 0x8, addend: 0x0, symName: '__ZNSt3__112__tuple_implINS_15__tuple_indicesIJLm0EEEEJRKZN21BGMDeviceControlsListD1EvE3$_0EEC1B8ne190102IJLm0EEJS6_EJEJEJS6_EEENS1_IJXspT_EEEENS_13__tuple_typesIJDpT0_EEENS1_IJXspT1_EEEENSA_IJDpT2_EEEDpOT3_', symObjAddr: 0x3948, symBinAddr: 0x1000196C4, symSize: 0x34 }
  - { offset: 0xDE663, size: 0x8, addend: 0x0, symName: '__ZNSt3__112__tuple_implINS_15__tuple_indicesIJLm0EEEEJRKZN21BGMDeviceControlsListD1EvE3$_0EEC2B8ne190102IJLm0EEJS6_EJEJEJS6_EEENS1_IJXspT_EEEENS_13__tuple_typesIJDpT0_EEENS1_IJXspT1_EEEENSA_IJDpT2_EEEDpOT3_', symObjAddr: 0x397C, symBinAddr: 0x1000196F8, symSize: 0x34 }
  - { offset: 0xDE701, size: 0x8, addend: 0x0, symName: '__ZNSt3__112__tuple_leafILm0ERKZN21BGMDeviceControlsListD1EvE3$_0Lb0EEC2B8ne190102IS4_Li0EEEOT_', symObjAddr: 0x39B0, symBinAddr: 0x10001972C, symSize: 0x20 }
  - { offset: 0xDE74C, size: 0x8, addend: 0x0, symName: '__ZNSt3__117__compressed_pairIZN21BGMDeviceControlsListD1EvE3$_0NS_9allocatorIS2_EEEC2B8ne190102IJRKS2_EJOS4_EEENS_21piecewise_construct_tENS_5tupleIJDpT_EEENSB_IJDpT0_EEE', symObjAddr: 0x39D0, symBinAddr: 0x10001974C, symSize: 0x54 }
  - { offset: 0xDE7BD, size: 0x8, addend: 0x0, symName: '__ZNSt3__122__compressed_pair_elemIZN21BGMDeviceControlsListD1EvE3$_0Li0ELb0EEC2B8ne190102IJRKS2_EJLm0EEEENS_21piecewise_construct_tENS_5tupleIJDpT_EEENS_15__tuple_indicesIJXspT0_EEEE', symObjAddr: 0x3A24, symBinAddr: 0x1000197A0, symSize: 0x44 }
  - { offset: 0xDE827, size: 0x8, addend: 0x0, symName: '__ZNSt3__112__tuple_leafILm0ERKZN21BGMDeviceControlsListD1EvE3$_0Lb0EE3getB8ne190102Ev', symObjAddr: 0x3A8C, symBinAddr: 0x100019808, symSize: 0x18 }
  - { offset: 0xDE84D, size: 0x8, addend: 0x0, symName: '__ZNSt3__117__compressed_pairIPNS_10__function6__funcIZN21BGMDeviceControlsListD1EvE3$_0NS_9allocatorIS4_EEFvvEEENS_22__allocator_destructorINS5_IS8_EEEEE5firstB8ne190102Ev', symObjAddr: 0x3AA4, symBinAddr: 0x100019820, symSize: 0x24 }
  - { offset: 0xDE873, size: 0x8, addend: 0x0, symName: '__ZNSt3__122__compressed_pair_elemIPNS_10__function6__funcIZN21BGMDeviceControlsListD1EvE3$_0NS_9allocatorIS4_EEFvvEEELi0ELb0EE5__getB8ne190102Ev', symObjAddr: 0x3AC8, symBinAddr: 0x100019844, symSize: 0x14 }
  - { offset: 0xDE899, size: 0x8, addend: 0x0, symName: '__ZNSt3__110unique_ptrINS_10__function6__funcIZN21BGMDeviceControlsListD1EvE3$_0NS_9allocatorIS4_EEFvvEEENS_22__allocator_destructorINS5_IS8_EEEEED2B8ne190102Ev', symObjAddr: 0x3ADC, symBinAddr: 0x100019858, symSize: 0x30 }
  - { offset: 0xDE8C3, size: 0x8, addend: 0x0, symName: '__ZNSt3__110unique_ptrINS_10__function6__funcIZN21BGMDeviceControlsListD1EvE3$_0NS_9allocatorIS4_EEFvvEEENS_22__allocator_destructorINS5_IS8_EEEEE5resetB8ne190102EPS8_', symObjAddr: 0x3B0C, symBinAddr: 0x100019888, symSize: 0x70 }
  - { offset: 0xDE909, size: 0x8, addend: 0x0, symName: '__ZNSt3__117__compressed_pairIPNS_10__function6__funcIZN21BGMDeviceControlsListD1EvE3$_0NS_9allocatorIS4_EEFvvEEENS_22__allocator_destructorINS5_IS8_EEEEE6secondB8ne190102Ev', symObjAddr: 0x3B7C, symBinAddr: 0x1000198F8, symSize: 0x28 }
  - { offset: 0xDE92F, size: 0x8, addend: 0x0, symName: '__ZNSt3__122__allocator_destructorINS_9allocatorINS_10__function6__funcIZN21BGMDeviceControlsListD1EvE3$_0NS1_IS5_EEFvvEEEEEEclB8ne190102EPS8_', symObjAddr: 0x3BA4, symBinAddr: 0x100019920, symSize: 0x34 }
  - { offset: 0xDE964, size: 0x8, addend: 0x0, symName: '__ZNSt3__122__compressed_pair_elemINS_22__allocator_destructorINS_9allocatorINS_10__function6__funcIZN21BGMDeviceControlsListD1EvE3$_0NS2_IS6_EEFvvEEEEEEELi1ELb0EE5__getB8ne190102Ev', symObjAddr: 0x3BD8, symBinAddr: 0x100019954, symSize: 0x14 }
  - { offset: 0xDE98A, size: 0x8, addend: 0x0, symName: '__ZNSt3__116allocator_traitsINS_9allocatorINS_10__function6__funcIZN21BGMDeviceControlsListD1EvE3$_0NS1_IS5_EEFvvEEEEEE10deallocateB8ne190102ERS9_PS8_m', symObjAddr: 0x3BEC, symBinAddr: 0x100019968, symSize: 0x34 }
  - { offset: 0xDE9CF, size: 0x8, addend: 0x0, symName: '__ZNSt3__19allocatorINS_10__function6__funcIZN21BGMDeviceControlsListD1EvE3$_0NS0_IS4_EEFvvEEEE10deallocateB8ne190102EPS7_m', symObjAddr: 0x3C20, symBinAddr: 0x10001999C, symSize: 0x40 }
  - { offset: 0xDEA13, size: 0x8, addend: 0x0, symName: '__ZNSt3__110__function6__funcIZN21BGMDeviceControlsListD1EvE3$_0NS_9allocatorIS3_EEFvvEEC1B8ne190102ERKS3_RKS5_', symObjAddr: 0x3CDC, symBinAddr: 0x1000199DC, symSize: 0x3C }
  - { offset: 0xDEA5D, size: 0x8, addend: 0x0, symName: '__ZNSt3__110__function6__funcIZN21BGMDeviceControlsListD1EvE3$_0NS_9allocatorIS3_EEFvvEEC2B8ne190102ERKS3_RKS5_', symObjAddr: 0x3D18, symBinAddr: 0x100019A18, symSize: 0x80 }
  - { offset: 0xDEAA7, size: 0x8, addend: 0x0, symName: '__ZNSt3__110__function12__alloc_funcIZN21BGMDeviceControlsListD1EvE3$_0NS_9allocatorIS3_EEFvvEEC1B8ne190102ERKS3_RKS5_', symObjAddr: 0x3D98, symBinAddr: 0x100019A98, symSize: 0x3C }
  - { offset: 0xDEAEF, size: 0x8, addend: 0x0, symName: '__ZNSt3__110__function12__alloc_funcIZN21BGMDeviceControlsListD1EvE3$_0NS_9allocatorIS3_EEFvvEEC2B8ne190102ERKS3_RKS5_', symObjAddr: 0x3DD4, symBinAddr: 0x100019AD4, symSize: 0x5C }
  - { offset: 0xDEB37, size: 0x8, addend: 0x0, symName: '__ZNSt3__117__compressed_pairIZN21BGMDeviceControlsListD1EvE3$_0NS_9allocatorIS2_EEEC1B8ne190102IJRKS2_EJRKS4_EEENS_21piecewise_construct_tENS_5tupleIJDpT_EEENSC_IJDpT0_EEE', symObjAddr: 0x3E5C, symBinAddr: 0x100019B5C, symSize: 0x3C }
  - { offset: 0xDEBA8, size: 0x8, addend: 0x0, symName: '__ZNSt3__15tupleIJRKNS_9allocatorIZN21BGMDeviceControlsListD1EvE3$_0EEEEC1B8ne190102INS_4_AndELi0EEES6_', symObjAddr: 0x3E98, symBinAddr: 0x100019B98, symSize: 0x34 }
  - { offset: 0xDEBF3, size: 0x8, addend: 0x0, symName: '__ZNSt3__15tupleIJRKNS_9allocatorIZN21BGMDeviceControlsListD1EvE3$_0EEEEC2B8ne190102INS_4_AndELi0EEES6_', symObjAddr: 0x3ECC, symBinAddr: 0x100019BCC, symSize: 0x34 }
  - { offset: 0xDEC3E, size: 0x8, addend: 0x0, symName: '__ZNSt3__112__tuple_implINS_15__tuple_indicesIJLm0EEEEJRKNS_9allocatorIZN21BGMDeviceControlsListD1EvE3$_0EEEEC1B8ne190102IJLm0EEJS8_EJEJEJS8_EEENS1_IJXspT_EEEENS_13__tuple_typesIJDpT0_EEENS1_IJXspT1_EEEENSC_IJDpT2_EEEDpOT3_', symObjAddr: 0x3F00, symBinAddr: 0x100019C00, symSize: 0x34 }
  - { offset: 0xDECDC, size: 0x8, addend: 0x0, symName: '__ZNSt3__112__tuple_implINS_15__tuple_indicesIJLm0EEEEJRKNS_9allocatorIZN21BGMDeviceControlsListD1EvE3$_0EEEEC2B8ne190102IJLm0EEJS8_EJEJEJS8_EEENS1_IJXspT_EEEENS_13__tuple_typesIJDpT0_EEENS1_IJXspT1_EEEENSC_IJDpT2_EEEDpOT3_', symObjAddr: 0x3F34, symBinAddr: 0x100019C34, symSize: 0x34 }
  - { offset: 0xDED7A, size: 0x8, addend: 0x0, symName: '__ZNSt3__112__tuple_leafILm0ERKNS_9allocatorIZN21BGMDeviceControlsListD1EvE3$_0EELb0EEC2B8ne190102IS6_Li0EEEOT_', symObjAddr: 0x3F68, symBinAddr: 0x100019C68, symSize: 0x20 }
  - { offset: 0xDEDC5, size: 0x8, addend: 0x0, symName: '__ZNSt3__117__compressed_pairIZN21BGMDeviceControlsListD1EvE3$_0NS_9allocatorIS2_EEEC2B8ne190102IJRKS2_EJRKS4_EEENS_21piecewise_construct_tENS_5tupleIJDpT_EEENSC_IJDpT0_EEE', symObjAddr: 0x3F88, symBinAddr: 0x100019C88, symSize: 0x54 }
  - { offset: 0xDEE36, size: 0x8, addend: 0x0, symName: '__ZNSt3__122__compressed_pair_elemINS_9allocatorIZN21BGMDeviceControlsListD1EvE3$_0EELi1ELb1EEC2B8ne190102IJRKS4_EJLm0EEEENS_21piecewise_construct_tENS_5tupleIJDpT_EEENS_15__tuple_indicesIJXspT0_EEEE', symObjAddr: 0x3FDC, symBinAddr: 0x100019CDC, symSize: 0x38 }
  - { offset: 0xDEEA0, size: 0x8, addend: 0x0, symName: '__ZNSt3__112__tuple_leafILm0ERKNS_9allocatorIZN21BGMDeviceControlsListD1EvE3$_0EELb0EE3getB8ne190102Ev', symObjAddr: 0x4038, symBinAddr: 0x100019D38, symSize: 0x18 }
  - { offset: 0xDEEC6, size: 0x8, addend: 0x0, symName: '__ZNSt3__110__function12__alloc_funcIZN21BGMDeviceControlsListD1EvE3$_0NS_9allocatorIS3_EEFvvEE7destroyB8ne190102Ev', symObjAddr: 0x4050, symBinAddr: 0x100019D50, symSize: 0x10 }
  - { offset: 0xDEEEC, size: 0x8, addend: 0x0, symName: '__ZNSt3__110__function12__alloc_funcIZN21BGMDeviceControlsListD1EvE3$_0NS_9allocatorIS3_EEFvvEEclB8ne190102Ev', symObjAddr: 0x4060, symBinAddr: 0x100019D60, symSize: 0x28 }
  - { offset: 0xDEF12, size: 0x8, addend: 0x0, symName: '__ZNSt3__128__invoke_void_return_wrapperIvLb1EE6__callB8ne190102IJRZN21BGMDeviceControlsListD1EvE3$_0EEEvDpOT_', symObjAddr: 0x4088, symBinAddr: 0x100019D88, symSize: 0x24 }
  - { offset: 0xDEF43, size: 0x8, addend: 0x0, symName: '__ZNSt3__117__compressed_pairIZN21BGMDeviceControlsListD1EvE3$_0NS_9allocatorIS2_EEE5firstB8ne190102Ev', symObjAddr: 0x40AC, symBinAddr: 0x100019DAC, symSize: 0x24 }
  - { offset: 0xDEF6E, size: 0x8, addend: 0x0, symName: '__ZZN21BGMDeviceControlsListD1EvENK3$_0clEv', symObjAddr: 0x40F4, symBinAddr: 0x100019DF4, symSize: 0x54 }
  - { offset: 0xDEF98, size: 0x8, addend: 0x0, symName: __ZN16CAHALAudioObject27RemovePropertyListenerBlockERK26AudioObjectPropertyAddressP16dispatch_queue_sU13block_pointerFvjPS1_E, symObjAddr: 0x4148, symBinAddr: 0x100019E48, symSize: 0x10C }
  - { offset: 0xDF027, size: 0x8, addend: 0x0, symName: '__ZNSt3__122__compressed_pair_elemIZN21BGMDeviceControlsListD1EvE3$_0Li0ELb0EE5__getB8ne190102Ev', symObjAddr: 0x4254, symBinAddr: 0x100019F54, symSize: 0x14 }
  - { offset: 0xDF04D, size: 0x8, addend: 0x0, symName: '__ZNSt3__18functionIFvvEEC2IZN21BGMDeviceControlsList19MatchControlsListOfEjE3$_0vEET_', symObjAddr: 0x4434, symBinAddr: 0x100019F68, symSize: 0x34 }
  - { offset: 0xDF094, size: 0x8, addend: 0x0, symName: '__ZNSt3__110__function12__value_funcIFvvEEC1B8ne190102IZN21BGMDeviceControlsList19MatchControlsListOfEjE3$_0Li0EEEOT_', symObjAddr: 0x4468, symBinAddr: 0x100019F9C, symSize: 0x50 }
  - { offset: 0xDF0DF, size: 0x8, addend: 0x0, symName: '__ZNSt3__19allocatorIZN21BGMDeviceControlsList19MatchControlsListOfEjE3$_0EC1B8ne190102Ev', symObjAddr: 0x44B8, symBinAddr: 0x100019FEC, symSize: 0x2C }
  - { offset: 0xDF109, size: 0x8, addend: 0x0, symName: '__ZNSt3__110__function12__value_funcIFvvEEC1B8ne190102IZN21BGMDeviceControlsList19MatchControlsListOfEjE3$_0NS_9allocatorIS6_EEEEOT_RKT0_', symObjAddr: 0x44E4, symBinAddr: 0x10001A018, symSize: 0x3C }
  - { offset: 0xDF167, size: 0x8, addend: 0x0, symName: '__ZNSt3__19allocatorIZN21BGMDeviceControlsList19MatchControlsListOfEjE3$_0EC2B8ne190102Ev', symObjAddr: 0x4520, symBinAddr: 0x10001A054, symSize: 0x2C }
  - { offset: 0xDF191, size: 0x8, addend: 0x0, symName: '__ZNSt3__116__non_trivial_ifILb1ENS_9allocatorIZN21BGMDeviceControlsList19MatchControlsListOfEjE3$_0EEEC2B8ne190102Ev', symObjAddr: 0x454C, symBinAddr: 0x10001A080, symSize: 0x14 }
  - { offset: 0xDF1BB, size: 0x8, addend: 0x0, symName: '__ZNSt3__110__function12__value_funcIFvvEEC2B8ne190102IZN21BGMDeviceControlsList19MatchControlsListOfEjE3$_0NS_9allocatorIS6_EEEEOT_RKT0_', symObjAddr: 0x4560, symBinAddr: 0x10001A094, symSize: 0xF4 }
  - { offset: 0xDF278, size: 0x8, addend: 0x0, symName: '__ZNSt3__19allocatorINS_10__function6__funcIZN21BGMDeviceControlsList19MatchControlsListOfEjE3$_0NS0_IS4_EEFvvEEEEC1B8ne190102IS4_EERKNS0_IT_EE', symObjAddr: 0x466C, symBinAddr: 0x10001A1A0, symSize: 0x34 }
  - { offset: 0xDF2B7, size: 0x8, addend: 0x0, symName: '__ZNSt3__19allocatorINS_10__function6__funcIZN21BGMDeviceControlsList19MatchControlsListOfEjE3$_0NS0_IS4_EEFvvEEEE8allocateB8ne190102Em', symObjAddr: 0x46A0, symBinAddr: 0x10001A1D4, symSize: 0x58 }
  - { offset: 0xDF2FD, size: 0x8, addend: 0x0, symName: '__ZNSt3__122__allocator_destructorINS_9allocatorINS_10__function6__funcIZN21BGMDeviceControlsList19MatchControlsListOfEjE3$_0NS1_IS5_EEFvvEEEEEEC1B8ne190102ERS9_m', symObjAddr: 0x46F8, symBinAddr: 0x10001A22C, symSize: 0x3C }
  - { offset: 0xDF3DB, size: 0x8, addend: 0x0, symName: '__ZNSt3__110unique_ptrINS_10__function6__baseIFvvEEENS_22__allocator_destructorINS_9allocatorINS1_6__funcIZN21BGMDeviceControlsList19MatchControlsListOfEjE3$_0NS6_IS9_EES3_EEEEEEEC1B8ne190102ILb1EvEEPSB_NS_16__dependent_typeINS_27__unique_ptr_deleter_sfinaeISD_EEXT_EE20__good_rval_ref_typeE', symObjAddr: 0x4734, symBinAddr: 0x10001A268, symSize: 0x3C }
  - { offset: 0xDF430, size: 0x8, addend: 0x0, symName: '__ZNKSt3__110unique_ptrINS_10__function6__baseIFvvEEENS_22__allocator_destructorINS_9allocatorINS1_6__funcIZN21BGMDeviceControlsList19MatchControlsListOfEjE3$_0NS6_IS9_EES3_EEEEEEE3getB8ne190102Ev', symObjAddr: 0x4770, symBinAddr: 0x10001A2A4, symSize: 0x28 }
  - { offset: 0xDF456, size: 0x8, addend: 0x0, symName: '__ZNSt3__110__function6__funcIZN21BGMDeviceControlsList19MatchControlsListOfEjE3$_0NS_9allocatorIS3_EEFvvEEC1B8ne190102EOS3_OS5_', symObjAddr: 0x4798, symBinAddr: 0x10001A2CC, symSize: 0x3C }
  - { offset: 0xDF4A0, size: 0x8, addend: 0x0, symName: '__ZNSt3__110unique_ptrINS_10__function6__baseIFvvEEENS_22__allocator_destructorINS_9allocatorINS1_6__funcIZN21BGMDeviceControlsList19MatchControlsListOfEjE3$_0NS6_IS9_EES3_EEEEEEE7releaseB8ne190102Ev', symObjAddr: 0x47D4, symBinAddr: 0x10001A308, symSize: 0x44 }
  - { offset: 0xDF4D6, size: 0x8, addend: 0x0, symName: '__ZNSt3__110unique_ptrINS_10__function6__baseIFvvEEENS_22__allocator_destructorINS_9allocatorINS1_6__funcIZN21BGMDeviceControlsList19MatchControlsListOfEjE3$_0NS6_IS9_EES3_EEEEEEED1B8ne190102Ev', symObjAddr: 0x4818, symBinAddr: 0x10001A34C, symSize: 0x2C }
  - { offset: 0xDF500, size: 0x8, addend: 0x0, symName: '__ZNSt3__19allocatorINS_10__function6__funcIZN21BGMDeviceControlsList19MatchControlsListOfEjE3$_0NS0_IS4_EEFvvEEEEC2B8ne190102IS4_EERKNS0_IT_EE', symObjAddr: 0x4844, symBinAddr: 0x10001A378, symSize: 0x30 }
  - { offset: 0xDF53F, size: 0x8, addend: 0x0, symName: '__ZNSt3__116__non_trivial_ifILb1ENS_9allocatorINS_10__function6__funcIZN21BGMDeviceControlsList19MatchControlsListOfEjE3$_0NS1_IS5_EEFvvEEEEEEC2B8ne190102Ev', symObjAddr: 0x4874, symBinAddr: 0x10001A3A8, symSize: 0x14 }
  - { offset: 0xDF574, size: 0x8, addend: 0x0, symName: '__ZNSt3__116allocator_traitsINS_9allocatorINS_10__function6__funcIZN21BGMDeviceControlsList19MatchControlsListOfEjE3$_0NS1_IS5_EEFvvEEEEEE8max_sizeB8ne190102IS9_Li0EEEmRKS9_', symObjAddr: 0x4888, symBinAddr: 0x10001A3BC, symSize: 0x24 }
  - { offset: 0xDF5AA, size: 0x8, addend: 0x0, symName: '__ZNKSt3__19allocatorINS_10__function6__funcIZN21BGMDeviceControlsList19MatchControlsListOfEjE3$_0NS0_IS4_EEFvvEEEE8max_sizeB8ne190102Ev', symObjAddr: 0x48AC, symBinAddr: 0x10001A3E0, symSize: 0x18 }
  - { offset: 0xDF5D0, size: 0x8, addend: 0x0, symName: '__ZNSt3__122__allocator_destructorINS_9allocatorINS_10__function6__funcIZN21BGMDeviceControlsList19MatchControlsListOfEjE3$_0NS1_IS5_EEFvvEEEEEEC2B8ne190102ERS9_m', symObjAddr: 0x48C4, symBinAddr: 0x10001A3F8, symSize: 0x2C }
  - { offset: 0xDF618, size: 0x8, addend: 0x0, symName: '__ZNSt3__110unique_ptrINS_10__function6__baseIFvvEEENS_22__allocator_destructorINS_9allocatorINS1_6__funcIZN21BGMDeviceControlsList19MatchControlsListOfEjE3$_0NS6_IS9_EES3_EEEEEEEC2B8ne190102ILb1EvEEPSB_NS_16__dependent_typeINS_27__unique_ptr_deleter_sfinaeISD_EEXT_EE20__good_rval_ref_typeE', symObjAddr: 0x48F0, symBinAddr: 0x10001A424, symSize: 0x48 }
  - { offset: 0xDF66D, size: 0x8, addend: 0x0, symName: '__ZNSt3__117__compressed_pairIPNS_10__function6__funcIZN21BGMDeviceControlsList19MatchControlsListOfEjE3$_0NS_9allocatorIS4_EEFvvEEENS_22__allocator_destructorINS5_IS8_EEEEEC1B8ne190102IRS9_SC_EEOT_OT0_', symObjAddr: 0x4938, symBinAddr: 0x10001A46C, symSize: 0x3C }
  - { offset: 0xDF6C9, size: 0x8, addend: 0x0, symName: '__ZNSt3__117__compressed_pairIPNS_10__function6__funcIZN21BGMDeviceControlsList19MatchControlsListOfEjE3$_0NS_9allocatorIS4_EEFvvEEENS_22__allocator_destructorINS5_IS8_EEEEEC2B8ne190102IRS9_SC_EEOT_OT0_', symObjAddr: 0x4974, symBinAddr: 0x10001A4A8, symSize: 0x48 }
  - { offset: 0xDF725, size: 0x8, addend: 0x0, symName: '__ZNSt3__122__compressed_pair_elemIPNS_10__function6__funcIZN21BGMDeviceControlsList19MatchControlsListOfEjE3$_0NS_9allocatorIS4_EEFvvEEELi0ELb0EEC2B8ne190102IRS9_Li0EEEOT_', symObjAddr: 0x49BC, symBinAddr: 0x10001A4F0, symSize: 0x24 }
  - { offset: 0xDF76F, size: 0x8, addend: 0x0, symName: '__ZNSt3__122__compressed_pair_elemINS_22__allocator_destructorINS_9allocatorINS_10__function6__funcIZN21BGMDeviceControlsList19MatchControlsListOfEjE3$_0NS2_IS6_EEFvvEEEEEEELi1ELb0EEC2B8ne190102ISB_Li0EEEOT_', symObjAddr: 0x49E0, symBinAddr: 0x10001A514, symSize: 0x24 }
  - { offset: 0xDF7B9, size: 0x8, addend: 0x0, symName: '__ZNKSt3__117__compressed_pairIPNS_10__function6__funcIZN21BGMDeviceControlsList19MatchControlsListOfEjE3$_0NS_9allocatorIS4_EEFvvEEENS_22__allocator_destructorINS5_IS8_EEEEE5firstB8ne190102Ev', symObjAddr: 0x4A04, symBinAddr: 0x10001A538, symSize: 0x24 }
  - { offset: 0xDF7DF, size: 0x8, addend: 0x0, symName: '__ZNKSt3__122__compressed_pair_elemIPNS_10__function6__funcIZN21BGMDeviceControlsList19MatchControlsListOfEjE3$_0NS_9allocatorIS4_EEFvvEEELi0ELb0EE5__getB8ne190102Ev', symObjAddr: 0x4A28, symBinAddr: 0x10001A55C, symSize: 0x14 }
  - { offset: 0xDF805, size: 0x8, addend: 0x0, symName: '__ZNSt3__110__function6__funcIZN21BGMDeviceControlsList19MatchControlsListOfEjE3$_0NS_9allocatorIS3_EEFvvEEC2B8ne190102EOS3_OS5_', symObjAddr: 0x4A3C, symBinAddr: 0x10001A570, symSize: 0x80 }
  - { offset: 0xDF84F, size: 0x8, addend: 0x0, symName: '__ZNSt3__110__function12__alloc_funcIZN21BGMDeviceControlsList19MatchControlsListOfEjE3$_0NS_9allocatorIS3_EEFvvEEC1B8ne190102EOS3_OS5_', symObjAddr: 0x4ABC, symBinAddr: 0x10001A5F0, symSize: 0x3C }
  - { offset: 0xDF897, size: 0x8, addend: 0x0, symName: '__ZNSt3__110__function6__funcIZN21BGMDeviceControlsList19MatchControlsListOfEjE3$_0NS_9allocatorIS3_EEFvvEED1Ev', symObjAddr: 0x4AF8, symBinAddr: 0x10001A62C, symSize: 0x2C }
  - { offset: 0xDF8C3, size: 0x8, addend: 0x0, symName: '__ZNSt3__110__function6__funcIZN21BGMDeviceControlsList19MatchControlsListOfEjE3$_0NS_9allocatorIS3_EEFvvEED0Ev', symObjAddr: 0x4B24, symBinAddr: 0x10001A658, symSize: 0x30 }
  - { offset: 0xDF8EF, size: 0x8, addend: 0x0, symName: '__ZNKSt3__110__function6__funcIZN21BGMDeviceControlsList19MatchControlsListOfEjE3$_0NS_9allocatorIS3_EEFvvEE7__cloneEv', symObjAddr: 0x4B54, symBinAddr: 0x10001A688, symSize: 0xFC }
  - { offset: 0xDF941, size: 0x8, addend: 0x0, symName: '__ZNKSt3__110__function6__funcIZN21BGMDeviceControlsList19MatchControlsListOfEjE3$_0NS_9allocatorIS3_EEFvvEE7__cloneEPNS0_6__baseIS6_EE', symObjAddr: 0x4C50, symBinAddr: 0x10001A784, symSize: 0x58 }
  - { offset: 0xDF977, size: 0x8, addend: 0x0, symName: '__ZNSt3__110__function6__funcIZN21BGMDeviceControlsList19MatchControlsListOfEjE3$_0NS_9allocatorIS3_EEFvvEE7destroyEv', symObjAddr: 0x4CA8, symBinAddr: 0x10001A7DC, symSize: 0x28 }
  - { offset: 0xDF99D, size: 0x8, addend: 0x0, symName: '__ZNSt3__110__function6__funcIZN21BGMDeviceControlsList19MatchControlsListOfEjE3$_0NS_9allocatorIS3_EEFvvEE18destroy_deallocateEv', symObjAddr: 0x4CD0, symBinAddr: 0x10001A804, symSize: 0x58 }
  - { offset: 0xDF9DF, size: 0x8, addend: 0x0, symName: '__ZNSt3__110__function6__funcIZN21BGMDeviceControlsList19MatchControlsListOfEjE3$_0NS_9allocatorIS3_EEFvvEEclEv', symObjAddr: 0x4D28, symBinAddr: 0x10001A85C, symSize: 0x28 }
  - { offset: 0xDFA05, size: 0x8, addend: 0x0, symName: '__ZNKSt3__110__function6__funcIZN21BGMDeviceControlsList19MatchControlsListOfEjE3$_0NS_9allocatorIS3_EEFvvEE6targetERKSt9type_info', symObjAddr: 0x4D50, symBinAddr: 0x10001A884, symSize: 0x60 }
  - { offset: 0xDFA3B, size: 0x8, addend: 0x0, symName: '__ZNKSt3__110__function6__funcIZN21BGMDeviceControlsList19MatchControlsListOfEjE3$_0NS_9allocatorIS3_EEFvvEE11target_typeEv', symObjAddr: 0x4DB0, symBinAddr: 0x10001A8E4, symSize: 0x18 }
  - { offset: 0xDFA61, size: 0x8, addend: 0x0, symName: '__ZNSt3__110__function12__alloc_funcIZN21BGMDeviceControlsList19MatchControlsListOfEjE3$_0NS_9allocatorIS3_EEFvvEEC2B8ne190102EOS3_OS5_', symObjAddr: 0x4DC8, symBinAddr: 0x10001A8FC, symSize: 0x5C }
  - { offset: 0xDFAA9, size: 0x8, addend: 0x0, symName: '__ZNSt3__117__compressed_pairIZN21BGMDeviceControlsList19MatchControlsListOfEjE3$_0NS_9allocatorIS2_EEEC1B8ne190102IJOS2_EJOS4_EEENS_21piecewise_construct_tENS_5tupleIJDpT_EEENSA_IJDpT0_EEE', symObjAddr: 0x4E7C, symBinAddr: 0x10001A9B0, symSize: 0x3C }
  - { offset: 0xDFB1A, size: 0x8, addend: 0x0, symName: '__ZNSt3__15tupleIJOZN21BGMDeviceControlsList19MatchControlsListOfEjE3$_0EEC1B8ne190102IJS2_ELi0EEEDpOT_', symObjAddr: 0x4EB8, symBinAddr: 0x10001A9EC, symSize: 0x34 }
  - { offset: 0xDFB68, size: 0x8, addend: 0x0, symName: '__ZNSt3__15tupleIJOZN21BGMDeviceControlsList19MatchControlsListOfEjE3$_0EEC2B8ne190102IJS2_ELi0EEEDpOT_', symObjAddr: 0x4EEC, symBinAddr: 0x10001AA20, symSize: 0x34 }
  - { offset: 0xDFBB6, size: 0x8, addend: 0x0, symName: '__ZNSt3__112__tuple_implINS_15__tuple_indicesIJLm0EEEEJOZN21BGMDeviceControlsList19MatchControlsListOfEjE3$_0EEC1B8ne190102IJLm0EEJS5_EJEJEJS4_EEENS1_IJXspT_EEEENS_13__tuple_typesIJDpT0_EEENS1_IJXspT1_EEEENS9_IJDpT2_EEEDpOT3_', symObjAddr: 0x4F20, symBinAddr: 0x10001AA54, symSize: 0x34 }
  - { offset: 0xDFC54, size: 0x8, addend: 0x0, symName: '__ZNSt3__112__tuple_implINS_15__tuple_indicesIJLm0EEEEJOZN21BGMDeviceControlsList19MatchControlsListOfEjE3$_0EEC2B8ne190102IJLm0EEJS5_EJEJEJS4_EEENS1_IJXspT_EEEENS_13__tuple_typesIJDpT0_EEENS1_IJXspT1_EEEENS9_IJDpT2_EEEDpOT3_', symObjAddr: 0x4F54, symBinAddr: 0x10001AA88, symSize: 0x34 }
  - { offset: 0xDFCF2, size: 0x8, addend: 0x0, symName: '__ZNSt3__112__tuple_leafILm0EOZN21BGMDeviceControlsList19MatchControlsListOfEjE3$_0Lb0EEC2B8ne190102IS2_Li0EEEOT_', symObjAddr: 0x4F88, symBinAddr: 0x10001AABC, symSize: 0x20 }
  - { offset: 0xDFD3D, size: 0x8, addend: 0x0, symName: '__ZNSt3__15tupleIJONS_9allocatorIZN21BGMDeviceControlsList19MatchControlsListOfEjE3$_0EEEEC1B8ne190102IJS4_ELi0EEEDpOT_', symObjAddr: 0x4FA8, symBinAddr: 0x10001AADC, symSize: 0x34 }
  - { offset: 0xDFD8B, size: 0x8, addend: 0x0, symName: '__ZNSt3__15tupleIJONS_9allocatorIZN21BGMDeviceControlsList19MatchControlsListOfEjE3$_0EEEEC2B8ne190102IJS4_ELi0EEEDpOT_', symObjAddr: 0x4FDC, symBinAddr: 0x10001AB10, symSize: 0x34 }
  - { offset: 0xDFDD9, size: 0x8, addend: 0x0, symName: '__ZNSt3__112__tuple_implINS_15__tuple_indicesIJLm0EEEEJONS_9allocatorIZN21BGMDeviceControlsList19MatchControlsListOfEjE3$_0EEEEC1B8ne190102IJLm0EEJS7_EJEJEJS6_EEENS1_IJXspT_EEEENS_13__tuple_typesIJDpT0_EEENS1_IJXspT1_EEEENSB_IJDpT2_EEEDpOT3_', symObjAddr: 0x5010, symBinAddr: 0x10001AB44, symSize: 0x34 }
  - { offset: 0xDFE77, size: 0x8, addend: 0x0, symName: '__ZNSt3__112__tuple_implINS_15__tuple_indicesIJLm0EEEEJONS_9allocatorIZN21BGMDeviceControlsList19MatchControlsListOfEjE3$_0EEEEC2B8ne190102IJLm0EEJS7_EJEJEJS6_EEENS1_IJXspT_EEEENS_13__tuple_typesIJDpT0_EEENS1_IJXspT1_EEEENSB_IJDpT2_EEEDpOT3_', symObjAddr: 0x5044, symBinAddr: 0x10001AB78, symSize: 0x34 }
  - { offset: 0xDFF15, size: 0x8, addend: 0x0, symName: '__ZNSt3__112__tuple_leafILm0EONS_9allocatorIZN21BGMDeviceControlsList19MatchControlsListOfEjE3$_0EELb0EEC2B8ne190102IS4_Li0EEEOT_', symObjAddr: 0x5078, symBinAddr: 0x10001ABAC, symSize: 0x20 }
  - { offset: 0xDFF60, size: 0x8, addend: 0x0, symName: '__ZNSt3__117__compressed_pairIZN21BGMDeviceControlsList19MatchControlsListOfEjE3$_0NS_9allocatorIS2_EEEC2B8ne190102IJOS2_EJOS4_EEENS_21piecewise_construct_tENS_5tupleIJDpT_EEENSA_IJDpT0_EEE', symObjAddr: 0x5098, symBinAddr: 0x10001ABCC, symSize: 0x54 }
  - { offset: 0xDFFD1, size: 0x8, addend: 0x0, symName: '__ZNSt3__122__compressed_pair_elemIZN21BGMDeviceControlsList19MatchControlsListOfEjE3$_0Li0ELb0EEC2B8ne190102IJOS2_EJLm0EEEENS_21piecewise_construct_tENS_5tupleIJDpT_EEENS_15__tuple_indicesIJXspT0_EEEE', symObjAddr: 0x50EC, symBinAddr: 0x10001AC20, symSize: 0x4C }
  - { offset: 0xE003B, size: 0x8, addend: 0x0, symName: '__ZNSt3__122__compressed_pair_elemINS_9allocatorIZN21BGMDeviceControlsList19MatchControlsListOfEjE3$_0EELi1ELb1EEC2B8ne190102IJOS4_EJLm0EEEENS_21piecewise_construct_tENS_5tupleIJDpT_EEENS_15__tuple_indicesIJXspT0_EEEE', symObjAddr: 0x5138, symBinAddr: 0x10001AC6C, symSize: 0x38 }
  - { offset: 0xE00A5, size: 0x8, addend: 0x0, symName: '__ZNSt3__112__tuple_leafILm0EOZN21BGMDeviceControlsList19MatchControlsListOfEjE3$_0Lb0EE3getB8ne190102Ev', symObjAddr: 0x5194, symBinAddr: 0x10001ACC8, symSize: 0x18 }
  - { offset: 0xE00CB, size: 0x8, addend: 0x0, symName: '__ZNSt3__112__tuple_leafILm0EONS_9allocatorIZN21BGMDeviceControlsList19MatchControlsListOfEjE3$_0EELb0EE3getB8ne190102Ev', symObjAddr: 0x51D0, symBinAddr: 0x10001AD04, symSize: 0x18 }
  - { offset: 0xE00F1, size: 0x8, addend: 0x0, symName: '__ZNSt3__110__function6__funcIZN21BGMDeviceControlsList19MatchControlsListOfEjE3$_0NS_9allocatorIS3_EEFvvEED2Ev', symObjAddr: 0x51E8, symBinAddr: 0x10001AD1C, symSize: 0x2C }
  - { offset: 0xE011D, size: 0x8, addend: 0x0, symName: '__ZNKSt3__110__function12__alloc_funcIZN21BGMDeviceControlsList19MatchControlsListOfEjE3$_0NS_9allocatorIS3_EEFvvEE15__get_allocatorB8ne190102Ev', symObjAddr: 0x5214, symBinAddr: 0x10001AD48, symSize: 0x24 }
  - { offset: 0xE016F, size: 0x8, addend: 0x0, symName: '__ZNSt3__110unique_ptrINS_10__function6__funcIZN21BGMDeviceControlsList19MatchControlsListOfEjE3$_0NS_9allocatorIS4_EEFvvEEENS_22__allocator_destructorINS5_IS8_EEEEEC1B8ne190102ILb1EvEEPS8_NS_16__dependent_typeINS_27__unique_ptr_deleter_sfinaeISB_EEXT_EE20__good_rval_ref_typeE', symObjAddr: 0x5238, symBinAddr: 0x10001AD6C, symSize: 0x3C }
  - { offset: 0xE01C4, size: 0x8, addend: 0x0, symName: '__ZNKSt3__110unique_ptrINS_10__function6__funcIZN21BGMDeviceControlsList19MatchControlsListOfEjE3$_0NS_9allocatorIS4_EEFvvEEENS_22__allocator_destructorINS5_IS8_EEEEE3getB8ne190102Ev', symObjAddr: 0x5274, symBinAddr: 0x10001ADA8, symSize: 0x28 }
  - { offset: 0xE01EA, size: 0x8, addend: 0x0, symName: '__ZNKSt3__110__function12__alloc_funcIZN21BGMDeviceControlsList19MatchControlsListOfEjE3$_0NS_9allocatorIS3_EEFvvEE8__targetB8ne190102Ev', symObjAddr: 0x529C, symBinAddr: 0x10001ADD0, symSize: 0x24 }
  - { offset: 0xE0216, size: 0x8, addend: 0x0, symName: '__ZNSt3__19allocatorIZN21BGMDeviceControlsList19MatchControlsListOfEjE3$_0EC1B8ne190102INS_10__function6__funcIS2_S3_FvvEEEEERKNS0_IT_EE', symObjAddr: 0x52C0, symBinAddr: 0x10001ADF4, symSize: 0x34 }
  - { offset: 0xE0255, size: 0x8, addend: 0x0, symName: '__ZNSt3__110__function6__funcIZN21BGMDeviceControlsList19MatchControlsListOfEjE3$_0NS_9allocatorIS3_EEFvvEEC1B8ne190102ERKS3_OS5_', symObjAddr: 0x52F4, symBinAddr: 0x10001AE28, symSize: 0x3C }
  - { offset: 0xE029F, size: 0x8, addend: 0x0, symName: '__ZNSt3__110unique_ptrINS_10__function6__funcIZN21BGMDeviceControlsList19MatchControlsListOfEjE3$_0NS_9allocatorIS4_EEFvvEEENS_22__allocator_destructorINS5_IS8_EEEEE7releaseB8ne190102Ev', symObjAddr: 0x5330, symBinAddr: 0x10001AE64, symSize: 0x44 }
  - { offset: 0xE02D5, size: 0x8, addend: 0x0, symName: '__ZNSt3__110unique_ptrINS_10__function6__funcIZN21BGMDeviceControlsList19MatchControlsListOfEjE3$_0NS_9allocatorIS4_EEFvvEEENS_22__allocator_destructorINS5_IS8_EEEEED1B8ne190102Ev', symObjAddr: 0x5374, symBinAddr: 0x10001AEA8, symSize: 0x2C }
  - { offset: 0xE02FF, size: 0x8, addend: 0x0, symName: '__ZNKSt3__117__compressed_pairIZN21BGMDeviceControlsList19MatchControlsListOfEjE3$_0NS_9allocatorIS2_EEE6secondB8ne190102Ev', symObjAddr: 0x53A0, symBinAddr: 0x10001AED4, symSize: 0x24 }
  - { offset: 0xE0325, size: 0x8, addend: 0x0, symName: '__ZNKSt3__122__compressed_pair_elemINS_9allocatorIZN21BGMDeviceControlsList19MatchControlsListOfEjE3$_0EELi1ELb1EE5__getB8ne190102Ev', symObjAddr: 0x53C4, symBinAddr: 0x10001AEF8, symSize: 0x14 }
  - { offset: 0xE034B, size: 0x8, addend: 0x0, symName: '__ZNSt3__110unique_ptrINS_10__function6__funcIZN21BGMDeviceControlsList19MatchControlsListOfEjE3$_0NS_9allocatorIS4_EEFvvEEENS_22__allocator_destructorINS5_IS8_EEEEEC2B8ne190102ILb1EvEEPS8_NS_16__dependent_typeINS_27__unique_ptr_deleter_sfinaeISB_EEXT_EE20__good_rval_ref_typeE', symObjAddr: 0x53D8, symBinAddr: 0x10001AF0C, symSize: 0x48 }
  - { offset: 0xE03A0, size: 0x8, addend: 0x0, symName: '__ZNKSt3__117__compressed_pairIZN21BGMDeviceControlsList19MatchControlsListOfEjE3$_0NS_9allocatorIS2_EEE5firstB8ne190102Ev', symObjAddr: 0x5420, symBinAddr: 0x10001AF54, symSize: 0x24 }
  - { offset: 0xE03C6, size: 0x8, addend: 0x0, symName: '__ZNKSt3__122__compressed_pair_elemIZN21BGMDeviceControlsList19MatchControlsListOfEjE3$_0Li0ELb0EE5__getB8ne190102Ev', symObjAddr: 0x5444, symBinAddr: 0x10001AF78, symSize: 0x14 }
  - { offset: 0xE03EC, size: 0x8, addend: 0x0, symName: '__ZNSt3__19allocatorIZN21BGMDeviceControlsList19MatchControlsListOfEjE3$_0EC2B8ne190102INS_10__function6__funcIS2_S3_FvvEEEEERKNS0_IT_EE', symObjAddr: 0x5458, symBinAddr: 0x10001AF8C, symSize: 0x30 }
  - { offset: 0xE042B, size: 0x8, addend: 0x0, symName: '__ZNSt3__110__function6__funcIZN21BGMDeviceControlsList19MatchControlsListOfEjE3$_0NS_9allocatorIS3_EEFvvEEC2B8ne190102ERKS3_OS5_', symObjAddr: 0x5488, symBinAddr: 0x10001AFBC, symSize: 0x80 }
  - { offset: 0xE0475, size: 0x8, addend: 0x0, symName: '__ZNSt3__110__function12__alloc_funcIZN21BGMDeviceControlsList19MatchControlsListOfEjE3$_0NS_9allocatorIS3_EEFvvEEC1B8ne190102ERKS3_OS5_', symObjAddr: 0x5508, symBinAddr: 0x10001B03C, symSize: 0x3C }
  - { offset: 0xE04BD, size: 0x8, addend: 0x0, symName: '__ZNSt3__110__function12__alloc_funcIZN21BGMDeviceControlsList19MatchControlsListOfEjE3$_0NS_9allocatorIS3_EEFvvEEC2B8ne190102ERKS3_OS5_', symObjAddr: 0x5544, symBinAddr: 0x10001B078, symSize: 0x5C }
  - { offset: 0xE0505, size: 0x8, addend: 0x0, symName: '__ZNSt3__117__compressed_pairIZN21BGMDeviceControlsList19MatchControlsListOfEjE3$_0NS_9allocatorIS2_EEEC1B8ne190102IJRKS2_EJOS4_EEENS_21piecewise_construct_tENS_5tupleIJDpT_EEENSB_IJDpT0_EEE', symObjAddr: 0x55CC, symBinAddr: 0x10001B100, symSize: 0x3C }
  - { offset: 0xE0576, size: 0x8, addend: 0x0, symName: '__ZNSt3__15tupleIJRKZN21BGMDeviceControlsList19MatchControlsListOfEjE3$_0EEC1B8ne190102INS_4_AndELi0EEES4_', symObjAddr: 0x5608, symBinAddr: 0x10001B13C, symSize: 0x34 }
  - { offset: 0xE05C1, size: 0x8, addend: 0x0, symName: '__ZNSt3__15tupleIJRKZN21BGMDeviceControlsList19MatchControlsListOfEjE3$_0EEC2B8ne190102INS_4_AndELi0EEES4_', symObjAddr: 0x563C, symBinAddr: 0x10001B170, symSize: 0x34 }
  - { offset: 0xE060C, size: 0x8, addend: 0x0, symName: '__ZNSt3__112__tuple_implINS_15__tuple_indicesIJLm0EEEEJRKZN21BGMDeviceControlsList19MatchControlsListOfEjE3$_0EEC1B8ne190102IJLm0EEJS6_EJEJEJS6_EEENS1_IJXspT_EEEENS_13__tuple_typesIJDpT0_EEENS1_IJXspT1_EEEENSA_IJDpT2_EEEDpOT3_', symObjAddr: 0x5670, symBinAddr: 0x10001B1A4, symSize: 0x34 }
  - { offset: 0xE06AA, size: 0x8, addend: 0x0, symName: '__ZNSt3__112__tuple_implINS_15__tuple_indicesIJLm0EEEEJRKZN21BGMDeviceControlsList19MatchControlsListOfEjE3$_0EEC2B8ne190102IJLm0EEJS6_EJEJEJS6_EEENS1_IJXspT_EEEENS_13__tuple_typesIJDpT0_EEENS1_IJXspT1_EEEENSA_IJDpT2_EEEDpOT3_', symObjAddr: 0x56A4, symBinAddr: 0x10001B1D8, symSize: 0x34 }
  - { offset: 0xE0748, size: 0x8, addend: 0x0, symName: '__ZNSt3__112__tuple_leafILm0ERKZN21BGMDeviceControlsList19MatchControlsListOfEjE3$_0Lb0EEC2B8ne190102IS4_Li0EEEOT_', symObjAddr: 0x56D8, symBinAddr: 0x10001B20C, symSize: 0x20 }
  - { offset: 0xE0793, size: 0x8, addend: 0x0, symName: '__ZNSt3__117__compressed_pairIZN21BGMDeviceControlsList19MatchControlsListOfEjE3$_0NS_9allocatorIS2_EEEC2B8ne190102IJRKS2_EJOS4_EEENS_21piecewise_construct_tENS_5tupleIJDpT_EEENSB_IJDpT0_EEE', symObjAddr: 0x56F8, symBinAddr: 0x10001B22C, symSize: 0x54 }
  - { offset: 0xE0804, size: 0x8, addend: 0x0, symName: '__ZNSt3__122__compressed_pair_elemIZN21BGMDeviceControlsList19MatchControlsListOfEjE3$_0Li0ELb0EEC2B8ne190102IJRKS2_EJLm0EEEENS_21piecewise_construct_tENS_5tupleIJDpT_EEENS_15__tuple_indicesIJXspT0_EEEE', symObjAddr: 0x574C, symBinAddr: 0x10001B280, symSize: 0x4C }
  - { offset: 0xE086E, size: 0x8, addend: 0x0, symName: '__ZNSt3__112__tuple_leafILm0ERKZN21BGMDeviceControlsList19MatchControlsListOfEjE3$_0Lb0EE3getB8ne190102Ev', symObjAddr: 0x57BC, symBinAddr: 0x10001B2F0, symSize: 0x18 }
  - { offset: 0xE0894, size: 0x8, addend: 0x0, symName: '__ZNSt3__117__compressed_pairIPNS_10__function6__funcIZN21BGMDeviceControlsList19MatchControlsListOfEjE3$_0NS_9allocatorIS4_EEFvvEEENS_22__allocator_destructorINS5_IS8_EEEEE5firstB8ne190102Ev', symObjAddr: 0x57D4, symBinAddr: 0x10001B308, symSize: 0x24 }
  - { offset: 0xE08BA, size: 0x8, addend: 0x0, symName: '__ZNSt3__122__compressed_pair_elemIPNS_10__function6__funcIZN21BGMDeviceControlsList19MatchControlsListOfEjE3$_0NS_9allocatorIS4_EEFvvEEELi0ELb0EE5__getB8ne190102Ev', symObjAddr: 0x57F8, symBinAddr: 0x10001B32C, symSize: 0x14 }
  - { offset: 0xE08E0, size: 0x8, addend: 0x0, symName: '__ZNSt3__110unique_ptrINS_10__function6__funcIZN21BGMDeviceControlsList19MatchControlsListOfEjE3$_0NS_9allocatorIS4_EEFvvEEENS_22__allocator_destructorINS5_IS8_EEEEED2B8ne190102Ev', symObjAddr: 0x580C, symBinAddr: 0x10001B340, symSize: 0x30 }
  - { offset: 0xE090A, size: 0x8, addend: 0x0, symName: '__ZNSt3__110unique_ptrINS_10__function6__funcIZN21BGMDeviceControlsList19MatchControlsListOfEjE3$_0NS_9allocatorIS4_EEFvvEEENS_22__allocator_destructorINS5_IS8_EEEEE5resetB8ne190102EPS8_', symObjAddr: 0x583C, symBinAddr: 0x10001B370, symSize: 0x70 }
  - { offset: 0xE0950, size: 0x8, addend: 0x0, symName: '__ZNSt3__117__compressed_pairIPNS_10__function6__funcIZN21BGMDeviceControlsList19MatchControlsListOfEjE3$_0NS_9allocatorIS4_EEFvvEEENS_22__allocator_destructorINS5_IS8_EEEEE6secondB8ne190102Ev', symObjAddr: 0x58AC, symBinAddr: 0x10001B3E0, symSize: 0x28 }
  - { offset: 0xE0976, size: 0x8, addend: 0x0, symName: '__ZNSt3__122__allocator_destructorINS_9allocatorINS_10__function6__funcIZN21BGMDeviceControlsList19MatchControlsListOfEjE3$_0NS1_IS5_EEFvvEEEEEEclB8ne190102EPS8_', symObjAddr: 0x58D4, symBinAddr: 0x10001B408, symSize: 0x34 }
  - { offset: 0xE09AB, size: 0x8, addend: 0x0, symName: '__ZNSt3__122__compressed_pair_elemINS_22__allocator_destructorINS_9allocatorINS_10__function6__funcIZN21BGMDeviceControlsList19MatchControlsListOfEjE3$_0NS2_IS6_EEFvvEEEEEEELi1ELb0EE5__getB8ne190102Ev', symObjAddr: 0x5908, symBinAddr: 0x10001B43C, symSize: 0x14 }
  - { offset: 0xE09D1, size: 0x8, addend: 0x0, symName: '__ZNSt3__116allocator_traitsINS_9allocatorINS_10__function6__funcIZN21BGMDeviceControlsList19MatchControlsListOfEjE3$_0NS1_IS5_EEFvvEEEEEE10deallocateB8ne190102ERS9_PS8_m', symObjAddr: 0x591C, symBinAddr: 0x10001B450, symSize: 0x34 }
  - { offset: 0xE0A16, size: 0x8, addend: 0x0, symName: '__ZNSt3__19allocatorINS_10__function6__funcIZN21BGMDeviceControlsList19MatchControlsListOfEjE3$_0NS0_IS4_EEFvvEEEE10deallocateB8ne190102EPS7_m', symObjAddr: 0x5950, symBinAddr: 0x10001B484, symSize: 0x44 }
  - { offset: 0xE0A5A, size: 0x8, addend: 0x0, symName: '__ZNSt3__110__function6__funcIZN21BGMDeviceControlsList19MatchControlsListOfEjE3$_0NS_9allocatorIS3_EEFvvEEC1B8ne190102ERKS3_RKS5_', symObjAddr: 0x5994, symBinAddr: 0x10001B4C8, symSize: 0x3C }
  - { offset: 0xE0AA4, size: 0x8, addend: 0x0, symName: '__ZNSt3__110__function6__funcIZN21BGMDeviceControlsList19MatchControlsListOfEjE3$_0NS_9allocatorIS3_EEFvvEEC2B8ne190102ERKS3_RKS5_', symObjAddr: 0x59D0, symBinAddr: 0x10001B504, symSize: 0x80 }
  - { offset: 0xE0AEE, size: 0x8, addend: 0x0, symName: '__ZNSt3__110__function12__alloc_funcIZN21BGMDeviceControlsList19MatchControlsListOfEjE3$_0NS_9allocatorIS3_EEFvvEEC1B8ne190102ERKS3_RKS5_', symObjAddr: 0x5A50, symBinAddr: 0x10001B584, symSize: 0x3C }
  - { offset: 0xE0B36, size: 0x8, addend: 0x0, symName: '__ZNSt3__110__function12__alloc_funcIZN21BGMDeviceControlsList19MatchControlsListOfEjE3$_0NS_9allocatorIS3_EEFvvEEC2B8ne190102ERKS3_RKS5_', symObjAddr: 0x5A8C, symBinAddr: 0x10001B5C0, symSize: 0x5C }
  - { offset: 0xE0B7E, size: 0x8, addend: 0x0, symName: '__ZNSt3__117__compressed_pairIZN21BGMDeviceControlsList19MatchControlsListOfEjE3$_0NS_9allocatorIS2_EEEC1B8ne190102IJRKS2_EJRKS4_EEENS_21piecewise_construct_tENS_5tupleIJDpT_EEENSC_IJDpT0_EEE', symObjAddr: 0x5B14, symBinAddr: 0x10001B648, symSize: 0x3C }
  - { offset: 0xE0BEF, size: 0x8, addend: 0x0, symName: '__ZNSt3__15tupleIJRKNS_9allocatorIZN21BGMDeviceControlsList19MatchControlsListOfEjE3$_0EEEEC1B8ne190102INS_4_AndELi0EEES6_', symObjAddr: 0x5B50, symBinAddr: 0x10001B684, symSize: 0x34 }
  - { offset: 0xE0C3A, size: 0x8, addend: 0x0, symName: '__ZNSt3__15tupleIJRKNS_9allocatorIZN21BGMDeviceControlsList19MatchControlsListOfEjE3$_0EEEEC2B8ne190102INS_4_AndELi0EEES6_', symObjAddr: 0x5B84, symBinAddr: 0x10001B6B8, symSize: 0x34 }
  - { offset: 0xE0C85, size: 0x8, addend: 0x0, symName: '__ZNSt3__112__tuple_implINS_15__tuple_indicesIJLm0EEEEJRKNS_9allocatorIZN21BGMDeviceControlsList19MatchControlsListOfEjE3$_0EEEEC1B8ne190102IJLm0EEJS8_EJEJEJS8_EEENS1_IJXspT_EEEENS_13__tuple_typesIJDpT0_EEENS1_IJXspT1_EEEENSC_IJDpT2_EEEDpOT3_', symObjAddr: 0x5BB8, symBinAddr: 0x10001B6EC, symSize: 0x34 }
  - { offset: 0xE0D23, size: 0x8, addend: 0x0, symName: '__ZNSt3__112__tuple_implINS_15__tuple_indicesIJLm0EEEEJRKNS_9allocatorIZN21BGMDeviceControlsList19MatchControlsListOfEjE3$_0EEEEC2B8ne190102IJLm0EEJS8_EJEJEJS8_EEENS1_IJXspT_EEEENS_13__tuple_typesIJDpT0_EEENS1_IJXspT1_EEEENSC_IJDpT2_EEEDpOT3_', symObjAddr: 0x5BEC, symBinAddr: 0x10001B720, symSize: 0x34 }
  - { offset: 0xE0DC1, size: 0x8, addend: 0x0, symName: '__ZNSt3__112__tuple_leafILm0ERKNS_9allocatorIZN21BGMDeviceControlsList19MatchControlsListOfEjE3$_0EELb0EEC2B8ne190102IS6_Li0EEEOT_', symObjAddr: 0x5C20, symBinAddr: 0x10001B754, symSize: 0x20 }
  - { offset: 0xE0E0C, size: 0x8, addend: 0x0, symName: '__ZNSt3__117__compressed_pairIZN21BGMDeviceControlsList19MatchControlsListOfEjE3$_0NS_9allocatorIS2_EEEC2B8ne190102IJRKS2_EJRKS4_EEENS_21piecewise_construct_tENS_5tupleIJDpT_EEENSC_IJDpT0_EEE', symObjAddr: 0x5C40, symBinAddr: 0x10001B774, symSize: 0x54 }
  - { offset: 0xE0E7D, size: 0x8, addend: 0x0, symName: '__ZNSt3__122__compressed_pair_elemINS_9allocatorIZN21BGMDeviceControlsList19MatchControlsListOfEjE3$_0EELi1ELb1EEC2B8ne190102IJRKS4_EJLm0EEEENS_21piecewise_construct_tENS_5tupleIJDpT_EEENS_15__tuple_indicesIJXspT0_EEEE', symObjAddr: 0x5C94, symBinAddr: 0x10001B7C8, symSize: 0x38 }
  - { offset: 0xE0EE7, size: 0x8, addend: 0x0, symName: '__ZNSt3__112__tuple_leafILm0ERKNS_9allocatorIZN21BGMDeviceControlsList19MatchControlsListOfEjE3$_0EELb0EE3getB8ne190102Ev', symObjAddr: 0x5CF0, symBinAddr: 0x10001B824, symSize: 0x18 }
  - { offset: 0xE0F0D, size: 0x8, addend: 0x0, symName: '__ZNSt3__110__function12__alloc_funcIZN21BGMDeviceControlsList19MatchControlsListOfEjE3$_0NS_9allocatorIS3_EEFvvEE7destroyB8ne190102Ev', symObjAddr: 0x5D08, symBinAddr: 0x10001B83C, symSize: 0x10 }
  - { offset: 0xE0F33, size: 0x8, addend: 0x0, symName: '__ZNSt3__110__function12__alloc_funcIZN21BGMDeviceControlsList19MatchControlsListOfEjE3$_0NS_9allocatorIS3_EEFvvEEclB8ne190102Ev', symObjAddr: 0x5D18, symBinAddr: 0x10001B84C, symSize: 0x28 }
  - { offset: 0xE0F59, size: 0x8, addend: 0x0, symName: '__ZNSt3__128__invoke_void_return_wrapperIvLb1EE6__callB8ne190102IJRZN21BGMDeviceControlsList19MatchControlsListOfEjE3$_0EEEvDpOT_', symObjAddr: 0x5D40, symBinAddr: 0x10001B874, symSize: 0x24 }
  - { offset: 0xE0F8A, size: 0x8, addend: 0x0, symName: '__ZNSt3__117__compressed_pairIZN21BGMDeviceControlsList19MatchControlsListOfEjE3$_0NS_9allocatorIS2_EEE5firstB8ne190102Ev', symObjAddr: 0x5D64, symBinAddr: 0x10001B898, symSize: 0x24 }
  - { offset: 0xE0FB5, size: 0x8, addend: 0x0, symName: '__ZZN21BGMDeviceControlsList19MatchControlsListOfEjENK3$_0clEv', symObjAddr: 0x5DAC, symBinAddr: 0x10001B8E0, symSize: 0x84 }
  - { offset: 0xE0FDF, size: 0x8, addend: 0x0, symName: '__ZNSt3__122__compressed_pair_elemIZN21BGMDeviceControlsList19MatchControlsListOfEjE3$_0Li0ELb0EE5__getB8ne190102Ev', symObjAddr: 0x5E30, symBinAddr: 0x10001B964, symSize: 0x14 }
  - { offset: 0xE1005, size: 0x8, addend: 0x0, symName: '__ZNSt3__110unique_ptrINS_10__function6__baseIFvvEEENS_22__allocator_destructorINS_9allocatorINS1_6__funcIZN21BGMDeviceControlsList19MatchControlsListOfEjE3$_0NS6_IS9_EES3_EEEEEEED2B8ne190102Ev', symObjAddr: 0x5E44, symBinAddr: 0x10001B978, symSize: 0x30 }
  - { offset: 0xE102F, size: 0x8, addend: 0x0, symName: '__ZNSt3__110unique_ptrINS_10__function6__baseIFvvEEENS_22__allocator_destructorINS_9allocatorINS1_6__funcIZN21BGMDeviceControlsList19MatchControlsListOfEjE3$_0NS6_IS9_EES3_EEEEEEE5resetB8ne190102EPSB_', symObjAddr: 0x5E74, symBinAddr: 0x10001B9A8, symSize: 0x70 }
  - { offset: 0xE1075, size: 0x8, addend: 0x0, symName: '__ZNSt3__18functionIFvvEEC2IZN21BGMDeviceControlsList26PropagateControlListChangeEvE3$_0vEET_', symObjAddr: 0x5EE4, symBinAddr: 0x10001BA18, symSize: 0x3C }
  - { offset: 0xE10BB, size: 0x8, addend: 0x0, symName: '__ZNSt3__110__function12__value_funcIFvvEEC1B8ne190102IZN21BGMDeviceControlsList26PropagateControlListChangeEvE3$_0Li0EEEOT_', symObjAddr: 0x5F20, symBinAddr: 0x10001BA54, symSize: 0x50 }
  - { offset: 0xE1106, size: 0x8, addend: 0x0, symName: '__ZNSt3__19allocatorIZN21BGMDeviceControlsList26PropagateControlListChangeEvE3$_0EC1B8ne190102Ev', symObjAddr: 0x5F70, symBinAddr: 0x10001BAA4, symSize: 0x2C }
  - { offset: 0xE1130, size: 0x8, addend: 0x0, symName: '__ZNSt3__110__function12__value_funcIFvvEEC1B8ne190102IZN21BGMDeviceControlsList26PropagateControlListChangeEvE3$_0NS_9allocatorIS6_EEEEOT_RKT0_', symObjAddr: 0x5F9C, symBinAddr: 0x10001BAD0, symSize: 0x3C }
  - { offset: 0xE118E, size: 0x8, addend: 0x0, symName: '__ZNSt3__19allocatorIZN21BGMDeviceControlsList26PropagateControlListChangeEvE3$_0EC2B8ne190102Ev', symObjAddr: 0x5FD8, symBinAddr: 0x10001BB0C, symSize: 0x2C }
  - { offset: 0xE11B8, size: 0x8, addend: 0x0, symName: '__ZNSt3__116__non_trivial_ifILb1ENS_9allocatorIZN21BGMDeviceControlsList26PropagateControlListChangeEvE3$_0EEEC2B8ne190102Ev', symObjAddr: 0x6004, symBinAddr: 0x10001BB38, symSize: 0x14 }
  - { offset: 0xE11E2, size: 0x8, addend: 0x0, symName: '__ZNSt3__110__function12__value_funcIFvvEEC2B8ne190102IZN21BGMDeviceControlsList26PropagateControlListChangeEvE3$_0NS_9allocatorIS6_EEEEOT_RKT0_', symObjAddr: 0x6018, symBinAddr: 0x10001BB4C, symSize: 0x94 }
  - { offset: 0xE1290, size: 0x8, addend: 0x0, symName: '__ZNSt3__19allocatorINS_10__function6__funcIZN21BGMDeviceControlsList26PropagateControlListChangeEvE3$_0NS0_IS4_EEFvvEEEEC1B8ne190102IS4_EERKNS0_IT_EE', symObjAddr: 0x60C4, symBinAddr: 0x10001BBF8, symSize: 0x34 }
  - { offset: 0xE12D5, size: 0x8, addend: 0x0, symName: '__ZNSt3__19allocatorIZN21BGMDeviceControlsList26PropagateControlListChangeEvE3$_0EC1B8ne190102INS_10__function6__funcIS2_S3_FvvEEEEERKNS0_IT_EE', symObjAddr: 0x60F8, symBinAddr: 0x10001BC2C, symSize: 0x34 }
  - { offset: 0xE1314, size: 0x8, addend: 0x0, symName: '__ZNSt3__110__function6__funcIZN21BGMDeviceControlsList26PropagateControlListChangeEvE3$_0NS_9allocatorIS3_EEFvvEEC1B8ne190102EOS3_OS5_', symObjAddr: 0x612C, symBinAddr: 0x10001BC60, symSize: 0x3C }
  - { offset: 0xE135E, size: 0x8, addend: 0x0, symName: '__ZNSt3__19allocatorINS_10__function6__funcIZN21BGMDeviceControlsList26PropagateControlListChangeEvE3$_0NS0_IS4_EEFvvEEEEC2B8ne190102IS4_EERKNS0_IT_EE', symObjAddr: 0x6168, symBinAddr: 0x10001BC9C, symSize: 0x30 }
  - { offset: 0xE139D, size: 0x8, addend: 0x0, symName: '__ZNSt3__116__non_trivial_ifILb1ENS_9allocatorINS_10__function6__funcIZN21BGMDeviceControlsList26PropagateControlListChangeEvE3$_0NS1_IS5_EEFvvEEEEEEC2B8ne190102Ev', symObjAddr: 0x6198, symBinAddr: 0x10001BCCC, symSize: 0x14 }
  - { offset: 0xE13C7, size: 0x8, addend: 0x0, symName: '__ZNSt3__19allocatorIZN21BGMDeviceControlsList26PropagateControlListChangeEvE3$_0EC2B8ne190102INS_10__function6__funcIS2_S3_FvvEEEEERKNS0_IT_EE', symObjAddr: 0x61AC, symBinAddr: 0x10001BCE0, symSize: 0x30 }
  - { offset: 0xE1406, size: 0x8, addend: 0x0, symName: '__ZNSt3__110__function6__funcIZN21BGMDeviceControlsList26PropagateControlListChangeEvE3$_0NS_9allocatorIS3_EEFvvEEC2B8ne190102EOS3_OS5_', symObjAddr: 0x61DC, symBinAddr: 0x10001BD10, symSize: 0x80 }
  - { offset: 0xE1450, size: 0x8, addend: 0x0, symName: '__ZNSt3__110__function12__alloc_funcIZN21BGMDeviceControlsList26PropagateControlListChangeEvE3$_0NS_9allocatorIS3_EEFvvEEC1B8ne190102EOS3_OS5_', symObjAddr: 0x625C, symBinAddr: 0x10001BD90, symSize: 0x3C }
  - { offset: 0xE1498, size: 0x8, addend: 0x0, symName: '__ZNSt3__110__function6__funcIZN21BGMDeviceControlsList26PropagateControlListChangeEvE3$_0NS_9allocatorIS3_EEFvvEED1Ev', symObjAddr: 0x6298, symBinAddr: 0x10001BDCC, symSize: 0x2C }
  - { offset: 0xE14C4, size: 0x8, addend: 0x0, symName: '__ZNSt3__110__function6__funcIZN21BGMDeviceControlsList26PropagateControlListChangeEvE3$_0NS_9allocatorIS3_EEFvvEED0Ev', symObjAddr: 0x62C4, symBinAddr: 0x10001BDF8, symSize: 0x30 }
  - { offset: 0xE14F0, size: 0x8, addend: 0x0, symName: '__ZNKSt3__110__function6__funcIZN21BGMDeviceControlsList26PropagateControlListChangeEvE3$_0NS_9allocatorIS3_EEFvvEE7__cloneEv', symObjAddr: 0x62F4, symBinAddr: 0x10001BE28, symSize: 0xFC }
  - { offset: 0xE1542, size: 0x8, addend: 0x0, symName: '__ZNKSt3__110__function6__funcIZN21BGMDeviceControlsList26PropagateControlListChangeEvE3$_0NS_9allocatorIS3_EEFvvEE7__cloneEPNS0_6__baseIS6_EE', symObjAddr: 0x63F0, symBinAddr: 0x10001BF24, symSize: 0x58 }
  - { offset: 0xE1578, size: 0x8, addend: 0x0, symName: '__ZNSt3__110__function6__funcIZN21BGMDeviceControlsList26PropagateControlListChangeEvE3$_0NS_9allocatorIS3_EEFvvEE7destroyEv', symObjAddr: 0x6448, symBinAddr: 0x10001BF7C, symSize: 0x28 }
  - { offset: 0xE159E, size: 0x8, addend: 0x0, symName: '__ZNSt3__110__function6__funcIZN21BGMDeviceControlsList26PropagateControlListChangeEvE3$_0NS_9allocatorIS3_EEFvvEE18destroy_deallocateEv', symObjAddr: 0x6470, symBinAddr: 0x10001BFA4, symSize: 0x58 }
  - { offset: 0xE15E0, size: 0x8, addend: 0x0, symName: '__ZNSt3__110__function6__funcIZN21BGMDeviceControlsList26PropagateControlListChangeEvE3$_0NS_9allocatorIS3_EEFvvEEclEv', symObjAddr: 0x64C8, symBinAddr: 0x10001BFFC, symSize: 0x28 }
  - { offset: 0xE1606, size: 0x8, addend: 0x0, symName: '__ZNKSt3__110__function6__funcIZN21BGMDeviceControlsList26PropagateControlListChangeEvE3$_0NS_9allocatorIS3_EEFvvEE6targetERKSt9type_info', symObjAddr: 0x64F0, symBinAddr: 0x10001C024, symSize: 0x60 }
  - { offset: 0xE163C, size: 0x8, addend: 0x0, symName: '__ZNKSt3__110__function6__funcIZN21BGMDeviceControlsList26PropagateControlListChangeEvE3$_0NS_9allocatorIS3_EEFvvEE11target_typeEv', symObjAddr: 0x6550, symBinAddr: 0x10001C084, symSize: 0x18 }
  - { offset: 0xE1662, size: 0x8, addend: 0x0, symName: '__ZNSt3__110__function12__alloc_funcIZN21BGMDeviceControlsList26PropagateControlListChangeEvE3$_0NS_9allocatorIS3_EEFvvEEC2B8ne190102EOS3_OS5_', symObjAddr: 0x6568, symBinAddr: 0x10001C09C, symSize: 0x5C }
  - { offset: 0xE16AA, size: 0x8, addend: 0x0, symName: '__ZNSt3__117__compressed_pairIZN21BGMDeviceControlsList26PropagateControlListChangeEvE3$_0NS_9allocatorIS2_EEEC1B8ne190102IJOS2_EJOS4_EEENS_21piecewise_construct_tENS_5tupleIJDpT_EEENSA_IJDpT0_EEE', symObjAddr: 0x661C, symBinAddr: 0x10001C150, symSize: 0x3C }
  - { offset: 0xE171B, size: 0x8, addend: 0x0, symName: '__ZNSt3__15tupleIJOZN21BGMDeviceControlsList26PropagateControlListChangeEvE3$_0EEC1B8ne190102IJS2_ELi0EEEDpOT_', symObjAddr: 0x6658, symBinAddr: 0x10001C18C, symSize: 0x34 }
  - { offset: 0xE1769, size: 0x8, addend: 0x0, symName: '__ZNSt3__15tupleIJOZN21BGMDeviceControlsList26PropagateControlListChangeEvE3$_0EEC2B8ne190102IJS2_ELi0EEEDpOT_', symObjAddr: 0x668C, symBinAddr: 0x10001C1C0, symSize: 0x34 }
  - { offset: 0xE17B7, size: 0x8, addend: 0x0, symName: '__ZNSt3__112__tuple_implINS_15__tuple_indicesIJLm0EEEEJOZN21BGMDeviceControlsList26PropagateControlListChangeEvE3$_0EEC1B8ne190102IJLm0EEJS5_EJEJEJS4_EEENS1_IJXspT_EEEENS_13__tuple_typesIJDpT0_EEENS1_IJXspT1_EEEENS9_IJDpT2_EEEDpOT3_', symObjAddr: 0x66C0, symBinAddr: 0x10001C1F4, symSize: 0x34 }
  - { offset: 0xE1855, size: 0x8, addend: 0x0, symName: '__ZNSt3__112__tuple_implINS_15__tuple_indicesIJLm0EEEEJOZN21BGMDeviceControlsList26PropagateControlListChangeEvE3$_0EEC2B8ne190102IJLm0EEJS5_EJEJEJS4_EEENS1_IJXspT_EEEENS_13__tuple_typesIJDpT0_EEENS1_IJXspT1_EEEENS9_IJDpT2_EEEDpOT3_', symObjAddr: 0x66F4, symBinAddr: 0x10001C228, symSize: 0x34 }
  - { offset: 0xE18F3, size: 0x8, addend: 0x0, symName: '__ZNSt3__112__tuple_leafILm0EOZN21BGMDeviceControlsList26PropagateControlListChangeEvE3$_0Lb0EEC2B8ne190102IS2_Li0EEEOT_', symObjAddr: 0x6728, symBinAddr: 0x10001C25C, symSize: 0x20 }
  - { offset: 0xE193E, size: 0x8, addend: 0x0, symName: '__ZNSt3__15tupleIJONS_9allocatorIZN21BGMDeviceControlsList26PropagateControlListChangeEvE3$_0EEEEC1B8ne190102IJS4_ELi0EEEDpOT_', symObjAddr: 0x6748, symBinAddr: 0x10001C27C, symSize: 0x34 }
  - { offset: 0xE198C, size: 0x8, addend: 0x0, symName: '__ZNSt3__15tupleIJONS_9allocatorIZN21BGMDeviceControlsList26PropagateControlListChangeEvE3$_0EEEEC2B8ne190102IJS4_ELi0EEEDpOT_', symObjAddr: 0x677C, symBinAddr: 0x10001C2B0, symSize: 0x34 }
  - { offset: 0xE19DA, size: 0x8, addend: 0x0, symName: '__ZNSt3__112__tuple_implINS_15__tuple_indicesIJLm0EEEEJONS_9allocatorIZN21BGMDeviceControlsList26PropagateControlListChangeEvE3$_0EEEEC1B8ne190102IJLm0EEJS7_EJEJEJS6_EEENS1_IJXspT_EEEENS_13__tuple_typesIJDpT0_EEENS1_IJXspT1_EEEENSB_IJDpT2_EEEDpOT3_', symObjAddr: 0x67B0, symBinAddr: 0x10001C2E4, symSize: 0x34 }
  - { offset: 0xE1A78, size: 0x8, addend: 0x0, symName: '__ZNSt3__112__tuple_implINS_15__tuple_indicesIJLm0EEEEJONS_9allocatorIZN21BGMDeviceControlsList26PropagateControlListChangeEvE3$_0EEEEC2B8ne190102IJLm0EEJS7_EJEJEJS6_EEENS1_IJXspT_EEEENS_13__tuple_typesIJDpT0_EEENS1_IJXspT1_EEEENSB_IJDpT2_EEEDpOT3_', symObjAddr: 0x67E4, symBinAddr: 0x10001C318, symSize: 0x34 }
  - { offset: 0xE1B16, size: 0x8, addend: 0x0, symName: '__ZNSt3__112__tuple_leafILm0EONS_9allocatorIZN21BGMDeviceControlsList26PropagateControlListChangeEvE3$_0EELb0EEC2B8ne190102IS4_Li0EEEOT_', symObjAddr: 0x6818, symBinAddr: 0x10001C34C, symSize: 0x20 }
  - { offset: 0xE1B61, size: 0x8, addend: 0x0, symName: '__ZNSt3__117__compressed_pairIZN21BGMDeviceControlsList26PropagateControlListChangeEvE3$_0NS_9allocatorIS2_EEEC2B8ne190102IJOS2_EJOS4_EEENS_21piecewise_construct_tENS_5tupleIJDpT_EEENSA_IJDpT0_EEE', symObjAddr: 0x6838, symBinAddr: 0x10001C36C, symSize: 0x54 }
  - { offset: 0xE1BD2, size: 0x8, addend: 0x0, symName: '__ZNSt3__122__compressed_pair_elemIZN21BGMDeviceControlsList26PropagateControlListChangeEvE3$_0Li0ELb0EEC2B8ne190102IJOS2_EJLm0EEEENS_21piecewise_construct_tENS_5tupleIJDpT_EEENS_15__tuple_indicesIJXspT0_EEEE', symObjAddr: 0x688C, symBinAddr: 0x10001C3C0, symSize: 0x44 }
  - { offset: 0xE1C3C, size: 0x8, addend: 0x0, symName: '__ZNSt3__122__compressed_pair_elemINS_9allocatorIZN21BGMDeviceControlsList26PropagateControlListChangeEvE3$_0EELi1ELb1EEC2B8ne190102IJOS4_EJLm0EEEENS_21piecewise_construct_tENS_5tupleIJDpT_EEENS_15__tuple_indicesIJXspT0_EEEE', symObjAddr: 0x68D0, symBinAddr: 0x10001C404, symSize: 0x38 }
  - { offset: 0xE1CA6, size: 0x8, addend: 0x0, symName: '__ZNSt3__112__tuple_leafILm0EOZN21BGMDeviceControlsList26PropagateControlListChangeEvE3$_0Lb0EE3getB8ne190102Ev', symObjAddr: 0x692C, symBinAddr: 0x10001C460, symSize: 0x18 }
  - { offset: 0xE1CCC, size: 0x8, addend: 0x0, symName: '__ZNSt3__112__tuple_leafILm0EONS_9allocatorIZN21BGMDeviceControlsList26PropagateControlListChangeEvE3$_0EELb0EE3getB8ne190102Ev', symObjAddr: 0x6968, symBinAddr: 0x10001C49C, symSize: 0x18 }
  - { offset: 0xE1CF2, size: 0x8, addend: 0x0, symName: '__ZNSt3__110__function6__funcIZN21BGMDeviceControlsList26PropagateControlListChangeEvE3$_0NS_9allocatorIS3_EEFvvEED2Ev', symObjAddr: 0x6980, symBinAddr: 0x10001C4B4, symSize: 0x2C }
  - { offset: 0xE1D1E, size: 0x8, addend: 0x0, symName: '__ZNKSt3__110__function12__alloc_funcIZN21BGMDeviceControlsList26PropagateControlListChangeEvE3$_0NS_9allocatorIS3_EEFvvEE15__get_allocatorB8ne190102Ev', symObjAddr: 0x69AC, symBinAddr: 0x10001C4E0, symSize: 0x24 }
  - { offset: 0xE1D44, size: 0x8, addend: 0x0, symName: '__ZNSt3__19allocatorINS_10__function6__funcIZN21BGMDeviceControlsList26PropagateControlListChangeEvE3$_0NS0_IS4_EEFvvEEEE8allocateB8ne190102Em', symObjAddr: 0x69D0, symBinAddr: 0x10001C504, symSize: 0x58 }
  - { offset: 0xE1D8A, size: 0x8, addend: 0x0, symName: '__ZNSt3__122__allocator_destructorINS_9allocatorINS_10__function6__funcIZN21BGMDeviceControlsList26PropagateControlListChangeEvE3$_0NS1_IS5_EEFvvEEEEEEC1B8ne190102ERS9_m', symObjAddr: 0x6A28, symBinAddr: 0x10001C55C, symSize: 0x3C }
  - { offset: 0xE1E68, size: 0x8, addend: 0x0, symName: '__ZNSt3__110unique_ptrINS_10__function6__funcIZN21BGMDeviceControlsList26PropagateControlListChangeEvE3$_0NS_9allocatorIS4_EEFvvEEENS_22__allocator_destructorINS5_IS8_EEEEEC1B8ne190102ILb1EvEEPS8_NS_16__dependent_typeINS_27__unique_ptr_deleter_sfinaeISB_EEXT_EE20__good_rval_ref_typeE', symObjAddr: 0x6A64, symBinAddr: 0x10001C598, symSize: 0x3C }
  - { offset: 0xE1EBD, size: 0x8, addend: 0x0, symName: '__ZNKSt3__110unique_ptrINS_10__function6__funcIZN21BGMDeviceControlsList26PropagateControlListChangeEvE3$_0NS_9allocatorIS4_EEFvvEEENS_22__allocator_destructorINS5_IS8_EEEEE3getB8ne190102Ev', symObjAddr: 0x6AA0, symBinAddr: 0x10001C5D4, symSize: 0x28 }
  - { offset: 0xE1EE3, size: 0x8, addend: 0x0, symName: '__ZNKSt3__110__function12__alloc_funcIZN21BGMDeviceControlsList26PropagateControlListChangeEvE3$_0NS_9allocatorIS3_EEFvvEE8__targetB8ne190102Ev', symObjAddr: 0x6AC8, symBinAddr: 0x10001C5FC, symSize: 0x24 }
  - { offset: 0xE1F09, size: 0x8, addend: 0x0, symName: '__ZNSt3__110__function6__funcIZN21BGMDeviceControlsList26PropagateControlListChangeEvE3$_0NS_9allocatorIS3_EEFvvEEC1B8ne190102ERKS3_OS5_', symObjAddr: 0x6AEC, symBinAddr: 0x10001C620, symSize: 0x3C }
  - { offset: 0xE1F53, size: 0x8, addend: 0x0, symName: '__ZNSt3__110unique_ptrINS_10__function6__funcIZN21BGMDeviceControlsList26PropagateControlListChangeEvE3$_0NS_9allocatorIS4_EEFvvEEENS_22__allocator_destructorINS5_IS8_EEEEE7releaseB8ne190102Ev', symObjAddr: 0x6B28, symBinAddr: 0x10001C65C, symSize: 0x44 }
  - { offset: 0xE1F89, size: 0x8, addend: 0x0, symName: '__ZNSt3__110unique_ptrINS_10__function6__funcIZN21BGMDeviceControlsList26PropagateControlListChangeEvE3$_0NS_9allocatorIS4_EEFvvEEENS_22__allocator_destructorINS5_IS8_EEEEED1B8ne190102Ev', symObjAddr: 0x6B6C, symBinAddr: 0x10001C6A0, symSize: 0x2C }
  - { offset: 0xE1FB3, size: 0x8, addend: 0x0, symName: '__ZNKSt3__117__compressed_pairIZN21BGMDeviceControlsList26PropagateControlListChangeEvE3$_0NS_9allocatorIS2_EEE6secondB8ne190102Ev', symObjAddr: 0x6B98, symBinAddr: 0x10001C6CC, symSize: 0x24 }
  - { offset: 0xE1FD9, size: 0x8, addend: 0x0, symName: '__ZNKSt3__122__compressed_pair_elemINS_9allocatorIZN21BGMDeviceControlsList26PropagateControlListChangeEvE3$_0EELi1ELb1EE5__getB8ne190102Ev', symObjAddr: 0x6BBC, symBinAddr: 0x10001C6F0, symSize: 0x14 }
  - { offset: 0xE200A, size: 0x8, addend: 0x0, symName: '__ZNSt3__116allocator_traitsINS_9allocatorINS_10__function6__funcIZN21BGMDeviceControlsList26PropagateControlListChangeEvE3$_0NS1_IS5_EEFvvEEEEEE8max_sizeB8ne190102IS9_Li0EEEmRKS9_', symObjAddr: 0x6BD0, symBinAddr: 0x10001C704, symSize: 0x24 }
  - { offset: 0xE2040, size: 0x8, addend: 0x0, symName: '__ZNKSt3__19allocatorINS_10__function6__funcIZN21BGMDeviceControlsList26PropagateControlListChangeEvE3$_0NS0_IS4_EEFvvEEEE8max_sizeB8ne190102Ev', symObjAddr: 0x6BF4, symBinAddr: 0x10001C728, symSize: 0x18 }
  - { offset: 0xE2066, size: 0x8, addend: 0x0, symName: '__ZNSt3__122__allocator_destructorINS_9allocatorINS_10__function6__funcIZN21BGMDeviceControlsList26PropagateControlListChangeEvE3$_0NS1_IS5_EEFvvEEEEEEC2B8ne190102ERS9_m', symObjAddr: 0x6C0C, symBinAddr: 0x10001C740, symSize: 0x2C }
  - { offset: 0xE20AE, size: 0x8, addend: 0x0, symName: '__ZNSt3__110unique_ptrINS_10__function6__funcIZN21BGMDeviceControlsList26PropagateControlListChangeEvE3$_0NS_9allocatorIS4_EEFvvEEENS_22__allocator_destructorINS5_IS8_EEEEEC2B8ne190102ILb1EvEEPS8_NS_16__dependent_typeINS_27__unique_ptr_deleter_sfinaeISB_EEXT_EE20__good_rval_ref_typeE', symObjAddr: 0x6C38, symBinAddr: 0x10001C76C, symSize: 0x48 }
  - { offset: 0xE2103, size: 0x8, addend: 0x0, symName: '__ZNSt3__117__compressed_pairIPNS_10__function6__funcIZN21BGMDeviceControlsList26PropagateControlListChangeEvE3$_0NS_9allocatorIS4_EEFvvEEENS_22__allocator_destructorINS5_IS8_EEEEEC1B8ne190102IRS9_SC_EEOT_OT0_', symObjAddr: 0x6C80, symBinAddr: 0x10001C7B4, symSize: 0x3C }
  - { offset: 0xE215F, size: 0x8, addend: 0x0, symName: '__ZNSt3__117__compressed_pairIPNS_10__function6__funcIZN21BGMDeviceControlsList26PropagateControlListChangeEvE3$_0NS_9allocatorIS4_EEFvvEEENS_22__allocator_destructorINS5_IS8_EEEEEC2B8ne190102IRS9_SC_EEOT_OT0_', symObjAddr: 0x6CBC, symBinAddr: 0x10001C7F0, symSize: 0x48 }
  - { offset: 0xE21BB, size: 0x8, addend: 0x0, symName: '__ZNSt3__122__compressed_pair_elemIPNS_10__function6__funcIZN21BGMDeviceControlsList26PropagateControlListChangeEvE3$_0NS_9allocatorIS4_EEFvvEEELi0ELb0EEC2B8ne190102IRS9_Li0EEEOT_', symObjAddr: 0x6D04, symBinAddr: 0x10001C838, symSize: 0x24 }
  - { offset: 0xE2205, size: 0x8, addend: 0x0, symName: '__ZNSt3__122__compressed_pair_elemINS_22__allocator_destructorINS_9allocatorINS_10__function6__funcIZN21BGMDeviceControlsList26PropagateControlListChangeEvE3$_0NS2_IS6_EEFvvEEEEEEELi1ELb0EEC2B8ne190102ISB_Li0EEEOT_', symObjAddr: 0x6D28, symBinAddr: 0x10001C85C, symSize: 0x24 }
  - { offset: 0xE224F, size: 0x8, addend: 0x0, symName: '__ZNKSt3__117__compressed_pairIPNS_10__function6__funcIZN21BGMDeviceControlsList26PropagateControlListChangeEvE3$_0NS_9allocatorIS4_EEFvvEEENS_22__allocator_destructorINS5_IS8_EEEEE5firstB8ne190102Ev', symObjAddr: 0x6D4C, symBinAddr: 0x10001C880, symSize: 0x24 }
  - { offset: 0xE2275, size: 0x8, addend: 0x0, symName: '__ZNKSt3__122__compressed_pair_elemIPNS_10__function6__funcIZN21BGMDeviceControlsList26PropagateControlListChangeEvE3$_0NS_9allocatorIS4_EEFvvEEELi0ELb0EE5__getB8ne190102Ev', symObjAddr: 0x6D70, symBinAddr: 0x10001C8A4, symSize: 0x14 }
  - { offset: 0xE229B, size: 0x8, addend: 0x0, symName: '__ZNKSt3__117__compressed_pairIZN21BGMDeviceControlsList26PropagateControlListChangeEvE3$_0NS_9allocatorIS2_EEE5firstB8ne190102Ev', symObjAddr: 0x6D84, symBinAddr: 0x10001C8B8, symSize: 0x24 }
  - { offset: 0xE22C1, size: 0x8, addend: 0x0, symName: '__ZNKSt3__122__compressed_pair_elemIZN21BGMDeviceControlsList26PropagateControlListChangeEvE3$_0Li0ELb0EE5__getB8ne190102Ev', symObjAddr: 0x6DA8, symBinAddr: 0x10001C8DC, symSize: 0x14 }
  - { offset: 0xE22E7, size: 0x8, addend: 0x0, symName: '__ZNSt3__110__function6__funcIZN21BGMDeviceControlsList26PropagateControlListChangeEvE3$_0NS_9allocatorIS3_EEFvvEEC2B8ne190102ERKS3_OS5_', symObjAddr: 0x6DBC, symBinAddr: 0x10001C8F0, symSize: 0x80 }
  - { offset: 0xE2331, size: 0x8, addend: 0x0, symName: '__ZNSt3__110__function12__alloc_funcIZN21BGMDeviceControlsList26PropagateControlListChangeEvE3$_0NS_9allocatorIS3_EEFvvEEC1B8ne190102ERKS3_OS5_', symObjAddr: 0x6E3C, symBinAddr: 0x10001C970, symSize: 0x3C }
  - { offset: 0xE2379, size: 0x8, addend: 0x0, symName: '__ZNSt3__110__function12__alloc_funcIZN21BGMDeviceControlsList26PropagateControlListChangeEvE3$_0NS_9allocatorIS3_EEFvvEEC2B8ne190102ERKS3_OS5_', symObjAddr: 0x6E78, symBinAddr: 0x10001C9AC, symSize: 0x5C }
  - { offset: 0xE23C1, size: 0x8, addend: 0x0, symName: '__ZNSt3__117__compressed_pairIZN21BGMDeviceControlsList26PropagateControlListChangeEvE3$_0NS_9allocatorIS2_EEEC1B8ne190102IJRKS2_EJOS4_EEENS_21piecewise_construct_tENS_5tupleIJDpT_EEENSB_IJDpT0_EEE', symObjAddr: 0x6F00, symBinAddr: 0x10001CA34, symSize: 0x3C }
  - { offset: 0xE2432, size: 0x8, addend: 0x0, symName: '__ZNSt3__15tupleIJRKZN21BGMDeviceControlsList26PropagateControlListChangeEvE3$_0EEC1B8ne190102INS_4_AndELi0EEES4_', symObjAddr: 0x6F3C, symBinAddr: 0x10001CA70, symSize: 0x34 }
  - { offset: 0xE247D, size: 0x8, addend: 0x0, symName: '__ZNSt3__15tupleIJRKZN21BGMDeviceControlsList26PropagateControlListChangeEvE3$_0EEC2B8ne190102INS_4_AndELi0EEES4_', symObjAddr: 0x6F70, symBinAddr: 0x10001CAA4, symSize: 0x34 }
  - { offset: 0xE24C8, size: 0x8, addend: 0x0, symName: '__ZNSt3__112__tuple_implINS_15__tuple_indicesIJLm0EEEEJRKZN21BGMDeviceControlsList26PropagateControlListChangeEvE3$_0EEC1B8ne190102IJLm0EEJS6_EJEJEJS6_EEENS1_IJXspT_EEEENS_13__tuple_typesIJDpT0_EEENS1_IJXspT1_EEEENSA_IJDpT2_EEEDpOT3_', symObjAddr: 0x6FA4, symBinAddr: 0x10001CAD8, symSize: 0x34 }
  - { offset: 0xE2566, size: 0x8, addend: 0x0, symName: '__ZNSt3__112__tuple_implINS_15__tuple_indicesIJLm0EEEEJRKZN21BGMDeviceControlsList26PropagateControlListChangeEvE3$_0EEC2B8ne190102IJLm0EEJS6_EJEJEJS6_EEENS1_IJXspT_EEEENS_13__tuple_typesIJDpT0_EEENS1_IJXspT1_EEEENSA_IJDpT2_EEEDpOT3_', symObjAddr: 0x6FD8, symBinAddr: 0x10001CB0C, symSize: 0x34 }
  - { offset: 0xE2604, size: 0x8, addend: 0x0, symName: '__ZNSt3__112__tuple_leafILm0ERKZN21BGMDeviceControlsList26PropagateControlListChangeEvE3$_0Lb0EEC2B8ne190102IS4_Li0EEEOT_', symObjAddr: 0x700C, symBinAddr: 0x10001CB40, symSize: 0x20 }
  - { offset: 0xE264F, size: 0x8, addend: 0x0, symName: '__ZNSt3__117__compressed_pairIZN21BGMDeviceControlsList26PropagateControlListChangeEvE3$_0NS_9allocatorIS2_EEEC2B8ne190102IJRKS2_EJOS4_EEENS_21piecewise_construct_tENS_5tupleIJDpT_EEENSB_IJDpT0_EEE', symObjAddr: 0x702C, symBinAddr: 0x10001CB60, symSize: 0x54 }
  - { offset: 0xE26C0, size: 0x8, addend: 0x0, symName: '__ZNSt3__122__compressed_pair_elemIZN21BGMDeviceControlsList26PropagateControlListChangeEvE3$_0Li0ELb0EEC2B8ne190102IJRKS2_EJLm0EEEENS_21piecewise_construct_tENS_5tupleIJDpT_EEENS_15__tuple_indicesIJXspT0_EEEE', symObjAddr: 0x7080, symBinAddr: 0x10001CBB4, symSize: 0x44 }
  - { offset: 0xE272A, size: 0x8, addend: 0x0, symName: '__ZNSt3__112__tuple_leafILm0ERKZN21BGMDeviceControlsList26PropagateControlListChangeEvE3$_0Lb0EE3getB8ne190102Ev', symObjAddr: 0x70E8, symBinAddr: 0x10001CC1C, symSize: 0x18 }
  - { offset: 0xE2750, size: 0x8, addend: 0x0, symName: '__ZNSt3__117__compressed_pairIPNS_10__function6__funcIZN21BGMDeviceControlsList26PropagateControlListChangeEvE3$_0NS_9allocatorIS4_EEFvvEEENS_22__allocator_destructorINS5_IS8_EEEEE5firstB8ne190102Ev', symObjAddr: 0x7100, symBinAddr: 0x10001CC34, symSize: 0x24 }
  - { offset: 0xE2776, size: 0x8, addend: 0x0, symName: '__ZNSt3__122__compressed_pair_elemIPNS_10__function6__funcIZN21BGMDeviceControlsList26PropagateControlListChangeEvE3$_0NS_9allocatorIS4_EEFvvEEELi0ELb0EE5__getB8ne190102Ev', symObjAddr: 0x7124, symBinAddr: 0x10001CC58, symSize: 0x14 }
  - { offset: 0xE279C, size: 0x8, addend: 0x0, symName: '__ZNSt3__110unique_ptrINS_10__function6__funcIZN21BGMDeviceControlsList26PropagateControlListChangeEvE3$_0NS_9allocatorIS4_EEFvvEEENS_22__allocator_destructorINS5_IS8_EEEEED2B8ne190102Ev', symObjAddr: 0x7138, symBinAddr: 0x10001CC6C, symSize: 0x30 }
  - { offset: 0xE27C6, size: 0x8, addend: 0x0, symName: '__ZNSt3__110unique_ptrINS_10__function6__funcIZN21BGMDeviceControlsList26PropagateControlListChangeEvE3$_0NS_9allocatorIS4_EEFvvEEENS_22__allocator_destructorINS5_IS8_EEEEE5resetB8ne190102EPS8_', symObjAddr: 0x7168, symBinAddr: 0x10001CC9C, symSize: 0x70 }
  - { offset: 0xE280C, size: 0x8, addend: 0x0, symName: '__ZNSt3__117__compressed_pairIPNS_10__function6__funcIZN21BGMDeviceControlsList26PropagateControlListChangeEvE3$_0NS_9allocatorIS4_EEFvvEEENS_22__allocator_destructorINS5_IS8_EEEEE6secondB8ne190102Ev', symObjAddr: 0x71D8, symBinAddr: 0x10001CD0C, symSize: 0x28 }
  - { offset: 0xE2832, size: 0x8, addend: 0x0, symName: '__ZNSt3__122__allocator_destructorINS_9allocatorINS_10__function6__funcIZN21BGMDeviceControlsList26PropagateControlListChangeEvE3$_0NS1_IS5_EEFvvEEEEEEclB8ne190102EPS8_', symObjAddr: 0x7200, symBinAddr: 0x10001CD34, symSize: 0x34 }
  - { offset: 0xE2867, size: 0x8, addend: 0x0, symName: '__ZNSt3__122__compressed_pair_elemINS_22__allocator_destructorINS_9allocatorINS_10__function6__funcIZN21BGMDeviceControlsList26PropagateControlListChangeEvE3$_0NS2_IS6_EEFvvEEEEEEELi1ELb0EE5__getB8ne190102Ev', symObjAddr: 0x7234, symBinAddr: 0x10001CD68, symSize: 0x14 }
  - { offset: 0xE288D, size: 0x8, addend: 0x0, symName: '__ZNSt3__116allocator_traitsINS_9allocatorINS_10__function6__funcIZN21BGMDeviceControlsList26PropagateControlListChangeEvE3$_0NS1_IS5_EEFvvEEEEEE10deallocateB8ne190102ERS9_PS8_m', symObjAddr: 0x7248, symBinAddr: 0x10001CD7C, symSize: 0x34 }
  - { offset: 0xE28D2, size: 0x8, addend: 0x0, symName: '__ZNSt3__19allocatorINS_10__function6__funcIZN21BGMDeviceControlsList26PropagateControlListChangeEvE3$_0NS0_IS4_EEFvvEEEE10deallocateB8ne190102EPS7_m', symObjAddr: 0x727C, symBinAddr: 0x10001CDB0, symSize: 0x44 }
  - { offset: 0xE2916, size: 0x8, addend: 0x0, symName: '__ZNSt3__110__function6__funcIZN21BGMDeviceControlsList26PropagateControlListChangeEvE3$_0NS_9allocatorIS3_EEFvvEEC1B8ne190102ERKS3_RKS5_', symObjAddr: 0x72C0, symBinAddr: 0x10001CDF4, symSize: 0x3C }
  - { offset: 0xE2960, size: 0x8, addend: 0x0, symName: '__ZNSt3__110__function6__funcIZN21BGMDeviceControlsList26PropagateControlListChangeEvE3$_0NS_9allocatorIS3_EEFvvEEC2B8ne190102ERKS3_RKS5_', symObjAddr: 0x72FC, symBinAddr: 0x10001CE30, symSize: 0x80 }
  - { offset: 0xE29AA, size: 0x8, addend: 0x0, symName: '__ZNSt3__110__function12__alloc_funcIZN21BGMDeviceControlsList26PropagateControlListChangeEvE3$_0NS_9allocatorIS3_EEFvvEEC1B8ne190102ERKS3_RKS5_', symObjAddr: 0x737C, symBinAddr: 0x10001CEB0, symSize: 0x3C }
  - { offset: 0xE29F2, size: 0x8, addend: 0x0, symName: '__ZNSt3__110__function12__alloc_funcIZN21BGMDeviceControlsList26PropagateControlListChangeEvE3$_0NS_9allocatorIS3_EEFvvEEC2B8ne190102ERKS3_RKS5_', symObjAddr: 0x73B8, symBinAddr: 0x10001CEEC, symSize: 0x5C }
  - { offset: 0xE2A3A, size: 0x8, addend: 0x0, symName: '__ZNSt3__117__compressed_pairIZN21BGMDeviceControlsList26PropagateControlListChangeEvE3$_0NS_9allocatorIS2_EEEC1B8ne190102IJRKS2_EJRKS4_EEENS_21piecewise_construct_tENS_5tupleIJDpT_EEENSC_IJDpT0_EEE', symObjAddr: 0x7440, symBinAddr: 0x10001CF74, symSize: 0x3C }
  - { offset: 0xE2AAB, size: 0x8, addend: 0x0, symName: '__ZNSt3__15tupleIJRKNS_9allocatorIZN21BGMDeviceControlsList26PropagateControlListChangeEvE3$_0EEEEC1B8ne190102INS_4_AndELi0EEES6_', symObjAddr: 0x747C, symBinAddr: 0x10001CFB0, symSize: 0x34 }
  - { offset: 0xE2AF6, size: 0x8, addend: 0x0, symName: '__ZNSt3__15tupleIJRKNS_9allocatorIZN21BGMDeviceControlsList26PropagateControlListChangeEvE3$_0EEEEC2B8ne190102INS_4_AndELi0EEES6_', symObjAddr: 0x74B0, symBinAddr: 0x10001CFE4, symSize: 0x34 }
  - { offset: 0xE2B41, size: 0x8, addend: 0x0, symName: '__ZNSt3__112__tuple_implINS_15__tuple_indicesIJLm0EEEEJRKNS_9allocatorIZN21BGMDeviceControlsList26PropagateControlListChangeEvE3$_0EEEEC1B8ne190102IJLm0EEJS8_EJEJEJS8_EEENS1_IJXspT_EEEENS_13__tuple_typesIJDpT0_EEENS1_IJXspT1_EEEENSC_IJDpT2_EEEDpOT3_', symObjAddr: 0x74E4, symBinAddr: 0x10001D018, symSize: 0x34 }
  - { offset: 0xE2BDF, size: 0x8, addend: 0x0, symName: '__ZNSt3__112__tuple_implINS_15__tuple_indicesIJLm0EEEEJRKNS_9allocatorIZN21BGMDeviceControlsList26PropagateControlListChangeEvE3$_0EEEEC2B8ne190102IJLm0EEJS8_EJEJEJS8_EEENS1_IJXspT_EEEENS_13__tuple_typesIJDpT0_EEENS1_IJXspT1_EEEENSC_IJDpT2_EEEDpOT3_', symObjAddr: 0x7518, symBinAddr: 0x10001D04C, symSize: 0x34 }
  - { offset: 0xE2C7D, size: 0x8, addend: 0x0, symName: '__ZNSt3__112__tuple_leafILm0ERKNS_9allocatorIZN21BGMDeviceControlsList26PropagateControlListChangeEvE3$_0EELb0EEC2B8ne190102IS6_Li0EEEOT_', symObjAddr: 0x754C, symBinAddr: 0x10001D080, symSize: 0x20 }
  - { offset: 0xE2CC8, size: 0x8, addend: 0x0, symName: '__ZNSt3__117__compressed_pairIZN21BGMDeviceControlsList26PropagateControlListChangeEvE3$_0NS_9allocatorIS2_EEEC2B8ne190102IJRKS2_EJRKS4_EEENS_21piecewise_construct_tENS_5tupleIJDpT_EEENSC_IJDpT0_EEE', symObjAddr: 0x756C, symBinAddr: 0x10001D0A0, symSize: 0x54 }
  - { offset: 0xE2D39, size: 0x8, addend: 0x0, symName: '__ZNSt3__122__compressed_pair_elemINS_9allocatorIZN21BGMDeviceControlsList26PropagateControlListChangeEvE3$_0EELi1ELb1EEC2B8ne190102IJRKS4_EJLm0EEEENS_21piecewise_construct_tENS_5tupleIJDpT_EEENS_15__tuple_indicesIJXspT0_EEEE', symObjAddr: 0x75C0, symBinAddr: 0x10001D0F4, symSize: 0x38 }
  - { offset: 0xE2DA3, size: 0x8, addend: 0x0, symName: '__ZNSt3__112__tuple_leafILm0ERKNS_9allocatorIZN21BGMDeviceControlsList26PropagateControlListChangeEvE3$_0EELb0EE3getB8ne190102Ev', symObjAddr: 0x761C, symBinAddr: 0x10001D150, symSize: 0x18 }
  - { offset: 0xE2DC9, size: 0x8, addend: 0x0, symName: '__ZNSt3__110__function12__alloc_funcIZN21BGMDeviceControlsList26PropagateControlListChangeEvE3$_0NS_9allocatorIS3_EEFvvEE7destroyB8ne190102Ev', symObjAddr: 0x7634, symBinAddr: 0x10001D168, symSize: 0x10 }
  - { offset: 0xE2DEF, size: 0x8, addend: 0x0, symName: '__ZNSt3__110__function12__alloc_funcIZN21BGMDeviceControlsList26PropagateControlListChangeEvE3$_0NS_9allocatorIS3_EEFvvEEclB8ne190102Ev', symObjAddr: 0x7644, symBinAddr: 0x10001D178, symSize: 0x28 }
  - { offset: 0xE2E15, size: 0x8, addend: 0x0, symName: '__ZNSt3__128__invoke_void_return_wrapperIvLb1EE6__callB8ne190102IJRZN21BGMDeviceControlsList26PropagateControlListChangeEvE3$_0EEEvDpOT_', symObjAddr: 0x766C, symBinAddr: 0x10001D1A0, symSize: 0x24 }
  - { offset: 0xE2E46, size: 0x8, addend: 0x0, symName: '__ZNSt3__117__compressed_pairIZN21BGMDeviceControlsList26PropagateControlListChangeEvE3$_0NS_9allocatorIS2_EEE5firstB8ne190102Ev', symObjAddr: 0x7690, symBinAddr: 0x10001D1C4, symSize: 0x24 }
  - { offset: 0xE2E71, size: 0x8, addend: 0x0, symName: '__ZZN21BGMDeviceControlsList26PropagateControlListChangeEvENK3$_0clEv', symObjAddr: 0x76D8, symBinAddr: 0x10001D20C, symSize: 0x6C }
  - { offset: 0xE2E9B, size: 0x8, addend: 0x0, symName: '__ZNSt3__122__compressed_pair_elemIZN21BGMDeviceControlsList26PropagateControlListChangeEvE3$_0Li0ELb0EE5__getB8ne190102Ev', symObjAddr: 0x7744, symBinAddr: 0x10001D278, symSize: 0x14 }
  - { offset: 0xE2EC1, size: 0x8, addend: 0x0, symName: '__ZNSt3__18functionIFvvEEC2IZN21BGMDeviceControlsList18InitDeviceTogglingEvE3$_0vEET_', symObjAddr: 0x7758, symBinAddr: 0x10001D28C, symSize: 0x38 }
  - { offset: 0xE2F07, size: 0x8, addend: 0x0, symName: '__ZNSt3__110__function12__value_funcIFvvEEC1B8ne190102IZN21BGMDeviceControlsList18InitDeviceTogglingEvE3$_0Li0EEEOT_', symObjAddr: 0x7790, symBinAddr: 0x10001D2C4, symSize: 0x50 }
  - { offset: 0xE2F52, size: 0x8, addend: 0x0, symName: '__ZNSt3__19allocatorIZN21BGMDeviceControlsList18InitDeviceTogglingEvE3$_0EC1B8ne190102Ev', symObjAddr: 0x77E0, symBinAddr: 0x10001D314, symSize: 0x2C }
  - { offset: 0xE2F7C, size: 0x8, addend: 0x0, symName: '__ZNSt3__110__function12__value_funcIFvvEEC1B8ne190102IZN21BGMDeviceControlsList18InitDeviceTogglingEvE3$_0NS_9allocatorIS6_EEEEOT_RKT0_', symObjAddr: 0x780C, symBinAddr: 0x10001D340, symSize: 0x3C }
  - { offset: 0xE2FDA, size: 0x8, addend: 0x0, symName: '__ZNSt3__19allocatorIZN21BGMDeviceControlsList18InitDeviceTogglingEvE3$_0EC2B8ne190102Ev', symObjAddr: 0x7848, symBinAddr: 0x10001D37C, symSize: 0x2C }
  - { offset: 0xE3004, size: 0x8, addend: 0x0, symName: '__ZNSt3__116__non_trivial_ifILb1ENS_9allocatorIZN21BGMDeviceControlsList18InitDeviceTogglingEvE3$_0EEEC2B8ne190102Ev', symObjAddr: 0x7874, symBinAddr: 0x10001D3A8, symSize: 0x14 }
  - { offset: 0xE302E, size: 0x8, addend: 0x0, symName: '__ZNSt3__110__function12__value_funcIFvvEEC2B8ne190102IZN21BGMDeviceControlsList18InitDeviceTogglingEvE3$_0NS_9allocatorIS6_EEEEOT_RKT0_', symObjAddr: 0x7888, symBinAddr: 0x10001D3BC, symSize: 0x94 }
  - { offset: 0xE30DC, size: 0x8, addend: 0x0, symName: '__ZNSt3__19allocatorINS_10__function6__funcIZN21BGMDeviceControlsList18InitDeviceTogglingEvE3$_0NS0_IS4_EEFvvEEEEC1B8ne190102IS4_EERKNS0_IT_EE', symObjAddr: 0x7934, symBinAddr: 0x10001D468, symSize: 0x34 }
  - { offset: 0xE3121, size: 0x8, addend: 0x0, symName: '__ZNSt3__19allocatorIZN21BGMDeviceControlsList18InitDeviceTogglingEvE3$_0EC1B8ne190102INS_10__function6__funcIS2_S3_FvvEEEEERKNS0_IT_EE', symObjAddr: 0x7968, symBinAddr: 0x10001D49C, symSize: 0x34 }
  - { offset: 0xE3160, size: 0x8, addend: 0x0, symName: '__ZNSt3__110__function6__funcIZN21BGMDeviceControlsList18InitDeviceTogglingEvE3$_0NS_9allocatorIS3_EEFvvEEC1B8ne190102EOS3_OS5_', symObjAddr: 0x799C, symBinAddr: 0x10001D4D0, symSize: 0x3C }
  - { offset: 0xE31AA, size: 0x8, addend: 0x0, symName: '__ZNSt3__19allocatorINS_10__function6__funcIZN21BGMDeviceControlsList18InitDeviceTogglingEvE3$_0NS0_IS4_EEFvvEEEEC2B8ne190102IS4_EERKNS0_IT_EE', symObjAddr: 0x79D8, symBinAddr: 0x10001D50C, symSize: 0x30 }
  - { offset: 0xE31E9, size: 0x8, addend: 0x0, symName: '__ZNSt3__116__non_trivial_ifILb1ENS_9allocatorINS_10__function6__funcIZN21BGMDeviceControlsList18InitDeviceTogglingEvE3$_0NS1_IS5_EEFvvEEEEEEC2B8ne190102Ev', symObjAddr: 0x7A08, symBinAddr: 0x10001D53C, symSize: 0x14 }
  - { offset: 0xE3213, size: 0x8, addend: 0x0, symName: '__ZNSt3__19allocatorIZN21BGMDeviceControlsList18InitDeviceTogglingEvE3$_0EC2B8ne190102INS_10__function6__funcIS2_S3_FvvEEEEERKNS0_IT_EE', symObjAddr: 0x7A1C, symBinAddr: 0x10001D550, symSize: 0x30 }
  - { offset: 0xE3252, size: 0x8, addend: 0x0, symName: '__ZNSt3__110__function6__funcIZN21BGMDeviceControlsList18InitDeviceTogglingEvE3$_0NS_9allocatorIS3_EEFvvEEC2B8ne190102EOS3_OS5_', symObjAddr: 0x7A4C, symBinAddr: 0x10001D580, symSize: 0x80 }
  - { offset: 0xE329C, size: 0x8, addend: 0x0, symName: '__ZNSt3__110__function12__alloc_funcIZN21BGMDeviceControlsList18InitDeviceTogglingEvE3$_0NS_9allocatorIS3_EEFvvEEC1B8ne190102EOS3_OS5_', symObjAddr: 0x7ACC, symBinAddr: 0x10001D600, symSize: 0x3C }
  - { offset: 0xE32E4, size: 0x8, addend: 0x0, symName: '__ZNSt3__110__function6__funcIZN21BGMDeviceControlsList18InitDeviceTogglingEvE3$_0NS_9allocatorIS3_EEFvvEED1Ev', symObjAddr: 0x7B08, symBinAddr: 0x10001D63C, symSize: 0x2C }
  - { offset: 0xE3310, size: 0x8, addend: 0x0, symName: '__ZNSt3__110__function6__funcIZN21BGMDeviceControlsList18InitDeviceTogglingEvE3$_0NS_9allocatorIS3_EEFvvEED0Ev', symObjAddr: 0x7B34, symBinAddr: 0x10001D668, symSize: 0x30 }
  - { offset: 0xE333C, size: 0x8, addend: 0x0, symName: '__ZNKSt3__110__function6__funcIZN21BGMDeviceControlsList18InitDeviceTogglingEvE3$_0NS_9allocatorIS3_EEFvvEE7__cloneEv', symObjAddr: 0x7B64, symBinAddr: 0x10001D698, symSize: 0xFC }
  - { offset: 0xE338E, size: 0x8, addend: 0x0, symName: '__ZNKSt3__110__function6__funcIZN21BGMDeviceControlsList18InitDeviceTogglingEvE3$_0NS_9allocatorIS3_EEFvvEE7__cloneEPNS0_6__baseIS6_EE', symObjAddr: 0x7C60, symBinAddr: 0x10001D794, symSize: 0x58 }
  - { offset: 0xE33C4, size: 0x8, addend: 0x0, symName: '__ZNSt3__110__function6__funcIZN21BGMDeviceControlsList18InitDeviceTogglingEvE3$_0NS_9allocatorIS3_EEFvvEE7destroyEv', symObjAddr: 0x7CB8, symBinAddr: 0x10001D7EC, symSize: 0x28 }
  - { offset: 0xE33EA, size: 0x8, addend: 0x0, symName: '__ZNSt3__110__function6__funcIZN21BGMDeviceControlsList18InitDeviceTogglingEvE3$_0NS_9allocatorIS3_EEFvvEE18destroy_deallocateEv', symObjAddr: 0x7CE0, symBinAddr: 0x10001D814, symSize: 0x58 }
  - { offset: 0xE342C, size: 0x8, addend: 0x0, symName: '__ZNSt3__110__function6__funcIZN21BGMDeviceControlsList18InitDeviceTogglingEvE3$_0NS_9allocatorIS3_EEFvvEEclEv', symObjAddr: 0x7D38, symBinAddr: 0x10001D86C, symSize: 0x28 }
  - { offset: 0xE3452, size: 0x8, addend: 0x0, symName: '__ZNKSt3__110__function6__funcIZN21BGMDeviceControlsList18InitDeviceTogglingEvE3$_0NS_9allocatorIS3_EEFvvEE6targetERKSt9type_info', symObjAddr: 0x7D60, symBinAddr: 0x10001D894, symSize: 0x60 }
  - { offset: 0xE3488, size: 0x8, addend: 0x0, symName: '__ZNKSt3__110__function6__funcIZN21BGMDeviceControlsList18InitDeviceTogglingEvE3$_0NS_9allocatorIS3_EEFvvEE11target_typeEv', symObjAddr: 0x7DC0, symBinAddr: 0x10001D8F4, symSize: 0x18 }
  - { offset: 0xE34AE, size: 0x8, addend: 0x0, symName: '__ZNSt3__110__function12__alloc_funcIZN21BGMDeviceControlsList18InitDeviceTogglingEvE3$_0NS_9allocatorIS3_EEFvvEEC2B8ne190102EOS3_OS5_', symObjAddr: 0x7DD8, symBinAddr: 0x10001D90C, symSize: 0x5C }
  - { offset: 0xE34F6, size: 0x8, addend: 0x0, symName: '__ZNSt3__117__compressed_pairIZN21BGMDeviceControlsList18InitDeviceTogglingEvE3$_0NS_9allocatorIS2_EEEC1B8ne190102IJOS2_EJOS4_EEENS_21piecewise_construct_tENS_5tupleIJDpT_EEENSA_IJDpT0_EEE', symObjAddr: 0x7E8C, symBinAddr: 0x10001D9C0, symSize: 0x3C }
  - { offset: 0xE3567, size: 0x8, addend: 0x0, symName: '__ZNSt3__15tupleIJOZN21BGMDeviceControlsList18InitDeviceTogglingEvE3$_0EEC1B8ne190102IJS2_ELi0EEEDpOT_', symObjAddr: 0x7EC8, symBinAddr: 0x10001D9FC, symSize: 0x34 }
  - { offset: 0xE35B5, size: 0x8, addend: 0x0, symName: '__ZNSt3__15tupleIJOZN21BGMDeviceControlsList18InitDeviceTogglingEvE3$_0EEC2B8ne190102IJS2_ELi0EEEDpOT_', symObjAddr: 0x7EFC, symBinAddr: 0x10001DA30, symSize: 0x34 }
  - { offset: 0xE3603, size: 0x8, addend: 0x0, symName: '__ZNSt3__112__tuple_implINS_15__tuple_indicesIJLm0EEEEJOZN21BGMDeviceControlsList18InitDeviceTogglingEvE3$_0EEC1B8ne190102IJLm0EEJS5_EJEJEJS4_EEENS1_IJXspT_EEEENS_13__tuple_typesIJDpT0_EEENS1_IJXspT1_EEEENS9_IJDpT2_EEEDpOT3_', symObjAddr: 0x7F30, symBinAddr: 0x10001DA64, symSize: 0x34 }
  - { offset: 0xE36A1, size: 0x8, addend: 0x0, symName: '__ZNSt3__112__tuple_implINS_15__tuple_indicesIJLm0EEEEJOZN21BGMDeviceControlsList18InitDeviceTogglingEvE3$_0EEC2B8ne190102IJLm0EEJS5_EJEJEJS4_EEENS1_IJXspT_EEEENS_13__tuple_typesIJDpT0_EEENS1_IJXspT1_EEEENS9_IJDpT2_EEEDpOT3_', symObjAddr: 0x7F64, symBinAddr: 0x10001DA98, symSize: 0x34 }
  - { offset: 0xE373F, size: 0x8, addend: 0x0, symName: '__ZNSt3__112__tuple_leafILm0EOZN21BGMDeviceControlsList18InitDeviceTogglingEvE3$_0Lb0EEC2B8ne190102IS2_Li0EEEOT_', symObjAddr: 0x7F98, symBinAddr: 0x10001DACC, symSize: 0x20 }
  - { offset: 0xE378A, size: 0x8, addend: 0x0, symName: '__ZNSt3__15tupleIJONS_9allocatorIZN21BGMDeviceControlsList18InitDeviceTogglingEvE3$_0EEEEC1B8ne190102IJS4_ELi0EEEDpOT_', symObjAddr: 0x7FB8, symBinAddr: 0x10001DAEC, symSize: 0x34 }
  - { offset: 0xE37D8, size: 0x8, addend: 0x0, symName: '__ZNSt3__15tupleIJONS_9allocatorIZN21BGMDeviceControlsList18InitDeviceTogglingEvE3$_0EEEEC2B8ne190102IJS4_ELi0EEEDpOT_', symObjAddr: 0x7FEC, symBinAddr: 0x10001DB20, symSize: 0x34 }
  - { offset: 0xE3826, size: 0x8, addend: 0x0, symName: '__ZNSt3__112__tuple_implINS_15__tuple_indicesIJLm0EEEEJONS_9allocatorIZN21BGMDeviceControlsList18InitDeviceTogglingEvE3$_0EEEEC1B8ne190102IJLm0EEJS7_EJEJEJS6_EEENS1_IJXspT_EEEENS_13__tuple_typesIJDpT0_EEENS1_IJXspT1_EEEENSB_IJDpT2_EEEDpOT3_', symObjAddr: 0x8020, symBinAddr: 0x10001DB54, symSize: 0x34 }
  - { offset: 0xE38C4, size: 0x8, addend: 0x0, symName: '__ZNSt3__112__tuple_implINS_15__tuple_indicesIJLm0EEEEJONS_9allocatorIZN21BGMDeviceControlsList18InitDeviceTogglingEvE3$_0EEEEC2B8ne190102IJLm0EEJS7_EJEJEJS6_EEENS1_IJXspT_EEEENS_13__tuple_typesIJDpT0_EEENS1_IJXspT1_EEEENSB_IJDpT2_EEEDpOT3_', symObjAddr: 0x8054, symBinAddr: 0x10001DB88, symSize: 0x34 }
  - { offset: 0xE3962, size: 0x8, addend: 0x0, symName: '__ZNSt3__112__tuple_leafILm0EONS_9allocatorIZN21BGMDeviceControlsList18InitDeviceTogglingEvE3$_0EELb0EEC2B8ne190102IS4_Li0EEEOT_', symObjAddr: 0x8088, symBinAddr: 0x10001DBBC, symSize: 0x20 }
  - { offset: 0xE39AD, size: 0x8, addend: 0x0, symName: '__ZNSt3__117__compressed_pairIZN21BGMDeviceControlsList18InitDeviceTogglingEvE3$_0NS_9allocatorIS2_EEEC2B8ne190102IJOS2_EJOS4_EEENS_21piecewise_construct_tENS_5tupleIJDpT_EEENSA_IJDpT0_EEE', symObjAddr: 0x80A8, symBinAddr: 0x10001DBDC, symSize: 0x54 }
  - { offset: 0xE3A1E, size: 0x8, addend: 0x0, symName: '__ZNSt3__122__compressed_pair_elemIZN21BGMDeviceControlsList18InitDeviceTogglingEvE3$_0Li0ELb0EEC2B8ne190102IJOS2_EJLm0EEEENS_21piecewise_construct_tENS_5tupleIJDpT_EEENS_15__tuple_indicesIJXspT0_EEEE', symObjAddr: 0x80FC, symBinAddr: 0x10001DC30, symSize: 0x44 }
  - { offset: 0xE3A88, size: 0x8, addend: 0x0, symName: '__ZNSt3__122__compressed_pair_elemINS_9allocatorIZN21BGMDeviceControlsList18InitDeviceTogglingEvE3$_0EELi1ELb1EEC2B8ne190102IJOS4_EJLm0EEEENS_21piecewise_construct_tENS_5tupleIJDpT_EEENS_15__tuple_indicesIJXspT0_EEEE', symObjAddr: 0x8140, symBinAddr: 0x10001DC74, symSize: 0x38 }
  - { offset: 0xE3AF2, size: 0x8, addend: 0x0, symName: '__ZNSt3__112__tuple_leafILm0EOZN21BGMDeviceControlsList18InitDeviceTogglingEvE3$_0Lb0EE3getB8ne190102Ev', symObjAddr: 0x819C, symBinAddr: 0x10001DCD0, symSize: 0x18 }
  - { offset: 0xE3B18, size: 0x8, addend: 0x0, symName: '__ZNSt3__112__tuple_leafILm0EONS_9allocatorIZN21BGMDeviceControlsList18InitDeviceTogglingEvE3$_0EELb0EE3getB8ne190102Ev', symObjAddr: 0x81D8, symBinAddr: 0x10001DD0C, symSize: 0x18 }
  - { offset: 0xE3B3E, size: 0x8, addend: 0x0, symName: '__ZNSt3__110__function6__funcIZN21BGMDeviceControlsList18InitDeviceTogglingEvE3$_0NS_9allocatorIS3_EEFvvEED2Ev', symObjAddr: 0x81F0, symBinAddr: 0x10001DD24, symSize: 0x2C }
  - { offset: 0xE3B6A, size: 0x8, addend: 0x0, symName: '__ZNKSt3__110__function12__alloc_funcIZN21BGMDeviceControlsList18InitDeviceTogglingEvE3$_0NS_9allocatorIS3_EEFvvEE15__get_allocatorB8ne190102Ev', symObjAddr: 0x821C, symBinAddr: 0x10001DD50, symSize: 0x24 }
  - { offset: 0xE3B90, size: 0x8, addend: 0x0, symName: '__ZNSt3__19allocatorINS_10__function6__funcIZN21BGMDeviceControlsList18InitDeviceTogglingEvE3$_0NS0_IS4_EEFvvEEEE8allocateB8ne190102Em', symObjAddr: 0x8240, symBinAddr: 0x10001DD74, symSize: 0x54 }
  - { offset: 0xE3BD6, size: 0x8, addend: 0x0, symName: '__ZNSt3__122__allocator_destructorINS_9allocatorINS_10__function6__funcIZN21BGMDeviceControlsList18InitDeviceTogglingEvE3$_0NS1_IS5_EEFvvEEEEEEC1B8ne190102ERS9_m', symObjAddr: 0x8294, symBinAddr: 0x10001DDC8, symSize: 0x3C }
  - { offset: 0xE3CB4, size: 0x8, addend: 0x0, symName: '__ZNSt3__110unique_ptrINS_10__function6__funcIZN21BGMDeviceControlsList18InitDeviceTogglingEvE3$_0NS_9allocatorIS4_EEFvvEEENS_22__allocator_destructorINS5_IS8_EEEEEC1B8ne190102ILb1EvEEPS8_NS_16__dependent_typeINS_27__unique_ptr_deleter_sfinaeISB_EEXT_EE20__good_rval_ref_typeE', symObjAddr: 0x82D0, symBinAddr: 0x10001DE04, symSize: 0x3C }
  - { offset: 0xE3D09, size: 0x8, addend: 0x0, symName: '__ZNKSt3__110unique_ptrINS_10__function6__funcIZN21BGMDeviceControlsList18InitDeviceTogglingEvE3$_0NS_9allocatorIS4_EEFvvEEENS_22__allocator_destructorINS5_IS8_EEEEE3getB8ne190102Ev', symObjAddr: 0x830C, symBinAddr: 0x10001DE40, symSize: 0x28 }
  - { offset: 0xE3D2F, size: 0x8, addend: 0x0, symName: '__ZNKSt3__110__function12__alloc_funcIZN21BGMDeviceControlsList18InitDeviceTogglingEvE3$_0NS_9allocatorIS3_EEFvvEE8__targetB8ne190102Ev', symObjAddr: 0x8334, symBinAddr: 0x10001DE68, symSize: 0x24 }
  - { offset: 0xE3D55, size: 0x8, addend: 0x0, symName: '__ZNSt3__110__function6__funcIZN21BGMDeviceControlsList18InitDeviceTogglingEvE3$_0NS_9allocatorIS3_EEFvvEEC1B8ne190102ERKS3_OS5_', symObjAddr: 0x8358, symBinAddr: 0x10001DE8C, symSize: 0x3C }
  - { offset: 0xE3D9F, size: 0x8, addend: 0x0, symName: '__ZNSt3__110unique_ptrINS_10__function6__funcIZN21BGMDeviceControlsList18InitDeviceTogglingEvE3$_0NS_9allocatorIS4_EEFvvEEENS_22__allocator_destructorINS5_IS8_EEEEE7releaseB8ne190102Ev', symObjAddr: 0x8394, symBinAddr: 0x10001DEC8, symSize: 0x44 }
  - { offset: 0xE3DD5, size: 0x8, addend: 0x0, symName: '__ZNSt3__110unique_ptrINS_10__function6__funcIZN21BGMDeviceControlsList18InitDeviceTogglingEvE3$_0NS_9allocatorIS4_EEFvvEEENS_22__allocator_destructorINS5_IS8_EEEEED1B8ne190102Ev', symObjAddr: 0x83D8, symBinAddr: 0x10001DF0C, symSize: 0x2C }
  - { offset: 0xE3DFF, size: 0x8, addend: 0x0, symName: '__ZNKSt3__117__compressed_pairIZN21BGMDeviceControlsList18InitDeviceTogglingEvE3$_0NS_9allocatorIS2_EEE6secondB8ne190102Ev', symObjAddr: 0x8404, symBinAddr: 0x10001DF38, symSize: 0x24 }
  - { offset: 0xE3E25, size: 0x8, addend: 0x0, symName: '__ZNKSt3__122__compressed_pair_elemINS_9allocatorIZN21BGMDeviceControlsList18InitDeviceTogglingEvE3$_0EELi1ELb1EE5__getB8ne190102Ev', symObjAddr: 0x8428, symBinAddr: 0x10001DF5C, symSize: 0x14 }
  - { offset: 0xE3E56, size: 0x8, addend: 0x0, symName: '__ZNSt3__116allocator_traitsINS_9allocatorINS_10__function6__funcIZN21BGMDeviceControlsList18InitDeviceTogglingEvE3$_0NS1_IS5_EEFvvEEEEEE8max_sizeB8ne190102IS9_Li0EEEmRKS9_', symObjAddr: 0x843C, symBinAddr: 0x10001DF70, symSize: 0x24 }
  - { offset: 0xE3E8C, size: 0x8, addend: 0x0, symName: '__ZNKSt3__19allocatorINS_10__function6__funcIZN21BGMDeviceControlsList18InitDeviceTogglingEvE3$_0NS0_IS4_EEFvvEEEE8max_sizeB8ne190102Ev', symObjAddr: 0x8460, symBinAddr: 0x10001DF94, symSize: 0x14 }
  - { offset: 0xE3EB2, size: 0x8, addend: 0x0, symName: '__ZNSt3__122__allocator_destructorINS_9allocatorINS_10__function6__funcIZN21BGMDeviceControlsList18InitDeviceTogglingEvE3$_0NS1_IS5_EEFvvEEEEEEC2B8ne190102ERS9_m', symObjAddr: 0x8474, symBinAddr: 0x10001DFA8, symSize: 0x2C }
  - { offset: 0xE3EFA, size: 0x8, addend: 0x0, symName: '__ZNSt3__110unique_ptrINS_10__function6__funcIZN21BGMDeviceControlsList18InitDeviceTogglingEvE3$_0NS_9allocatorIS4_EEFvvEEENS_22__allocator_destructorINS5_IS8_EEEEEC2B8ne190102ILb1EvEEPS8_NS_16__dependent_typeINS_27__unique_ptr_deleter_sfinaeISB_EEXT_EE20__good_rval_ref_typeE', symObjAddr: 0x84A0, symBinAddr: 0x10001DFD4, symSize: 0x48 }
  - { offset: 0xE3F4F, size: 0x8, addend: 0x0, symName: '__ZNSt3__117__compressed_pairIPNS_10__function6__funcIZN21BGMDeviceControlsList18InitDeviceTogglingEvE3$_0NS_9allocatorIS4_EEFvvEEENS_22__allocator_destructorINS5_IS8_EEEEEC1B8ne190102IRS9_SC_EEOT_OT0_', symObjAddr: 0x84E8, symBinAddr: 0x10001E01C, symSize: 0x3C }
  - { offset: 0xE3FAB, size: 0x8, addend: 0x0, symName: '__ZNSt3__117__compressed_pairIPNS_10__function6__funcIZN21BGMDeviceControlsList18InitDeviceTogglingEvE3$_0NS_9allocatorIS4_EEFvvEEENS_22__allocator_destructorINS5_IS8_EEEEEC2B8ne190102IRS9_SC_EEOT_OT0_', symObjAddr: 0x8524, symBinAddr: 0x10001E058, symSize: 0x48 }
  - { offset: 0xE4007, size: 0x8, addend: 0x0, symName: '__ZNSt3__122__compressed_pair_elemIPNS_10__function6__funcIZN21BGMDeviceControlsList18InitDeviceTogglingEvE3$_0NS_9allocatorIS4_EEFvvEEELi0ELb0EEC2B8ne190102IRS9_Li0EEEOT_', symObjAddr: 0x856C, symBinAddr: 0x10001E0A0, symSize: 0x24 }
  - { offset: 0xE4051, size: 0x8, addend: 0x0, symName: '__ZNSt3__122__compressed_pair_elemINS_22__allocator_destructorINS_9allocatorINS_10__function6__funcIZN21BGMDeviceControlsList18InitDeviceTogglingEvE3$_0NS2_IS6_EEFvvEEEEEEELi1ELb0EEC2B8ne190102ISB_Li0EEEOT_', symObjAddr: 0x8590, symBinAddr: 0x10001E0C4, symSize: 0x24 }
  - { offset: 0xE409B, size: 0x8, addend: 0x0, symName: '__ZNKSt3__117__compressed_pairIPNS_10__function6__funcIZN21BGMDeviceControlsList18InitDeviceTogglingEvE3$_0NS_9allocatorIS4_EEFvvEEENS_22__allocator_destructorINS5_IS8_EEEEE5firstB8ne190102Ev', symObjAddr: 0x85B4, symBinAddr: 0x10001E0E8, symSize: 0x24 }
  - { offset: 0xE40C1, size: 0x8, addend: 0x0, symName: '__ZNKSt3__122__compressed_pair_elemIPNS_10__function6__funcIZN21BGMDeviceControlsList18InitDeviceTogglingEvE3$_0NS_9allocatorIS4_EEFvvEEELi0ELb0EE5__getB8ne190102Ev', symObjAddr: 0x85D8, symBinAddr: 0x10001E10C, symSize: 0x14 }
  - { offset: 0xE40E7, size: 0x8, addend: 0x0, symName: '__ZNKSt3__117__compressed_pairIZN21BGMDeviceControlsList18InitDeviceTogglingEvE3$_0NS_9allocatorIS2_EEE5firstB8ne190102Ev', symObjAddr: 0x85EC, symBinAddr: 0x10001E120, symSize: 0x24 }
  - { offset: 0xE410D, size: 0x8, addend: 0x0, symName: '__ZNKSt3__122__compressed_pair_elemIZN21BGMDeviceControlsList18InitDeviceTogglingEvE3$_0Li0ELb0EE5__getB8ne190102Ev', symObjAddr: 0x8610, symBinAddr: 0x10001E144, symSize: 0x14 }
  - { offset: 0xE4133, size: 0x8, addend: 0x0, symName: '__ZNSt3__110__function6__funcIZN21BGMDeviceControlsList18InitDeviceTogglingEvE3$_0NS_9allocatorIS3_EEFvvEEC2B8ne190102ERKS3_OS5_', symObjAddr: 0x8624, symBinAddr: 0x10001E158, symSize: 0x80 }
  - { offset: 0xE417D, size: 0x8, addend: 0x0, symName: '__ZNSt3__110__function12__alloc_funcIZN21BGMDeviceControlsList18InitDeviceTogglingEvE3$_0NS_9allocatorIS3_EEFvvEEC1B8ne190102ERKS3_OS5_', symObjAddr: 0x86A4, symBinAddr: 0x10001E1D8, symSize: 0x3C }
  - { offset: 0xE41C5, size: 0x8, addend: 0x0, symName: '__ZNSt3__110__function12__alloc_funcIZN21BGMDeviceControlsList18InitDeviceTogglingEvE3$_0NS_9allocatorIS3_EEFvvEEC2B8ne190102ERKS3_OS5_', symObjAddr: 0x86E0, symBinAddr: 0x10001E214, symSize: 0x5C }
  - { offset: 0xE420D, size: 0x8, addend: 0x0, symName: '__ZNSt3__117__compressed_pairIZN21BGMDeviceControlsList18InitDeviceTogglingEvE3$_0NS_9allocatorIS2_EEEC1B8ne190102IJRKS2_EJOS4_EEENS_21piecewise_construct_tENS_5tupleIJDpT_EEENSB_IJDpT0_EEE', symObjAddr: 0x8768, symBinAddr: 0x10001E29C, symSize: 0x3C }
  - { offset: 0xE427E, size: 0x8, addend: 0x0, symName: '__ZNSt3__15tupleIJRKZN21BGMDeviceControlsList18InitDeviceTogglingEvE3$_0EEC1B8ne190102INS_4_AndELi0EEES4_', symObjAddr: 0x87A4, symBinAddr: 0x10001E2D8, symSize: 0x34 }
  - { offset: 0xE42C9, size: 0x8, addend: 0x0, symName: '__ZNSt3__15tupleIJRKZN21BGMDeviceControlsList18InitDeviceTogglingEvE3$_0EEC2B8ne190102INS_4_AndELi0EEES4_', symObjAddr: 0x87D8, symBinAddr: 0x10001E30C, symSize: 0x34 }
  - { offset: 0xE4314, size: 0x8, addend: 0x0, symName: '__ZNSt3__112__tuple_implINS_15__tuple_indicesIJLm0EEEEJRKZN21BGMDeviceControlsList18InitDeviceTogglingEvE3$_0EEC1B8ne190102IJLm0EEJS6_EJEJEJS6_EEENS1_IJXspT_EEEENS_13__tuple_typesIJDpT0_EEENS1_IJXspT1_EEEENSA_IJDpT2_EEEDpOT3_', symObjAddr: 0x880C, symBinAddr: 0x10001E340, symSize: 0x34 }
  - { offset: 0xE43B2, size: 0x8, addend: 0x0, symName: '__ZNSt3__112__tuple_implINS_15__tuple_indicesIJLm0EEEEJRKZN21BGMDeviceControlsList18InitDeviceTogglingEvE3$_0EEC2B8ne190102IJLm0EEJS6_EJEJEJS6_EEENS1_IJXspT_EEEENS_13__tuple_typesIJDpT0_EEENS1_IJXspT1_EEEENSA_IJDpT2_EEEDpOT3_', symObjAddr: 0x8840, symBinAddr: 0x10001E374, symSize: 0x34 }
  - { offset: 0xE4450, size: 0x8, addend: 0x0, symName: '__ZNSt3__112__tuple_leafILm0ERKZN21BGMDeviceControlsList18InitDeviceTogglingEvE3$_0Lb0EEC2B8ne190102IS4_Li0EEEOT_', symObjAddr: 0x8874, symBinAddr: 0x10001E3A8, symSize: 0x20 }
  - { offset: 0xE449B, size: 0x8, addend: 0x0, symName: '__ZNSt3__117__compressed_pairIZN21BGMDeviceControlsList18InitDeviceTogglingEvE3$_0NS_9allocatorIS2_EEEC2B8ne190102IJRKS2_EJOS4_EEENS_21piecewise_construct_tENS_5tupleIJDpT_EEENSB_IJDpT0_EEE', symObjAddr: 0x8894, symBinAddr: 0x10001E3C8, symSize: 0x54 }
  - { offset: 0xE450C, size: 0x8, addend: 0x0, symName: '__ZNSt3__122__compressed_pair_elemIZN21BGMDeviceControlsList18InitDeviceTogglingEvE3$_0Li0ELb0EEC2B8ne190102IJRKS2_EJLm0EEEENS_21piecewise_construct_tENS_5tupleIJDpT_EEENS_15__tuple_indicesIJXspT0_EEEE', symObjAddr: 0x88E8, symBinAddr: 0x10001E41C, symSize: 0x44 }
  - { offset: 0xE4576, size: 0x8, addend: 0x0, symName: '__ZNSt3__112__tuple_leafILm0ERKZN21BGMDeviceControlsList18InitDeviceTogglingEvE3$_0Lb0EE3getB8ne190102Ev', symObjAddr: 0x8950, symBinAddr: 0x10001E484, symSize: 0x18 }
  - { offset: 0xE459C, size: 0x8, addend: 0x0, symName: '__ZNSt3__117__compressed_pairIPNS_10__function6__funcIZN21BGMDeviceControlsList18InitDeviceTogglingEvE3$_0NS_9allocatorIS4_EEFvvEEENS_22__allocator_destructorINS5_IS8_EEEEE5firstB8ne190102Ev', symObjAddr: 0x8968, symBinAddr: 0x10001E49C, symSize: 0x24 }
  - { offset: 0xE45C2, size: 0x8, addend: 0x0, symName: '__ZNSt3__122__compressed_pair_elemIPNS_10__function6__funcIZN21BGMDeviceControlsList18InitDeviceTogglingEvE3$_0NS_9allocatorIS4_EEFvvEEELi0ELb0EE5__getB8ne190102Ev', symObjAddr: 0x898C, symBinAddr: 0x10001E4C0, symSize: 0x14 }
  - { offset: 0xE45E8, size: 0x8, addend: 0x0, symName: '__ZNSt3__110unique_ptrINS_10__function6__funcIZN21BGMDeviceControlsList18InitDeviceTogglingEvE3$_0NS_9allocatorIS4_EEFvvEEENS_22__allocator_destructorINS5_IS8_EEEEED2B8ne190102Ev', symObjAddr: 0x89A0, symBinAddr: 0x10001E4D4, symSize: 0x30 }
  - { offset: 0xE4612, size: 0x8, addend: 0x0, symName: '__ZNSt3__110unique_ptrINS_10__function6__funcIZN21BGMDeviceControlsList18InitDeviceTogglingEvE3$_0NS_9allocatorIS4_EEFvvEEENS_22__allocator_destructorINS5_IS8_EEEEE5resetB8ne190102EPS8_', symObjAddr: 0x89D0, symBinAddr: 0x10001E504, symSize: 0x70 }
  - { offset: 0xE4658, size: 0x8, addend: 0x0, symName: '__ZNSt3__117__compressed_pairIPNS_10__function6__funcIZN21BGMDeviceControlsList18InitDeviceTogglingEvE3$_0NS_9allocatorIS4_EEFvvEEENS_22__allocator_destructorINS5_IS8_EEEEE6secondB8ne190102Ev', symObjAddr: 0x8A40, symBinAddr: 0x10001E574, symSize: 0x28 }
  - { offset: 0xE467E, size: 0x8, addend: 0x0, symName: '__ZNSt3__122__allocator_destructorINS_9allocatorINS_10__function6__funcIZN21BGMDeviceControlsList18InitDeviceTogglingEvE3$_0NS1_IS5_EEFvvEEEEEEclB8ne190102EPS8_', symObjAddr: 0x8A68, symBinAddr: 0x10001E59C, symSize: 0x34 }
  - { offset: 0xE46B3, size: 0x8, addend: 0x0, symName: '__ZNSt3__122__compressed_pair_elemINS_22__allocator_destructorINS_9allocatorINS_10__function6__funcIZN21BGMDeviceControlsList18InitDeviceTogglingEvE3$_0NS2_IS6_EEFvvEEEEEEELi1ELb0EE5__getB8ne190102Ev', symObjAddr: 0x8A9C, symBinAddr: 0x10001E5D0, symSize: 0x14 }
  - { offset: 0xE46D9, size: 0x8, addend: 0x0, symName: '__ZNSt3__116allocator_traitsINS_9allocatorINS_10__function6__funcIZN21BGMDeviceControlsList18InitDeviceTogglingEvE3$_0NS1_IS5_EEFvvEEEEEE10deallocateB8ne190102ERS9_PS8_m', symObjAddr: 0x8AB0, symBinAddr: 0x10001E5E4, symSize: 0x34 }
  - { offset: 0xE471E, size: 0x8, addend: 0x0, symName: '__ZNSt3__19allocatorINS_10__function6__funcIZN21BGMDeviceControlsList18InitDeviceTogglingEvE3$_0NS0_IS4_EEFvvEEEE10deallocateB8ne190102EPS7_m', symObjAddr: 0x8AE4, symBinAddr: 0x10001E618, symSize: 0x40 }
  - { offset: 0xE4762, size: 0x8, addend: 0x0, symName: '__ZNSt3__110__function6__funcIZN21BGMDeviceControlsList18InitDeviceTogglingEvE3$_0NS_9allocatorIS3_EEFvvEEC1B8ne190102ERKS3_RKS5_', symObjAddr: 0x8B24, symBinAddr: 0x10001E658, symSize: 0x3C }
  - { offset: 0xE47AC, size: 0x8, addend: 0x0, symName: '__ZNSt3__110__function6__funcIZN21BGMDeviceControlsList18InitDeviceTogglingEvE3$_0NS_9allocatorIS3_EEFvvEEC2B8ne190102ERKS3_RKS5_', symObjAddr: 0x8B60, symBinAddr: 0x10001E694, symSize: 0x80 }
  - { offset: 0xE47F6, size: 0x8, addend: 0x0, symName: '__ZNSt3__110__function12__alloc_funcIZN21BGMDeviceControlsList18InitDeviceTogglingEvE3$_0NS_9allocatorIS3_EEFvvEEC1B8ne190102ERKS3_RKS5_', symObjAddr: 0x8BE0, symBinAddr: 0x10001E714, symSize: 0x3C }
  - { offset: 0xE483E, size: 0x8, addend: 0x0, symName: '__ZNSt3__110__function12__alloc_funcIZN21BGMDeviceControlsList18InitDeviceTogglingEvE3$_0NS_9allocatorIS3_EEFvvEEC2B8ne190102ERKS3_RKS5_', symObjAddr: 0x8C1C, symBinAddr: 0x10001E750, symSize: 0x5C }
  - { offset: 0xE4886, size: 0x8, addend: 0x0, symName: '__ZNSt3__117__compressed_pairIZN21BGMDeviceControlsList18InitDeviceTogglingEvE3$_0NS_9allocatorIS2_EEEC1B8ne190102IJRKS2_EJRKS4_EEENS_21piecewise_construct_tENS_5tupleIJDpT_EEENSC_IJDpT0_EEE', symObjAddr: 0x8CA4, symBinAddr: 0x10001E7D8, symSize: 0x3C }
  - { offset: 0xE48F7, size: 0x8, addend: 0x0, symName: '__ZNSt3__15tupleIJRKNS_9allocatorIZN21BGMDeviceControlsList18InitDeviceTogglingEvE3$_0EEEEC1B8ne190102INS_4_AndELi0EEES6_', symObjAddr: 0x8CE0, symBinAddr: 0x10001E814, symSize: 0x34 }
  - { offset: 0xE4942, size: 0x8, addend: 0x0, symName: '__ZNSt3__15tupleIJRKNS_9allocatorIZN21BGMDeviceControlsList18InitDeviceTogglingEvE3$_0EEEEC2B8ne190102INS_4_AndELi0EEES6_', symObjAddr: 0x8D14, symBinAddr: 0x10001E848, symSize: 0x34 }
  - { offset: 0xE498D, size: 0x8, addend: 0x0, symName: '__ZNSt3__112__tuple_implINS_15__tuple_indicesIJLm0EEEEJRKNS_9allocatorIZN21BGMDeviceControlsList18InitDeviceTogglingEvE3$_0EEEEC1B8ne190102IJLm0EEJS8_EJEJEJS8_EEENS1_IJXspT_EEEENS_13__tuple_typesIJDpT0_EEENS1_IJXspT1_EEEENSC_IJDpT2_EEEDpOT3_', symObjAddr: 0x8D48, symBinAddr: 0x10001E87C, symSize: 0x34 }
  - { offset: 0xE4A2B, size: 0x8, addend: 0x0, symName: '__ZNSt3__112__tuple_implINS_15__tuple_indicesIJLm0EEEEJRKNS_9allocatorIZN21BGMDeviceControlsList18InitDeviceTogglingEvE3$_0EEEEC2B8ne190102IJLm0EEJS8_EJEJEJS8_EEENS1_IJXspT_EEEENS_13__tuple_typesIJDpT0_EEENS1_IJXspT1_EEEENSC_IJDpT2_EEEDpOT3_', symObjAddr: 0x8D7C, symBinAddr: 0x10001E8B0, symSize: 0x34 }
  - { offset: 0xE4AC9, size: 0x8, addend: 0x0, symName: '__ZNSt3__112__tuple_leafILm0ERKNS_9allocatorIZN21BGMDeviceControlsList18InitDeviceTogglingEvE3$_0EELb0EEC2B8ne190102IS6_Li0EEEOT_', symObjAddr: 0x8DB0, symBinAddr: 0x10001E8E4, symSize: 0x20 }
  - { offset: 0xE4B14, size: 0x8, addend: 0x0, symName: '__ZNSt3__117__compressed_pairIZN21BGMDeviceControlsList18InitDeviceTogglingEvE3$_0NS_9allocatorIS2_EEEC2B8ne190102IJRKS2_EJRKS4_EEENS_21piecewise_construct_tENS_5tupleIJDpT_EEENSC_IJDpT0_EEE', symObjAddr: 0x8DD0, symBinAddr: 0x10001E904, symSize: 0x54 }
  - { offset: 0xE4B85, size: 0x8, addend: 0x0, symName: '__ZNSt3__122__compressed_pair_elemINS_9allocatorIZN21BGMDeviceControlsList18InitDeviceTogglingEvE3$_0EELi1ELb1EEC2B8ne190102IJRKS4_EJLm0EEEENS_21piecewise_construct_tENS_5tupleIJDpT_EEENS_15__tuple_indicesIJXspT0_EEEE', symObjAddr: 0x8E24, symBinAddr: 0x10001E958, symSize: 0x38 }
  - { offset: 0xE4BEF, size: 0x8, addend: 0x0, symName: '__ZNSt3__112__tuple_leafILm0ERKNS_9allocatorIZN21BGMDeviceControlsList18InitDeviceTogglingEvE3$_0EELb0EE3getB8ne190102Ev', symObjAddr: 0x8E80, symBinAddr: 0x10001E9B4, symSize: 0x18 }
  - { offset: 0xE4C15, size: 0x8, addend: 0x0, symName: '__ZNSt3__110__function12__alloc_funcIZN21BGMDeviceControlsList18InitDeviceTogglingEvE3$_0NS_9allocatorIS3_EEFvvEE7destroyB8ne190102Ev', symObjAddr: 0x8E98, symBinAddr: 0x10001E9CC, symSize: 0x10 }
  - { offset: 0xE4C3B, size: 0x8, addend: 0x0, symName: '__ZNSt3__110__function12__alloc_funcIZN21BGMDeviceControlsList18InitDeviceTogglingEvE3$_0NS_9allocatorIS3_EEFvvEEclB8ne190102Ev', symObjAddr: 0x8EA8, symBinAddr: 0x10001E9DC, symSize: 0x28 }
  - { offset: 0xE4C61, size: 0x8, addend: 0x0, symName: '__ZNSt3__128__invoke_void_return_wrapperIvLb1EE6__callB8ne190102IJRZN21BGMDeviceControlsList18InitDeviceTogglingEvE3$_0EEEvDpOT_', symObjAddr: 0x8ED0, symBinAddr: 0x10001EA04, symSize: 0x24 }
  - { offset: 0xE4C92, size: 0x8, addend: 0x0, symName: '__ZNSt3__117__compressed_pairIZN21BGMDeviceControlsList18InitDeviceTogglingEvE3$_0NS_9allocatorIS2_EEE5firstB8ne190102Ev', symObjAddr: 0x8EF4, symBinAddr: 0x10001EA28, symSize: 0x24 }
  - { offset: 0xE4CBD, size: 0x8, addend: 0x0, symName: '__ZZN21BGMDeviceControlsList18InitDeviceTogglingEvENK3$_0clEv', symObjAddr: 0x8F3C, symBinAddr: 0x10001EA70, symSize: 0x54 }
  - { offset: 0xE4CE7, size: 0x8, addend: 0x0, symName: __ZN16CAHALAudioObject24AddPropertyListenerBlockERK26AudioObjectPropertyAddressP16dispatch_queue_sU13block_pointerFvjPS1_E, symObjAddr: 0x8F90, symBinAddr: 0x10001EAC4, symSize: 0x10C }
  - { offset: 0xE4D76, size: 0x8, addend: 0x0, symName: '__ZNSt3__122__compressed_pair_elemIZN21BGMDeviceControlsList18InitDeviceTogglingEvE3$_0Li0ELb0EE5__getB8ne190102Ev', symObjAddr: 0x909C, symBinAddr: 0x10001EBD0, symSize: 0x14 }
  - { offset: 0xE4D9C, size: 0x8, addend: 0x0, symName: '__ZNSt3__18functionIFvvEEC2IZZN21BGMDeviceControlsList23CreateDeviceToggleBlockEvEUb_E3$_4vEET_', symObjAddr: 0x90B0, symBinAddr: 0x10001EBE4, symSize: 0x38 }
  - { offset: 0xE4DE2, size: 0x8, addend: 0x0, symName: '__ZNSt3__110__function12__value_funcIFvvEEC1B8ne190102IZZN21BGMDeviceControlsList23CreateDeviceToggleBlockEvEUb_E3$_4Li0EEEOT_', symObjAddr: 0x90E8, symBinAddr: 0x10001EC1C, symSize: 0x50 }
  - { offset: 0xE4E2D, size: 0x8, addend: 0x0, symName: '__ZNSt3__19allocatorIZZN21BGMDeviceControlsList23CreateDeviceToggleBlockEvEUb_E3$_4EC1B8ne190102Ev', symObjAddr: 0x9138, symBinAddr: 0x10001EC6C, symSize: 0x2C }
  - { offset: 0xE4E57, size: 0x8, addend: 0x0, symName: '__ZNSt3__110__function12__value_funcIFvvEEC1B8ne190102IZZN21BGMDeviceControlsList23CreateDeviceToggleBlockEvEUb_E3$_4NS_9allocatorIS6_EEEEOT_RKT0_', symObjAddr: 0x9164, symBinAddr: 0x10001EC98, symSize: 0x3C }
  - { offset: 0xE4EB5, size: 0x8, addend: 0x0, symName: '__ZNSt3__19allocatorIZZN21BGMDeviceControlsList23CreateDeviceToggleBlockEvEUb_E3$_4EC2B8ne190102Ev', symObjAddr: 0x91A0, symBinAddr: 0x10001ECD4, symSize: 0x2C }
  - { offset: 0xE4EDF, size: 0x8, addend: 0x0, symName: '__ZNSt3__116__non_trivial_ifILb1ENS_9allocatorIZZN21BGMDeviceControlsList23CreateDeviceToggleBlockEvEUb_E3$_4EEEC2B8ne190102Ev', symObjAddr: 0x91CC, symBinAddr: 0x10001ED00, symSize: 0x14 }
  - { offset: 0xE4F09, size: 0x8, addend: 0x0, symName: '__ZNSt3__110__function12__value_funcIFvvEEC2B8ne190102IZZN21BGMDeviceControlsList23CreateDeviceToggleBlockEvEUb_E3$_4NS_9allocatorIS6_EEEEOT_RKT0_', symObjAddr: 0x91E0, symBinAddr: 0x10001ED14, symSize: 0x94 }
  - { offset: 0xE4FB7, size: 0x8, addend: 0x0, symName: '__ZNSt3__19allocatorINS_10__function6__funcIZZN21BGMDeviceControlsList23CreateDeviceToggleBlockEvEUb_E3$_4NS0_IS4_EEFvvEEEEC1B8ne190102IS4_EERKNS0_IT_EE', symObjAddr: 0x928C, symBinAddr: 0x10001EDC0, symSize: 0x34 }
  - { offset: 0xE4FFC, size: 0x8, addend: 0x0, symName: '__ZNSt3__19allocatorIZZN21BGMDeviceControlsList23CreateDeviceToggleBlockEvEUb_E3$_4EC1B8ne190102INS_10__function6__funcIS2_S3_FvvEEEEERKNS0_IT_EE', symObjAddr: 0x92C0, symBinAddr: 0x10001EDF4, symSize: 0x34 }
  - { offset: 0xE503B, size: 0x8, addend: 0x0, symName: '__ZNSt3__110__function6__funcIZZN21BGMDeviceControlsList23CreateDeviceToggleBlockEvEUb_E3$_4NS_9allocatorIS3_EEFvvEEC1B8ne190102EOS3_OS5_', symObjAddr: 0x92F4, symBinAddr: 0x10001EE28, symSize: 0x3C }
  - { offset: 0xE5085, size: 0x8, addend: 0x0, symName: '__ZNSt3__19allocatorINS_10__function6__funcIZZN21BGMDeviceControlsList23CreateDeviceToggleBlockEvEUb_E3$_4NS0_IS4_EEFvvEEEEC2B8ne190102IS4_EERKNS0_IT_EE', symObjAddr: 0x9330, symBinAddr: 0x10001EE64, symSize: 0x30 }
  - { offset: 0xE50C4, size: 0x8, addend: 0x0, symName: '__ZNSt3__116__non_trivial_ifILb1ENS_9allocatorINS_10__function6__funcIZZN21BGMDeviceControlsList23CreateDeviceToggleBlockEvEUb_E3$_4NS1_IS5_EEFvvEEEEEEC2B8ne190102Ev', symObjAddr: 0x9360, symBinAddr: 0x10001EE94, symSize: 0x14 }
  - { offset: 0xE50EE, size: 0x8, addend: 0x0, symName: '__ZNSt3__19allocatorIZZN21BGMDeviceControlsList23CreateDeviceToggleBlockEvEUb_E3$_4EC2B8ne190102INS_10__function6__funcIS2_S3_FvvEEEEERKNS0_IT_EE', symObjAddr: 0x9374, symBinAddr: 0x10001EEA8, symSize: 0x30 }
  - { offset: 0xE512D, size: 0x8, addend: 0x0, symName: '__ZNSt3__110__function6__funcIZZN21BGMDeviceControlsList23CreateDeviceToggleBlockEvEUb_E3$_4NS_9allocatorIS3_EEFvvEEC2B8ne190102EOS3_OS5_', symObjAddr: 0x93A4, symBinAddr: 0x10001EED8, symSize: 0x80 }
  - { offset: 0xE5177, size: 0x8, addend: 0x0, symName: '__ZNSt3__110__function12__alloc_funcIZZN21BGMDeviceControlsList23CreateDeviceToggleBlockEvEUb_E3$_4NS_9allocatorIS3_EEFvvEEC1B8ne190102EOS3_OS5_', symObjAddr: 0x9424, symBinAddr: 0x10001EF58, symSize: 0x3C }
  - { offset: 0xE51BF, size: 0x8, addend: 0x0, symName: '__ZNSt3__110__function6__funcIZZN21BGMDeviceControlsList23CreateDeviceToggleBlockEvEUb_E3$_4NS_9allocatorIS3_EEFvvEED1Ev', symObjAddr: 0x9460, symBinAddr: 0x10001EF94, symSize: 0x2C }
  - { offset: 0xE51EB, size: 0x8, addend: 0x0, symName: '__ZNSt3__110__function6__funcIZZN21BGMDeviceControlsList23CreateDeviceToggleBlockEvEUb_E3$_4NS_9allocatorIS3_EEFvvEED0Ev', symObjAddr: 0x948C, symBinAddr: 0x10001EFC0, symSize: 0x30 }
  - { offset: 0xE5217, size: 0x8, addend: 0x0, symName: '__ZNKSt3__110__function6__funcIZZN21BGMDeviceControlsList23CreateDeviceToggleBlockEvEUb_E3$_4NS_9allocatorIS3_EEFvvEE7__cloneEv', symObjAddr: 0x94BC, symBinAddr: 0x10001EFF0, symSize: 0xFC }
  - { offset: 0xE5269, size: 0x8, addend: 0x0, symName: '__ZNKSt3__110__function6__funcIZZN21BGMDeviceControlsList23CreateDeviceToggleBlockEvEUb_E3$_4NS_9allocatorIS3_EEFvvEE7__cloneEPNS0_6__baseIS6_EE', symObjAddr: 0x95B8, symBinAddr: 0x10001F0EC, symSize: 0x58 }
  - { offset: 0xE529F, size: 0x8, addend: 0x0, symName: '__ZNSt3__110__function6__funcIZZN21BGMDeviceControlsList23CreateDeviceToggleBlockEvEUb_E3$_4NS_9allocatorIS3_EEFvvEE7destroyEv', symObjAddr: 0x9610, symBinAddr: 0x10001F144, symSize: 0x28 }
  - { offset: 0xE52C5, size: 0x8, addend: 0x0, symName: '__ZNSt3__110__function6__funcIZZN21BGMDeviceControlsList23CreateDeviceToggleBlockEvEUb_E3$_4NS_9allocatorIS3_EEFvvEE18destroy_deallocateEv', symObjAddr: 0x9638, symBinAddr: 0x10001F16C, symSize: 0x58 }
  - { offset: 0xE5307, size: 0x8, addend: 0x0, symName: '__ZNSt3__110__function6__funcIZZN21BGMDeviceControlsList23CreateDeviceToggleBlockEvEUb_E3$_4NS_9allocatorIS3_EEFvvEEclEv', symObjAddr: 0x9690, symBinAddr: 0x10001F1C4, symSize: 0x28 }
  - { offset: 0xE532D, size: 0x8, addend: 0x0, symName: '__ZNKSt3__110__function6__funcIZZN21BGMDeviceControlsList23CreateDeviceToggleBlockEvEUb_E3$_4NS_9allocatorIS3_EEFvvEE6targetERKSt9type_info', symObjAddr: 0x96B8, symBinAddr: 0x10001F1EC, symSize: 0x60 }
  - { offset: 0xE5363, size: 0x8, addend: 0x0, symName: '__ZNKSt3__110__function6__funcIZZN21BGMDeviceControlsList23CreateDeviceToggleBlockEvEUb_E3$_4NS_9allocatorIS3_EEFvvEE11target_typeEv', symObjAddr: 0x9718, symBinAddr: 0x10001F24C, symSize: 0x18 }
  - { offset: 0xE5389, size: 0x8, addend: 0x0, symName: '__ZNSt3__110__function12__alloc_funcIZZN21BGMDeviceControlsList23CreateDeviceToggleBlockEvEUb_E3$_4NS_9allocatorIS3_EEFvvEEC2B8ne190102EOS3_OS5_', symObjAddr: 0x9730, symBinAddr: 0x10001F264, symSize: 0x5C }
  - { offset: 0xE53D1, size: 0x8, addend: 0x0, symName: '__ZNSt3__117__compressed_pairIZZN21BGMDeviceControlsList23CreateDeviceToggleBlockEvEUb_E3$_4NS_9allocatorIS2_EEEC1B8ne190102IJOS2_EJOS4_EEENS_21piecewise_construct_tENS_5tupleIJDpT_EEENSA_IJDpT0_EEE', symObjAddr: 0x97E4, symBinAddr: 0x10001F318, symSize: 0x3C }
  - { offset: 0xE5442, size: 0x8, addend: 0x0, symName: '__ZNSt3__15tupleIJOZZN21BGMDeviceControlsList23CreateDeviceToggleBlockEvEUb_E3$_4EEC1B8ne190102IJS2_ELi0EEEDpOT_', symObjAddr: 0x9820, symBinAddr: 0x10001F354, symSize: 0x34 }
  - { offset: 0xE5490, size: 0x8, addend: 0x0, symName: '__ZNSt3__15tupleIJOZZN21BGMDeviceControlsList23CreateDeviceToggleBlockEvEUb_E3$_4EEC2B8ne190102IJS2_ELi0EEEDpOT_', symObjAddr: 0x9854, symBinAddr: 0x10001F388, symSize: 0x34 }
  - { offset: 0xE54DE, size: 0x8, addend: 0x0, symName: '__ZNSt3__112__tuple_implINS_15__tuple_indicesIJLm0EEEEJOZZN21BGMDeviceControlsList23CreateDeviceToggleBlockEvEUb_E3$_4EEC1B8ne190102IJLm0EEJS5_EJEJEJS4_EEENS1_IJXspT_EEEENS_13__tuple_typesIJDpT0_EEENS1_IJXspT1_EEEENS9_IJDpT2_EEEDpOT3_', symObjAddr: 0x9888, symBinAddr: 0x10001F3BC, symSize: 0x34 }
  - { offset: 0xE557C, size: 0x8, addend: 0x0, symName: '__ZNSt3__112__tuple_implINS_15__tuple_indicesIJLm0EEEEJOZZN21BGMDeviceControlsList23CreateDeviceToggleBlockEvEUb_E3$_4EEC2B8ne190102IJLm0EEJS5_EJEJEJS4_EEENS1_IJXspT_EEEENS_13__tuple_typesIJDpT0_EEENS1_IJXspT1_EEEENS9_IJDpT2_EEEDpOT3_', symObjAddr: 0x98BC, symBinAddr: 0x10001F3F0, symSize: 0x34 }
  - { offset: 0xE561A, size: 0x8, addend: 0x0, symName: '__ZNSt3__112__tuple_leafILm0EOZZN21BGMDeviceControlsList23CreateDeviceToggleBlockEvEUb_E3$_4Lb0EEC2B8ne190102IS2_Li0EEEOT_', symObjAddr: 0x98F0, symBinAddr: 0x10001F424, symSize: 0x20 }
  - { offset: 0xE5665, size: 0x8, addend: 0x0, symName: '__ZNSt3__15tupleIJONS_9allocatorIZZN21BGMDeviceControlsList23CreateDeviceToggleBlockEvEUb_E3$_4EEEEC1B8ne190102IJS4_ELi0EEEDpOT_', symObjAddr: 0x9910, symBinAddr: 0x10001F444, symSize: 0x34 }
  - { offset: 0xE56B3, size: 0x8, addend: 0x0, symName: '__ZNSt3__15tupleIJONS_9allocatorIZZN21BGMDeviceControlsList23CreateDeviceToggleBlockEvEUb_E3$_4EEEEC2B8ne190102IJS4_ELi0EEEDpOT_', symObjAddr: 0x9944, symBinAddr: 0x10001F478, symSize: 0x34 }
  - { offset: 0xE5701, size: 0x8, addend: 0x0, symName: '__ZNSt3__112__tuple_implINS_15__tuple_indicesIJLm0EEEEJONS_9allocatorIZZN21BGMDeviceControlsList23CreateDeviceToggleBlockEvEUb_E3$_4EEEEC1B8ne190102IJLm0EEJS7_EJEJEJS6_EEENS1_IJXspT_EEEENS_13__tuple_typesIJDpT0_EEENS1_IJXspT1_EEEENSB_IJDpT2_EEEDpOT3_', symObjAddr: 0x9978, symBinAddr: 0x10001F4AC, symSize: 0x34 }
  - { offset: 0xE579F, size: 0x8, addend: 0x0, symName: '__ZNSt3__112__tuple_implINS_15__tuple_indicesIJLm0EEEEJONS_9allocatorIZZN21BGMDeviceControlsList23CreateDeviceToggleBlockEvEUb_E3$_4EEEEC2B8ne190102IJLm0EEJS7_EJEJEJS6_EEENS1_IJXspT_EEEENS_13__tuple_typesIJDpT0_EEENS1_IJXspT1_EEEENSB_IJDpT2_EEEDpOT3_', symObjAddr: 0x99AC, symBinAddr: 0x10001F4E0, symSize: 0x34 }
  - { offset: 0xE583D, size: 0x8, addend: 0x0, symName: '__ZNSt3__112__tuple_leafILm0EONS_9allocatorIZZN21BGMDeviceControlsList23CreateDeviceToggleBlockEvEUb_E3$_4EELb0EEC2B8ne190102IS4_Li0EEEOT_', symObjAddr: 0x99E0, symBinAddr: 0x10001F514, symSize: 0x20 }
  - { offset: 0xE5888, size: 0x8, addend: 0x0, symName: '__ZNSt3__117__compressed_pairIZZN21BGMDeviceControlsList23CreateDeviceToggleBlockEvEUb_E3$_4NS_9allocatorIS2_EEEC2B8ne190102IJOS2_EJOS4_EEENS_21piecewise_construct_tENS_5tupleIJDpT_EEENSA_IJDpT0_EEE', symObjAddr: 0x9A00, symBinAddr: 0x10001F534, symSize: 0x54 }
  - { offset: 0xE58F9, size: 0x8, addend: 0x0, symName: '__ZNSt3__122__compressed_pair_elemIZZN21BGMDeviceControlsList23CreateDeviceToggleBlockEvEUb_E3$_4Li0ELb0EEC2B8ne190102IJOS2_EJLm0EEEENS_21piecewise_construct_tENS_5tupleIJDpT_EEENS_15__tuple_indicesIJXspT0_EEEE', symObjAddr: 0x9A54, symBinAddr: 0x10001F588, symSize: 0x44 }
  - { offset: 0xE5963, size: 0x8, addend: 0x0, symName: '__ZNSt3__122__compressed_pair_elemINS_9allocatorIZZN21BGMDeviceControlsList23CreateDeviceToggleBlockEvEUb_E3$_4EELi1ELb1EEC2B8ne190102IJOS4_EJLm0EEEENS_21piecewise_construct_tENS_5tupleIJDpT_EEENS_15__tuple_indicesIJXspT0_EEEE', symObjAddr: 0x9A98, symBinAddr: 0x10001F5CC, symSize: 0x38 }
  - { offset: 0xE59CD, size: 0x8, addend: 0x0, symName: '__ZNSt3__112__tuple_leafILm0EOZZN21BGMDeviceControlsList23CreateDeviceToggleBlockEvEUb_E3$_4Lb0EE3getB8ne190102Ev', symObjAddr: 0x9AF4, symBinAddr: 0x10001F628, symSize: 0x18 }
  - { offset: 0xE59F3, size: 0x8, addend: 0x0, symName: '__ZNSt3__112__tuple_leafILm0EONS_9allocatorIZZN21BGMDeviceControlsList23CreateDeviceToggleBlockEvEUb_E3$_4EELb0EE3getB8ne190102Ev', symObjAddr: 0x9B30, symBinAddr: 0x10001F664, symSize: 0x18 }
  - { offset: 0xE5A19, size: 0x8, addend: 0x0, symName: '__ZNSt3__110__function6__funcIZZN21BGMDeviceControlsList23CreateDeviceToggleBlockEvEUb_E3$_4NS_9allocatorIS3_EEFvvEED2Ev', symObjAddr: 0x9B48, symBinAddr: 0x10001F67C, symSize: 0x2C }
  - { offset: 0xE5A45, size: 0x8, addend: 0x0, symName: '__ZNKSt3__110__function12__alloc_funcIZZN21BGMDeviceControlsList23CreateDeviceToggleBlockEvEUb_E3$_4NS_9allocatorIS3_EEFvvEE15__get_allocatorB8ne190102Ev', symObjAddr: 0x9B74, symBinAddr: 0x10001F6A8, symSize: 0x24 }
  - { offset: 0xE5A6B, size: 0x8, addend: 0x0, symName: '__ZNSt3__19allocatorINS_10__function6__funcIZZN21BGMDeviceControlsList23CreateDeviceToggleBlockEvEUb_E3$_4NS0_IS4_EEFvvEEEE8allocateB8ne190102Em', symObjAddr: 0x9B98, symBinAddr: 0x10001F6CC, symSize: 0x54 }
  - { offset: 0xE5AB1, size: 0x8, addend: 0x0, symName: '__ZNSt3__122__allocator_destructorINS_9allocatorINS_10__function6__funcIZZN21BGMDeviceControlsList23CreateDeviceToggleBlockEvEUb_E3$_4NS1_IS5_EEFvvEEEEEEC1B8ne190102ERS9_m', symObjAddr: 0x9BEC, symBinAddr: 0x10001F720, symSize: 0x3C }
  - { offset: 0xE5B8F, size: 0x8, addend: 0x0, symName: '__ZNSt3__110unique_ptrINS_10__function6__funcIZZN21BGMDeviceControlsList23CreateDeviceToggleBlockEvEUb_E3$_4NS_9allocatorIS4_EEFvvEEENS_22__allocator_destructorINS5_IS8_EEEEEC1B8ne190102ILb1EvEEPS8_NS_16__dependent_typeINS_27__unique_ptr_deleter_sfinaeISB_EEXT_EE20__good_rval_ref_typeE', symObjAddr: 0x9C28, symBinAddr: 0x10001F75C, symSize: 0x3C }
  - { offset: 0xE5BE4, size: 0x8, addend: 0x0, symName: '__ZNKSt3__110unique_ptrINS_10__function6__funcIZZN21BGMDeviceControlsList23CreateDeviceToggleBlockEvEUb_E3$_4NS_9allocatorIS4_EEFvvEEENS_22__allocator_destructorINS5_IS8_EEEEE3getB8ne190102Ev', symObjAddr: 0x9C64, symBinAddr: 0x10001F798, symSize: 0x28 }
  - { offset: 0xE5C0A, size: 0x8, addend: 0x0, symName: '__ZNKSt3__110__function12__alloc_funcIZZN21BGMDeviceControlsList23CreateDeviceToggleBlockEvEUb_E3$_4NS_9allocatorIS3_EEFvvEE8__targetB8ne190102Ev', symObjAddr: 0x9C8C, symBinAddr: 0x10001F7C0, symSize: 0x24 }
  - { offset: 0xE5C30, size: 0x8, addend: 0x0, symName: '__ZNSt3__110__function6__funcIZZN21BGMDeviceControlsList23CreateDeviceToggleBlockEvEUb_E3$_4NS_9allocatorIS3_EEFvvEEC1B8ne190102ERKS3_OS5_', symObjAddr: 0x9CB0, symBinAddr: 0x10001F7E4, symSize: 0x3C }
  - { offset: 0xE5C7A, size: 0x8, addend: 0x0, symName: '__ZNSt3__110unique_ptrINS_10__function6__funcIZZN21BGMDeviceControlsList23CreateDeviceToggleBlockEvEUb_E3$_4NS_9allocatorIS4_EEFvvEEENS_22__allocator_destructorINS5_IS8_EEEEE7releaseB8ne190102Ev', symObjAddr: 0x9CEC, symBinAddr: 0x10001F820, symSize: 0x44 }
  - { offset: 0xE5CB0, size: 0x8, addend: 0x0, symName: '__ZNSt3__110unique_ptrINS_10__function6__funcIZZN21BGMDeviceControlsList23CreateDeviceToggleBlockEvEUb_E3$_4NS_9allocatorIS4_EEFvvEEENS_22__allocator_destructorINS5_IS8_EEEEED1B8ne190102Ev', symObjAddr: 0x9D30, symBinAddr: 0x10001F864, symSize: 0x2C }
  - { offset: 0xE5CDA, size: 0x8, addend: 0x0, symName: '__ZNKSt3__117__compressed_pairIZZN21BGMDeviceControlsList23CreateDeviceToggleBlockEvEUb_E3$_4NS_9allocatorIS2_EEE6secondB8ne190102Ev', symObjAddr: 0x9D5C, symBinAddr: 0x10001F890, symSize: 0x24 }
  - { offset: 0xE5D00, size: 0x8, addend: 0x0, symName: '__ZNKSt3__122__compressed_pair_elemINS_9allocatorIZZN21BGMDeviceControlsList23CreateDeviceToggleBlockEvEUb_E3$_4EELi1ELb1EE5__getB8ne190102Ev', symObjAddr: 0x9D80, symBinAddr: 0x10001F8B4, symSize: 0x14 }
  - { offset: 0xE5D31, size: 0x8, addend: 0x0, symName: '__ZNSt3__116allocator_traitsINS_9allocatorINS_10__function6__funcIZZN21BGMDeviceControlsList23CreateDeviceToggleBlockEvEUb_E3$_4NS1_IS5_EEFvvEEEEEE8max_sizeB8ne190102IS9_Li0EEEmRKS9_', symObjAddr: 0x9D94, symBinAddr: 0x10001F8C8, symSize: 0x24 }
  - { offset: 0xE5D67, size: 0x8, addend: 0x0, symName: '__ZNKSt3__19allocatorINS_10__function6__funcIZZN21BGMDeviceControlsList23CreateDeviceToggleBlockEvEUb_E3$_4NS0_IS4_EEFvvEEEE8max_sizeB8ne190102Ev', symObjAddr: 0x9DB8, symBinAddr: 0x10001F8EC, symSize: 0x14 }
  - { offset: 0xE5D8D, size: 0x8, addend: 0x0, symName: '__ZNSt3__122__allocator_destructorINS_9allocatorINS_10__function6__funcIZZN21BGMDeviceControlsList23CreateDeviceToggleBlockEvEUb_E3$_4NS1_IS5_EEFvvEEEEEEC2B8ne190102ERS9_m', symObjAddr: 0x9DCC, symBinAddr: 0x10001F900, symSize: 0x2C }
  - { offset: 0xE5DD5, size: 0x8, addend: 0x0, symName: '__ZNSt3__110unique_ptrINS_10__function6__funcIZZN21BGMDeviceControlsList23CreateDeviceToggleBlockEvEUb_E3$_4NS_9allocatorIS4_EEFvvEEENS_22__allocator_destructorINS5_IS8_EEEEEC2B8ne190102ILb1EvEEPS8_NS_16__dependent_typeINS_27__unique_ptr_deleter_sfinaeISB_EEXT_EE20__good_rval_ref_typeE', symObjAddr: 0x9DF8, symBinAddr: 0x10001F92C, symSize: 0x48 }
  - { offset: 0xE5E2A, size: 0x8, addend: 0x0, symName: '__ZNSt3__117__compressed_pairIPNS_10__function6__funcIZZN21BGMDeviceControlsList23CreateDeviceToggleBlockEvEUb_E3$_4NS_9allocatorIS4_EEFvvEEENS_22__allocator_destructorINS5_IS8_EEEEEC1B8ne190102IRS9_SC_EEOT_OT0_', symObjAddr: 0x9E40, symBinAddr: 0x10001F974, symSize: 0x3C }
  - { offset: 0xE5E86, size: 0x8, addend: 0x0, symName: '__ZNSt3__117__compressed_pairIPNS_10__function6__funcIZZN21BGMDeviceControlsList23CreateDeviceToggleBlockEvEUb_E3$_4NS_9allocatorIS4_EEFvvEEENS_22__allocator_destructorINS5_IS8_EEEEEC2B8ne190102IRS9_SC_EEOT_OT0_', symObjAddr: 0x9E7C, symBinAddr: 0x10001F9B0, symSize: 0x48 }
  - { offset: 0xE5EE2, size: 0x8, addend: 0x0, symName: '__ZNSt3__122__compressed_pair_elemIPNS_10__function6__funcIZZN21BGMDeviceControlsList23CreateDeviceToggleBlockEvEUb_E3$_4NS_9allocatorIS4_EEFvvEEELi0ELb0EEC2B8ne190102IRS9_Li0EEEOT_', symObjAddr: 0x9EC4, symBinAddr: 0x10001F9F8, symSize: 0x24 }
  - { offset: 0xE5F2C, size: 0x8, addend: 0x0, symName: '__ZNSt3__122__compressed_pair_elemINS_22__allocator_destructorINS_9allocatorINS_10__function6__funcIZZN21BGMDeviceControlsList23CreateDeviceToggleBlockEvEUb_E3$_4NS2_IS6_EEFvvEEEEEEELi1ELb0EEC2B8ne190102ISB_Li0EEEOT_', symObjAddr: 0x9EE8, symBinAddr: 0x10001FA1C, symSize: 0x24 }
  - { offset: 0xE5F76, size: 0x8, addend: 0x0, symName: '__ZNKSt3__117__compressed_pairIPNS_10__function6__funcIZZN21BGMDeviceControlsList23CreateDeviceToggleBlockEvEUb_E3$_4NS_9allocatorIS4_EEFvvEEENS_22__allocator_destructorINS5_IS8_EEEEE5firstB8ne190102Ev', symObjAddr: 0x9F0C, symBinAddr: 0x10001FA40, symSize: 0x24 }
  - { offset: 0xE5F9C, size: 0x8, addend: 0x0, symName: '__ZNKSt3__122__compressed_pair_elemIPNS_10__function6__funcIZZN21BGMDeviceControlsList23CreateDeviceToggleBlockEvEUb_E3$_4NS_9allocatorIS4_EEFvvEEELi0ELb0EE5__getB8ne190102Ev', symObjAddr: 0x9F30, symBinAddr: 0x10001FA64, symSize: 0x14 }
  - { offset: 0xE5FC2, size: 0x8, addend: 0x0, symName: '__ZNKSt3__117__compressed_pairIZZN21BGMDeviceControlsList23CreateDeviceToggleBlockEvEUb_E3$_4NS_9allocatorIS2_EEE5firstB8ne190102Ev', symObjAddr: 0x9F44, symBinAddr: 0x10001FA78, symSize: 0x24 }
  - { offset: 0xE5FE8, size: 0x8, addend: 0x0, symName: '__ZNKSt3__122__compressed_pair_elemIZZN21BGMDeviceControlsList23CreateDeviceToggleBlockEvEUb_E3$_4Li0ELb0EE5__getB8ne190102Ev', symObjAddr: 0x9F68, symBinAddr: 0x10001FA9C, symSize: 0x14 }
  - { offset: 0xE600E, size: 0x8, addend: 0x0, symName: '__ZNSt3__110__function6__funcIZZN21BGMDeviceControlsList23CreateDeviceToggleBlockEvEUb_E3$_4NS_9allocatorIS3_EEFvvEEC2B8ne190102ERKS3_OS5_', symObjAddr: 0x9F7C, symBinAddr: 0x10001FAB0, symSize: 0x80 }
  - { offset: 0xE6058, size: 0x8, addend: 0x0, symName: '__ZNSt3__110__function12__alloc_funcIZZN21BGMDeviceControlsList23CreateDeviceToggleBlockEvEUb_E3$_4NS_9allocatorIS3_EEFvvEEC1B8ne190102ERKS3_OS5_', symObjAddr: 0x9FFC, symBinAddr: 0x10001FB30, symSize: 0x3C }
  - { offset: 0xE60A0, size: 0x8, addend: 0x0, symName: '__ZNSt3__110__function12__alloc_funcIZZN21BGMDeviceControlsList23CreateDeviceToggleBlockEvEUb_E3$_4NS_9allocatorIS3_EEFvvEEC2B8ne190102ERKS3_OS5_', symObjAddr: 0xA038, symBinAddr: 0x10001FB6C, symSize: 0x5C }
  - { offset: 0xE60E8, size: 0x8, addend: 0x0, symName: '__ZNSt3__117__compressed_pairIZZN21BGMDeviceControlsList23CreateDeviceToggleBlockEvEUb_E3$_4NS_9allocatorIS2_EEEC1B8ne190102IJRKS2_EJOS4_EEENS_21piecewise_construct_tENS_5tupleIJDpT_EEENSB_IJDpT0_EEE', symObjAddr: 0xA0C0, symBinAddr: 0x10001FBF4, symSize: 0x3C }
  - { offset: 0xE6159, size: 0x8, addend: 0x0, symName: '__ZNSt3__15tupleIJRKZZN21BGMDeviceControlsList23CreateDeviceToggleBlockEvEUb_E3$_4EEC1B8ne190102INS_4_AndELi0EEES4_', symObjAddr: 0xA0FC, symBinAddr: 0x10001FC30, symSize: 0x34 }
  - { offset: 0xE61A4, size: 0x8, addend: 0x0, symName: '__ZNSt3__15tupleIJRKZZN21BGMDeviceControlsList23CreateDeviceToggleBlockEvEUb_E3$_4EEC2B8ne190102INS_4_AndELi0EEES4_', symObjAddr: 0xA130, symBinAddr: 0x10001FC64, symSize: 0x34 }
  - { offset: 0xE61EF, size: 0x8, addend: 0x0, symName: '__ZNSt3__112__tuple_implINS_15__tuple_indicesIJLm0EEEEJRKZZN21BGMDeviceControlsList23CreateDeviceToggleBlockEvEUb_E3$_4EEC1B8ne190102IJLm0EEJS6_EJEJEJS6_EEENS1_IJXspT_EEEENS_13__tuple_typesIJDpT0_EEENS1_IJXspT1_EEEENSA_IJDpT2_EEEDpOT3_', symObjAddr: 0xA164, symBinAddr: 0x10001FC98, symSize: 0x34 }
  - { offset: 0xE628D, size: 0x8, addend: 0x0, symName: '__ZNSt3__112__tuple_implINS_15__tuple_indicesIJLm0EEEEJRKZZN21BGMDeviceControlsList23CreateDeviceToggleBlockEvEUb_E3$_4EEC2B8ne190102IJLm0EEJS6_EJEJEJS6_EEENS1_IJXspT_EEEENS_13__tuple_typesIJDpT0_EEENS1_IJXspT1_EEEENSA_IJDpT2_EEEDpOT3_', symObjAddr: 0xA198, symBinAddr: 0x10001FCCC, symSize: 0x34 }
  - { offset: 0xE632B, size: 0x8, addend: 0x0, symName: '__ZNSt3__112__tuple_leafILm0ERKZZN21BGMDeviceControlsList23CreateDeviceToggleBlockEvEUb_E3$_4Lb0EEC2B8ne190102IS4_Li0EEEOT_', symObjAddr: 0xA1CC, symBinAddr: 0x10001FD00, symSize: 0x20 }
  - { offset: 0xE6376, size: 0x8, addend: 0x0, symName: '__ZNSt3__117__compressed_pairIZZN21BGMDeviceControlsList23CreateDeviceToggleBlockEvEUb_E3$_4NS_9allocatorIS2_EEEC2B8ne190102IJRKS2_EJOS4_EEENS_21piecewise_construct_tENS_5tupleIJDpT_EEENSB_IJDpT0_EEE', symObjAddr: 0xA1EC, symBinAddr: 0x10001FD20, symSize: 0x54 }
  - { offset: 0xE63E7, size: 0x8, addend: 0x0, symName: '__ZNSt3__122__compressed_pair_elemIZZN21BGMDeviceControlsList23CreateDeviceToggleBlockEvEUb_E3$_4Li0ELb0EEC2B8ne190102IJRKS2_EJLm0EEEENS_21piecewise_construct_tENS_5tupleIJDpT_EEENS_15__tuple_indicesIJXspT0_EEEE', symObjAddr: 0xA240, symBinAddr: 0x10001FD74, symSize: 0x44 }
  - { offset: 0xE6451, size: 0x8, addend: 0x0, symName: '__ZNSt3__112__tuple_leafILm0ERKZZN21BGMDeviceControlsList23CreateDeviceToggleBlockEvEUb_E3$_4Lb0EE3getB8ne190102Ev', symObjAddr: 0xA2A8, symBinAddr: 0x10001FDDC, symSize: 0x18 }
  - { offset: 0xE6477, size: 0x8, addend: 0x0, symName: '__ZNSt3__117__compressed_pairIPNS_10__function6__funcIZZN21BGMDeviceControlsList23CreateDeviceToggleBlockEvEUb_E3$_4NS_9allocatorIS4_EEFvvEEENS_22__allocator_destructorINS5_IS8_EEEEE5firstB8ne190102Ev', symObjAddr: 0xA2C0, symBinAddr: 0x10001FDF4, symSize: 0x24 }
  - { offset: 0xE649D, size: 0x8, addend: 0x0, symName: '__ZNSt3__122__compressed_pair_elemIPNS_10__function6__funcIZZN21BGMDeviceControlsList23CreateDeviceToggleBlockEvEUb_E3$_4NS_9allocatorIS4_EEFvvEEELi0ELb0EE5__getB8ne190102Ev', symObjAddr: 0xA2E4, symBinAddr: 0x10001FE18, symSize: 0x14 }
  - { offset: 0xE64C3, size: 0x8, addend: 0x0, symName: '__ZNSt3__110unique_ptrINS_10__function6__funcIZZN21BGMDeviceControlsList23CreateDeviceToggleBlockEvEUb_E3$_4NS_9allocatorIS4_EEFvvEEENS_22__allocator_destructorINS5_IS8_EEEEED2B8ne190102Ev', symObjAddr: 0xA2F8, symBinAddr: 0x10001FE2C, symSize: 0x30 }
  - { offset: 0xE64ED, size: 0x8, addend: 0x0, symName: '__ZNSt3__110unique_ptrINS_10__function6__funcIZZN21BGMDeviceControlsList23CreateDeviceToggleBlockEvEUb_E3$_4NS_9allocatorIS4_EEFvvEEENS_22__allocator_destructorINS5_IS8_EEEEE5resetB8ne190102EPS8_', symObjAddr: 0xA328, symBinAddr: 0x10001FE5C, symSize: 0x70 }
  - { offset: 0xE6533, size: 0x8, addend: 0x0, symName: '__ZNSt3__117__compressed_pairIPNS_10__function6__funcIZZN21BGMDeviceControlsList23CreateDeviceToggleBlockEvEUb_E3$_4NS_9allocatorIS4_EEFvvEEENS_22__allocator_destructorINS5_IS8_EEEEE6secondB8ne190102Ev', symObjAddr: 0xA398, symBinAddr: 0x10001FECC, symSize: 0x28 }
  - { offset: 0xE6559, size: 0x8, addend: 0x0, symName: '__ZNSt3__122__allocator_destructorINS_9allocatorINS_10__function6__funcIZZN21BGMDeviceControlsList23CreateDeviceToggleBlockEvEUb_E3$_4NS1_IS5_EEFvvEEEEEEclB8ne190102EPS8_', symObjAddr: 0xA3C0, symBinAddr: 0x10001FEF4, symSize: 0x34 }
  - { offset: 0xE658E, size: 0x8, addend: 0x0, symName: '__ZNSt3__122__compressed_pair_elemINS_22__allocator_destructorINS_9allocatorINS_10__function6__funcIZZN21BGMDeviceControlsList23CreateDeviceToggleBlockEvEUb_E3$_4NS2_IS6_EEFvvEEEEEEELi1ELb0EE5__getB8ne190102Ev', symObjAddr: 0xA3F4, symBinAddr: 0x10001FF28, symSize: 0x14 }
  - { offset: 0xE65B4, size: 0x8, addend: 0x0, symName: '__ZNSt3__116allocator_traitsINS_9allocatorINS_10__function6__funcIZZN21BGMDeviceControlsList23CreateDeviceToggleBlockEvEUb_E3$_4NS1_IS5_EEFvvEEEEEE10deallocateB8ne190102ERS9_PS8_m', symObjAddr: 0xA408, symBinAddr: 0x10001FF3C, symSize: 0x34 }
  - { offset: 0xE65F9, size: 0x8, addend: 0x0, symName: '__ZNSt3__19allocatorINS_10__function6__funcIZZN21BGMDeviceControlsList23CreateDeviceToggleBlockEvEUb_E3$_4NS0_IS4_EEFvvEEEE10deallocateB8ne190102EPS7_m', symObjAddr: 0xA43C, symBinAddr: 0x10001FF70, symSize: 0x40 }
  - { offset: 0xE663D, size: 0x8, addend: 0x0, symName: '__ZNSt3__110__function6__funcIZZN21BGMDeviceControlsList23CreateDeviceToggleBlockEvEUb_E3$_4NS_9allocatorIS3_EEFvvEEC1B8ne190102ERKS3_RKS5_', symObjAddr: 0xA47C, symBinAddr: 0x10001FFB0, symSize: 0x3C }
  - { offset: 0xE6687, size: 0x8, addend: 0x0, symName: '__ZNSt3__110__function6__funcIZZN21BGMDeviceControlsList23CreateDeviceToggleBlockEvEUb_E3$_4NS_9allocatorIS3_EEFvvEEC2B8ne190102ERKS3_RKS5_', symObjAddr: 0xA4B8, symBinAddr: 0x10001FFEC, symSize: 0x80 }
  - { offset: 0xE66D1, size: 0x8, addend: 0x0, symName: '__ZNSt3__110__function12__alloc_funcIZZN21BGMDeviceControlsList23CreateDeviceToggleBlockEvEUb_E3$_4NS_9allocatorIS3_EEFvvEEC1B8ne190102ERKS3_RKS5_', symObjAddr: 0xA538, symBinAddr: 0x10002006C, symSize: 0x3C }
  - { offset: 0xE6719, size: 0x8, addend: 0x0, symName: '__ZNSt3__110__function12__alloc_funcIZZN21BGMDeviceControlsList23CreateDeviceToggleBlockEvEUb_E3$_4NS_9allocatorIS3_EEFvvEEC2B8ne190102ERKS3_RKS5_', symObjAddr: 0xA574, symBinAddr: 0x1000200A8, symSize: 0x5C }
  - { offset: 0xE6761, size: 0x8, addend: 0x0, symName: '__ZNSt3__117__compressed_pairIZZN21BGMDeviceControlsList23CreateDeviceToggleBlockEvEUb_E3$_4NS_9allocatorIS2_EEEC1B8ne190102IJRKS2_EJRKS4_EEENS_21piecewise_construct_tENS_5tupleIJDpT_EEENSC_IJDpT0_EEE', symObjAddr: 0xA5FC, symBinAddr: 0x100020130, symSize: 0x3C }
  - { offset: 0xE67D2, size: 0x8, addend: 0x0, symName: '__ZNSt3__15tupleIJRKNS_9allocatorIZZN21BGMDeviceControlsList23CreateDeviceToggleBlockEvEUb_E3$_4EEEEC1B8ne190102INS_4_AndELi0EEES6_', symObjAddr: 0xA638, symBinAddr: 0x10002016C, symSize: 0x34 }
  - { offset: 0xE681D, size: 0x8, addend: 0x0, symName: '__ZNSt3__15tupleIJRKNS_9allocatorIZZN21BGMDeviceControlsList23CreateDeviceToggleBlockEvEUb_E3$_4EEEEC2B8ne190102INS_4_AndELi0EEES6_', symObjAddr: 0xA66C, symBinAddr: 0x1000201A0, symSize: 0x34 }
  - { offset: 0xE6868, size: 0x8, addend: 0x0, symName: '__ZNSt3__112__tuple_implINS_15__tuple_indicesIJLm0EEEEJRKNS_9allocatorIZZN21BGMDeviceControlsList23CreateDeviceToggleBlockEvEUb_E3$_4EEEEC1B8ne190102IJLm0EEJS8_EJEJEJS8_EEENS1_IJXspT_EEEENS_13__tuple_typesIJDpT0_EEENS1_IJXspT1_EEEENSC_IJDpT2_EEEDpOT3_', symObjAddr: 0xA6A0, symBinAddr: 0x1000201D4, symSize: 0x34 }
  - { offset: 0xE6906, size: 0x8, addend: 0x0, symName: '__ZNSt3__112__tuple_implINS_15__tuple_indicesIJLm0EEEEJRKNS_9allocatorIZZN21BGMDeviceControlsList23CreateDeviceToggleBlockEvEUb_E3$_4EEEEC2B8ne190102IJLm0EEJS8_EJEJEJS8_EEENS1_IJXspT_EEEENS_13__tuple_typesIJDpT0_EEENS1_IJXspT1_EEEENSC_IJDpT2_EEEDpOT3_', symObjAddr: 0xA6D4, symBinAddr: 0x100020208, symSize: 0x34 }
  - { offset: 0xE69A4, size: 0x8, addend: 0x0, symName: '__ZNSt3__112__tuple_leafILm0ERKNS_9allocatorIZZN21BGMDeviceControlsList23CreateDeviceToggleBlockEvEUb_E3$_4EELb0EEC2B8ne190102IS6_Li0EEEOT_', symObjAddr: 0xA708, symBinAddr: 0x10002023C, symSize: 0x20 }
  - { offset: 0xE69EF, size: 0x8, addend: 0x0, symName: '__ZNSt3__117__compressed_pairIZZN21BGMDeviceControlsList23CreateDeviceToggleBlockEvEUb_E3$_4NS_9allocatorIS2_EEEC2B8ne190102IJRKS2_EJRKS4_EEENS_21piecewise_construct_tENS_5tupleIJDpT_EEENSC_IJDpT0_EEE', symObjAddr: 0xA728, symBinAddr: 0x10002025C, symSize: 0x54 }
  - { offset: 0xE6A60, size: 0x8, addend: 0x0, symName: '__ZNSt3__122__compressed_pair_elemINS_9allocatorIZZN21BGMDeviceControlsList23CreateDeviceToggleBlockEvEUb_E3$_4EELi1ELb1EEC2B8ne190102IJRKS4_EJLm0EEEENS_21piecewise_construct_tENS_5tupleIJDpT_EEENS_15__tuple_indicesIJXspT0_EEEE', symObjAddr: 0xA77C, symBinAddr: 0x1000202B0, symSize: 0x38 }
  - { offset: 0xE6ACA, size: 0x8, addend: 0x0, symName: '__ZNSt3__112__tuple_leafILm0ERKNS_9allocatorIZZN21BGMDeviceControlsList23CreateDeviceToggleBlockEvEUb_E3$_4EELb0EE3getB8ne190102Ev', symObjAddr: 0xA7D8, symBinAddr: 0x10002030C, symSize: 0x18 }
  - { offset: 0xE6AF0, size: 0x8, addend: 0x0, symName: '__ZNSt3__110__function12__alloc_funcIZZN21BGMDeviceControlsList23CreateDeviceToggleBlockEvEUb_E3$_4NS_9allocatorIS3_EEFvvEE7destroyB8ne190102Ev', symObjAddr: 0xA7F0, symBinAddr: 0x100020324, symSize: 0x10 }
  - { offset: 0xE6B16, size: 0x8, addend: 0x0, symName: '__ZNSt3__110__function12__alloc_funcIZZN21BGMDeviceControlsList23CreateDeviceToggleBlockEvEUb_E3$_4NS_9allocatorIS3_EEFvvEEclB8ne190102Ev', symObjAddr: 0xA800, symBinAddr: 0x100020334, symSize: 0x28 }
  - { offset: 0xE6B3C, size: 0x8, addend: 0x0, symName: '__ZNSt3__128__invoke_void_return_wrapperIvLb1EE6__callB8ne190102IJRZZN21BGMDeviceControlsList23CreateDeviceToggleBlockEvEUb_E3$_4EEEvDpOT_', symObjAddr: 0xA828, symBinAddr: 0x10002035C, symSize: 0x24 }
  - { offset: 0xE6B6D, size: 0x8, addend: 0x0, symName: '__ZNSt3__117__compressed_pairIZZN21BGMDeviceControlsList23CreateDeviceToggleBlockEvEUb_E3$_4NS_9allocatorIS2_EEE5firstB8ne190102Ev', symObjAddr: 0xA84C, symBinAddr: 0x100020380, symSize: 0x24 }
  - { offset: 0xE6B98, size: 0x8, addend: 0x0, symName: '__ZZZN21BGMDeviceControlsList23CreateDeviceToggleBlockEvEUb_ENK3$_4clEv', symObjAddr: 0xA894, symBinAddr: 0x1000203C8, symSize: 0x28 }
  - { offset: 0xE6BBE, size: 0x8, addend: 0x0, symName: '__ZNSt3__122__compressed_pair_elemIZZN21BGMDeviceControlsList23CreateDeviceToggleBlockEvEUb_E3$_4Li0ELb0EE5__getB8ne190102Ev', symObjAddr: 0xA8BC, symBinAddr: 0x1000203F0, symSize: 0x14 }
  - { offset: 0xE6BE4, size: 0x8, addend: 0x0, symName: '__ZNSt3__18functionIFvvEEC2IZZN21BGMDeviceControlsList27CreateDeviceToggleBackBlockEvEUb0_E3$_5vEET_', symObjAddr: 0xA8D0, symBinAddr: 0x100020404, symSize: 0x38 }
  - { offset: 0xE6C2A, size: 0x8, addend: 0x0, symName: '__ZNSt3__110__function12__value_funcIFvvEEC1B8ne190102IZZN21BGMDeviceControlsList27CreateDeviceToggleBackBlockEvEUb0_E3$_5Li0EEEOT_', symObjAddr: 0xA908, symBinAddr: 0x10002043C, symSize: 0x50 }
  - { offset: 0xE6C75, size: 0x8, addend: 0x0, symName: '__ZNSt3__19allocatorIZZN21BGMDeviceControlsList27CreateDeviceToggleBackBlockEvEUb0_E3$_5EC1B8ne190102Ev', symObjAddr: 0xA958, symBinAddr: 0x10002048C, symSize: 0x2C }
  - { offset: 0xE6C9F, size: 0x8, addend: 0x0, symName: '__ZNSt3__110__function12__value_funcIFvvEEC1B8ne190102IZZN21BGMDeviceControlsList27CreateDeviceToggleBackBlockEvEUb0_E3$_5NS_9allocatorIS6_EEEEOT_RKT0_', symObjAddr: 0xA984, symBinAddr: 0x1000204B8, symSize: 0x3C }
  - { offset: 0xE6CFD, size: 0x8, addend: 0x0, symName: '__ZNSt3__19allocatorIZZN21BGMDeviceControlsList27CreateDeviceToggleBackBlockEvEUb0_E3$_5EC2B8ne190102Ev', symObjAddr: 0xA9C0, symBinAddr: 0x1000204F4, symSize: 0x2C }
  - { offset: 0xE6D27, size: 0x8, addend: 0x0, symName: '__ZNSt3__116__non_trivial_ifILb1ENS_9allocatorIZZN21BGMDeviceControlsList27CreateDeviceToggleBackBlockEvEUb0_E3$_5EEEC2B8ne190102Ev', symObjAddr: 0xA9EC, symBinAddr: 0x100020520, symSize: 0x14 }
  - { offset: 0xE6D51, size: 0x8, addend: 0x0, symName: '__ZNSt3__110__function12__value_funcIFvvEEC2B8ne190102IZZN21BGMDeviceControlsList27CreateDeviceToggleBackBlockEvEUb0_E3$_5NS_9allocatorIS6_EEEEOT_RKT0_', symObjAddr: 0xAA00, symBinAddr: 0x100020534, symSize: 0x94 }
  - { offset: 0xE6DFF, size: 0x8, addend: 0x0, symName: '__ZNSt3__19allocatorINS_10__function6__funcIZZN21BGMDeviceControlsList27CreateDeviceToggleBackBlockEvEUb0_E3$_5NS0_IS4_EEFvvEEEEC1B8ne190102IS4_EERKNS0_IT_EE', symObjAddr: 0xAAAC, symBinAddr: 0x1000205E0, symSize: 0x34 }
  - { offset: 0xE6E44, size: 0x8, addend: 0x0, symName: '__ZNSt3__19allocatorIZZN21BGMDeviceControlsList27CreateDeviceToggleBackBlockEvEUb0_E3$_5EC1B8ne190102INS_10__function6__funcIS2_S3_FvvEEEEERKNS0_IT_EE', symObjAddr: 0xAAE0, symBinAddr: 0x100020614, symSize: 0x34 }
  - { offset: 0xE6E83, size: 0x8, addend: 0x0, symName: '__ZNSt3__110__function6__funcIZZN21BGMDeviceControlsList27CreateDeviceToggleBackBlockEvEUb0_E3$_5NS_9allocatorIS3_EEFvvEEC1B8ne190102EOS3_OS5_', symObjAddr: 0xAB14, symBinAddr: 0x100020648, symSize: 0x3C }
  - { offset: 0xE6ECD, size: 0x8, addend: 0x0, symName: '__ZNSt3__19allocatorINS_10__function6__funcIZZN21BGMDeviceControlsList27CreateDeviceToggleBackBlockEvEUb0_E3$_5NS0_IS4_EEFvvEEEEC2B8ne190102IS4_EERKNS0_IT_EE', symObjAddr: 0xAB50, symBinAddr: 0x100020684, symSize: 0x30 }
  - { offset: 0xE6F0C, size: 0x8, addend: 0x0, symName: '__ZNSt3__116__non_trivial_ifILb1ENS_9allocatorINS_10__function6__funcIZZN21BGMDeviceControlsList27CreateDeviceToggleBackBlockEvEUb0_E3$_5NS1_IS5_EEFvvEEEEEEC2B8ne190102Ev', symObjAddr: 0xAB80, symBinAddr: 0x1000206B4, symSize: 0x14 }
  - { offset: 0xE6F36, size: 0x8, addend: 0x0, symName: '__ZNSt3__19allocatorIZZN21BGMDeviceControlsList27CreateDeviceToggleBackBlockEvEUb0_E3$_5EC2B8ne190102INS_10__function6__funcIS2_S3_FvvEEEEERKNS0_IT_EE', symObjAddr: 0xAB94, symBinAddr: 0x1000206C8, symSize: 0x30 }
  - { offset: 0xE6F75, size: 0x8, addend: 0x0, symName: '__ZNSt3__110__function6__funcIZZN21BGMDeviceControlsList27CreateDeviceToggleBackBlockEvEUb0_E3$_5NS_9allocatorIS3_EEFvvEEC2B8ne190102EOS3_OS5_', symObjAddr: 0xABC4, symBinAddr: 0x1000206F8, symSize: 0x80 }
  - { offset: 0xE6FBF, size: 0x8, addend: 0x0, symName: '__ZNSt3__110__function12__alloc_funcIZZN21BGMDeviceControlsList27CreateDeviceToggleBackBlockEvEUb0_E3$_5NS_9allocatorIS3_EEFvvEEC1B8ne190102EOS3_OS5_', symObjAddr: 0xAC44, symBinAddr: 0x100020778, symSize: 0x3C }
  - { offset: 0xE7007, size: 0x8, addend: 0x0, symName: '__ZNSt3__110__function6__funcIZZN21BGMDeviceControlsList27CreateDeviceToggleBackBlockEvEUb0_E3$_5NS_9allocatorIS3_EEFvvEED1Ev', symObjAddr: 0xAC80, symBinAddr: 0x1000207B4, symSize: 0x2C }
  - { offset: 0xE7033, size: 0x8, addend: 0x0, symName: '__ZNSt3__110__function6__funcIZZN21BGMDeviceControlsList27CreateDeviceToggleBackBlockEvEUb0_E3$_5NS_9allocatorIS3_EEFvvEED0Ev', symObjAddr: 0xACAC, symBinAddr: 0x1000207E0, symSize: 0x30 }
  - { offset: 0xE705F, size: 0x8, addend: 0x0, symName: '__ZNKSt3__110__function6__funcIZZN21BGMDeviceControlsList27CreateDeviceToggleBackBlockEvEUb0_E3$_5NS_9allocatorIS3_EEFvvEE7__cloneEv', symObjAddr: 0xACDC, symBinAddr: 0x100020810, symSize: 0xFC }
  - { offset: 0xE70B1, size: 0x8, addend: 0x0, symName: '__ZNKSt3__110__function6__funcIZZN21BGMDeviceControlsList27CreateDeviceToggleBackBlockEvEUb0_E3$_5NS_9allocatorIS3_EEFvvEE7__cloneEPNS0_6__baseIS6_EE', symObjAddr: 0xADD8, symBinAddr: 0x10002090C, symSize: 0x58 }
  - { offset: 0xE70E7, size: 0x8, addend: 0x0, symName: '__ZNSt3__110__function6__funcIZZN21BGMDeviceControlsList27CreateDeviceToggleBackBlockEvEUb0_E3$_5NS_9allocatorIS3_EEFvvEE7destroyEv', symObjAddr: 0xAE30, symBinAddr: 0x100020964, symSize: 0x28 }
  - { offset: 0xE710D, size: 0x8, addend: 0x0, symName: '__ZNSt3__110__function6__funcIZZN21BGMDeviceControlsList27CreateDeviceToggleBackBlockEvEUb0_E3$_5NS_9allocatorIS3_EEFvvEE18destroy_deallocateEv', symObjAddr: 0xAE58, symBinAddr: 0x10002098C, symSize: 0x58 }
  - { offset: 0xE714F, size: 0x8, addend: 0x0, symName: '__ZNSt3__110__function6__funcIZZN21BGMDeviceControlsList27CreateDeviceToggleBackBlockEvEUb0_E3$_5NS_9allocatorIS3_EEFvvEEclEv', symObjAddr: 0xAEB0, symBinAddr: 0x1000209E4, symSize: 0x28 }
  - { offset: 0xE7175, size: 0x8, addend: 0x0, symName: '__ZNKSt3__110__function6__funcIZZN21BGMDeviceControlsList27CreateDeviceToggleBackBlockEvEUb0_E3$_5NS_9allocatorIS3_EEFvvEE6targetERKSt9type_info', symObjAddr: 0xAED8, symBinAddr: 0x100020A0C, symSize: 0x60 }
  - { offset: 0xE71AB, size: 0x8, addend: 0x0, symName: '__ZNKSt3__110__function6__funcIZZN21BGMDeviceControlsList27CreateDeviceToggleBackBlockEvEUb0_E3$_5NS_9allocatorIS3_EEFvvEE11target_typeEv', symObjAddr: 0xAF38, symBinAddr: 0x100020A6C, symSize: 0x18 }
  - { offset: 0xE71D1, size: 0x8, addend: 0x0, symName: '__ZNSt3__110__function12__alloc_funcIZZN21BGMDeviceControlsList27CreateDeviceToggleBackBlockEvEUb0_E3$_5NS_9allocatorIS3_EEFvvEEC2B8ne190102EOS3_OS5_', symObjAddr: 0xAF50, symBinAddr: 0x100020A84, symSize: 0x5C }
  - { offset: 0xE7219, size: 0x8, addend: 0x0, symName: '__ZNSt3__117__compressed_pairIZZN21BGMDeviceControlsList27CreateDeviceToggleBackBlockEvEUb0_E3$_5NS_9allocatorIS2_EEEC1B8ne190102IJOS2_EJOS4_EEENS_21piecewise_construct_tENS_5tupleIJDpT_EEENSA_IJDpT0_EEE', symObjAddr: 0xB004, symBinAddr: 0x100020B38, symSize: 0x3C }
  - { offset: 0xE728A, size: 0x8, addend: 0x0, symName: '__ZNSt3__15tupleIJOZZN21BGMDeviceControlsList27CreateDeviceToggleBackBlockEvEUb0_E3$_5EEC1B8ne190102IJS2_ELi0EEEDpOT_', symObjAddr: 0xB040, symBinAddr: 0x100020B74, symSize: 0x34 }
  - { offset: 0xE72D8, size: 0x8, addend: 0x0, symName: '__ZNSt3__15tupleIJOZZN21BGMDeviceControlsList27CreateDeviceToggleBackBlockEvEUb0_E3$_5EEC2B8ne190102IJS2_ELi0EEEDpOT_', symObjAddr: 0xB074, symBinAddr: 0x100020BA8, symSize: 0x34 }
  - { offset: 0xE7326, size: 0x8, addend: 0x0, symName: '__ZNSt3__112__tuple_implINS_15__tuple_indicesIJLm0EEEEJOZZN21BGMDeviceControlsList27CreateDeviceToggleBackBlockEvEUb0_E3$_5EEC1B8ne190102IJLm0EEJS5_EJEJEJS4_EEENS1_IJXspT_EEEENS_13__tuple_typesIJDpT0_EEENS1_IJXspT1_EEEENS9_IJDpT2_EEEDpOT3_', symObjAddr: 0xB0A8, symBinAddr: 0x100020BDC, symSize: 0x34 }
  - { offset: 0xE73C4, size: 0x8, addend: 0x0, symName: '__ZNSt3__112__tuple_implINS_15__tuple_indicesIJLm0EEEEJOZZN21BGMDeviceControlsList27CreateDeviceToggleBackBlockEvEUb0_E3$_5EEC2B8ne190102IJLm0EEJS5_EJEJEJS4_EEENS1_IJXspT_EEEENS_13__tuple_typesIJDpT0_EEENS1_IJXspT1_EEEENS9_IJDpT2_EEEDpOT3_', symObjAddr: 0xB0DC, symBinAddr: 0x100020C10, symSize: 0x34 }
  - { offset: 0xE7462, size: 0x8, addend: 0x0, symName: '__ZNSt3__112__tuple_leafILm0EOZZN21BGMDeviceControlsList27CreateDeviceToggleBackBlockEvEUb0_E3$_5Lb0EEC2B8ne190102IS2_Li0EEEOT_', symObjAddr: 0xB110, symBinAddr: 0x100020C44, symSize: 0x20 }
  - { offset: 0xE74AD, size: 0x8, addend: 0x0, symName: '__ZNSt3__15tupleIJONS_9allocatorIZZN21BGMDeviceControlsList27CreateDeviceToggleBackBlockEvEUb0_E3$_5EEEEC1B8ne190102IJS4_ELi0EEEDpOT_', symObjAddr: 0xB130, symBinAddr: 0x100020C64, symSize: 0x34 }
  - { offset: 0xE74FB, size: 0x8, addend: 0x0, symName: '__ZNSt3__15tupleIJONS_9allocatorIZZN21BGMDeviceControlsList27CreateDeviceToggleBackBlockEvEUb0_E3$_5EEEEC2B8ne190102IJS4_ELi0EEEDpOT_', symObjAddr: 0xB164, symBinAddr: 0x100020C98, symSize: 0x34 }
  - { offset: 0xE7549, size: 0x8, addend: 0x0, symName: '__ZNSt3__112__tuple_implINS_15__tuple_indicesIJLm0EEEEJONS_9allocatorIZZN21BGMDeviceControlsList27CreateDeviceToggleBackBlockEvEUb0_E3$_5EEEEC1B8ne190102IJLm0EEJS7_EJEJEJS6_EEENS1_IJXspT_EEEENS_13__tuple_typesIJDpT0_EEENS1_IJXspT1_EEEENSB_IJDpT2_EEEDpOT3_', symObjAddr: 0xB198, symBinAddr: 0x100020CCC, symSize: 0x34 }
  - { offset: 0xE75E7, size: 0x8, addend: 0x0, symName: '__ZNSt3__112__tuple_implINS_15__tuple_indicesIJLm0EEEEJONS_9allocatorIZZN21BGMDeviceControlsList27CreateDeviceToggleBackBlockEvEUb0_E3$_5EEEEC2B8ne190102IJLm0EEJS7_EJEJEJS6_EEENS1_IJXspT_EEEENS_13__tuple_typesIJDpT0_EEENS1_IJXspT1_EEEENSB_IJDpT2_EEEDpOT3_', symObjAddr: 0xB1CC, symBinAddr: 0x100020D00, symSize: 0x34 }
  - { offset: 0xE7685, size: 0x8, addend: 0x0, symName: '__ZNSt3__112__tuple_leafILm0EONS_9allocatorIZZN21BGMDeviceControlsList27CreateDeviceToggleBackBlockEvEUb0_E3$_5EELb0EEC2B8ne190102IS4_Li0EEEOT_', symObjAddr: 0xB200, symBinAddr: 0x100020D34, symSize: 0x20 }
  - { offset: 0xE76D0, size: 0x8, addend: 0x0, symName: '__ZNSt3__117__compressed_pairIZZN21BGMDeviceControlsList27CreateDeviceToggleBackBlockEvEUb0_E3$_5NS_9allocatorIS2_EEEC2B8ne190102IJOS2_EJOS4_EEENS_21piecewise_construct_tENS_5tupleIJDpT_EEENSA_IJDpT0_EEE', symObjAddr: 0xB220, symBinAddr: 0x100020D54, symSize: 0x54 }
  - { offset: 0xE7741, size: 0x8, addend: 0x0, symName: '__ZNSt3__122__compressed_pair_elemIZZN21BGMDeviceControlsList27CreateDeviceToggleBackBlockEvEUb0_E3$_5Li0ELb0EEC2B8ne190102IJOS2_EJLm0EEEENS_21piecewise_construct_tENS_5tupleIJDpT_EEENS_15__tuple_indicesIJXspT0_EEEE', symObjAddr: 0xB274, symBinAddr: 0x100020DA8, symSize: 0x44 }
  - { offset: 0xE77AB, size: 0x8, addend: 0x0, symName: '__ZNSt3__122__compressed_pair_elemINS_9allocatorIZZN21BGMDeviceControlsList27CreateDeviceToggleBackBlockEvEUb0_E3$_5EELi1ELb1EEC2B8ne190102IJOS4_EJLm0EEEENS_21piecewise_construct_tENS_5tupleIJDpT_EEENS_15__tuple_indicesIJXspT0_EEEE', symObjAddr: 0xB2B8, symBinAddr: 0x100020DEC, symSize: 0x38 }
  - { offset: 0xE7815, size: 0x8, addend: 0x0, symName: '__ZNSt3__112__tuple_leafILm0EOZZN21BGMDeviceControlsList27CreateDeviceToggleBackBlockEvEUb0_E3$_5Lb0EE3getB8ne190102Ev', symObjAddr: 0xB314, symBinAddr: 0x100020E48, symSize: 0x18 }
  - { offset: 0xE783B, size: 0x8, addend: 0x0, symName: '__ZNSt3__112__tuple_leafILm0EONS_9allocatorIZZN21BGMDeviceControlsList27CreateDeviceToggleBackBlockEvEUb0_E3$_5EELb0EE3getB8ne190102Ev', symObjAddr: 0xB350, symBinAddr: 0x100020E84, symSize: 0x18 }
  - { offset: 0xE7861, size: 0x8, addend: 0x0, symName: '__ZNSt3__110__function6__funcIZZN21BGMDeviceControlsList27CreateDeviceToggleBackBlockEvEUb0_E3$_5NS_9allocatorIS3_EEFvvEED2Ev', symObjAddr: 0xB368, symBinAddr: 0x100020E9C, symSize: 0x2C }
  - { offset: 0xE788D, size: 0x8, addend: 0x0, symName: '__ZNKSt3__110__function12__alloc_funcIZZN21BGMDeviceControlsList27CreateDeviceToggleBackBlockEvEUb0_E3$_5NS_9allocatorIS3_EEFvvEE15__get_allocatorB8ne190102Ev', symObjAddr: 0xB394, symBinAddr: 0x100020EC8, symSize: 0x24 }
  - { offset: 0xE78B3, size: 0x8, addend: 0x0, symName: '__ZNSt3__19allocatorINS_10__function6__funcIZZN21BGMDeviceControlsList27CreateDeviceToggleBackBlockEvEUb0_E3$_5NS0_IS4_EEFvvEEEE8allocateB8ne190102Em', symObjAddr: 0xB3B8, symBinAddr: 0x100020EEC, symSize: 0x54 }
  - { offset: 0xE78F9, size: 0x8, addend: 0x0, symName: '__ZNSt3__122__allocator_destructorINS_9allocatorINS_10__function6__funcIZZN21BGMDeviceControlsList27CreateDeviceToggleBackBlockEvEUb0_E3$_5NS1_IS5_EEFvvEEEEEEC1B8ne190102ERS9_m', symObjAddr: 0xB40C, symBinAddr: 0x100020F40, symSize: 0x3C }
  - { offset: 0xE79D7, size: 0x8, addend: 0x0, symName: '__ZNSt3__110unique_ptrINS_10__function6__funcIZZN21BGMDeviceControlsList27CreateDeviceToggleBackBlockEvEUb0_E3$_5NS_9allocatorIS4_EEFvvEEENS_22__allocator_destructorINS5_IS8_EEEEEC1B8ne190102ILb1EvEEPS8_NS_16__dependent_typeINS_27__unique_ptr_deleter_sfinaeISB_EEXT_EE20__good_rval_ref_typeE', symObjAddr: 0xB448, symBinAddr: 0x100020F7C, symSize: 0x3C }
  - { offset: 0xE7A2C, size: 0x8, addend: 0x0, symName: '__ZNKSt3__110unique_ptrINS_10__function6__funcIZZN21BGMDeviceControlsList27CreateDeviceToggleBackBlockEvEUb0_E3$_5NS_9allocatorIS4_EEFvvEEENS_22__allocator_destructorINS5_IS8_EEEEE3getB8ne190102Ev', symObjAddr: 0xB484, symBinAddr: 0x100020FB8, symSize: 0x28 }
  - { offset: 0xE7A52, size: 0x8, addend: 0x0, symName: '__ZNKSt3__110__function12__alloc_funcIZZN21BGMDeviceControlsList27CreateDeviceToggleBackBlockEvEUb0_E3$_5NS_9allocatorIS3_EEFvvEE8__targetB8ne190102Ev', symObjAddr: 0xB4AC, symBinAddr: 0x100020FE0, symSize: 0x24 }
  - { offset: 0xE7A78, size: 0x8, addend: 0x0, symName: '__ZNSt3__110__function6__funcIZZN21BGMDeviceControlsList27CreateDeviceToggleBackBlockEvEUb0_E3$_5NS_9allocatorIS3_EEFvvEEC1B8ne190102ERKS3_OS5_', symObjAddr: 0xB4D0, symBinAddr: 0x100021004, symSize: 0x3C }
  - { offset: 0xE7AC2, size: 0x8, addend: 0x0, symName: '__ZNSt3__110unique_ptrINS_10__function6__funcIZZN21BGMDeviceControlsList27CreateDeviceToggleBackBlockEvEUb0_E3$_5NS_9allocatorIS4_EEFvvEEENS_22__allocator_destructorINS5_IS8_EEEEE7releaseB8ne190102Ev', symObjAddr: 0xB50C, symBinAddr: 0x100021040, symSize: 0x44 }
  - { offset: 0xE7AF8, size: 0x8, addend: 0x0, symName: '__ZNSt3__110unique_ptrINS_10__function6__funcIZZN21BGMDeviceControlsList27CreateDeviceToggleBackBlockEvEUb0_E3$_5NS_9allocatorIS4_EEFvvEEENS_22__allocator_destructorINS5_IS8_EEEEED1B8ne190102Ev', symObjAddr: 0xB550, symBinAddr: 0x100021084, symSize: 0x2C }
  - { offset: 0xE7B22, size: 0x8, addend: 0x0, symName: '__ZNKSt3__117__compressed_pairIZZN21BGMDeviceControlsList27CreateDeviceToggleBackBlockEvEUb0_E3$_5NS_9allocatorIS2_EEE6secondB8ne190102Ev', symObjAddr: 0xB57C, symBinAddr: 0x1000210B0, symSize: 0x24 }
  - { offset: 0xE7B48, size: 0x8, addend: 0x0, symName: '__ZNKSt3__122__compressed_pair_elemINS_9allocatorIZZN21BGMDeviceControlsList27CreateDeviceToggleBackBlockEvEUb0_E3$_5EELi1ELb1EE5__getB8ne190102Ev', symObjAddr: 0xB5A0, symBinAddr: 0x1000210D4, symSize: 0x14 }
  - { offset: 0xE7B79, size: 0x8, addend: 0x0, symName: '__ZNSt3__116allocator_traitsINS_9allocatorINS_10__function6__funcIZZN21BGMDeviceControlsList27CreateDeviceToggleBackBlockEvEUb0_E3$_5NS1_IS5_EEFvvEEEEEE8max_sizeB8ne190102IS9_Li0EEEmRKS9_', symObjAddr: 0xB5B4, symBinAddr: 0x1000210E8, symSize: 0x24 }
  - { offset: 0xE7BAF, size: 0x8, addend: 0x0, symName: '__ZNKSt3__19allocatorINS_10__function6__funcIZZN21BGMDeviceControlsList27CreateDeviceToggleBackBlockEvEUb0_E3$_5NS0_IS4_EEFvvEEEE8max_sizeB8ne190102Ev', symObjAddr: 0xB5D8, symBinAddr: 0x10002110C, symSize: 0x14 }
  - { offset: 0xE7BD5, size: 0x8, addend: 0x0, symName: '__ZNSt3__122__allocator_destructorINS_9allocatorINS_10__function6__funcIZZN21BGMDeviceControlsList27CreateDeviceToggleBackBlockEvEUb0_E3$_5NS1_IS5_EEFvvEEEEEEC2B8ne190102ERS9_m', symObjAddr: 0xB5EC, symBinAddr: 0x100021120, symSize: 0x2C }
  - { offset: 0xE7C1D, size: 0x8, addend: 0x0, symName: '__ZNSt3__110unique_ptrINS_10__function6__funcIZZN21BGMDeviceControlsList27CreateDeviceToggleBackBlockEvEUb0_E3$_5NS_9allocatorIS4_EEFvvEEENS_22__allocator_destructorINS5_IS8_EEEEEC2B8ne190102ILb1EvEEPS8_NS_16__dependent_typeINS_27__unique_ptr_deleter_sfinaeISB_EEXT_EE20__good_rval_ref_typeE', symObjAddr: 0xB618, symBinAddr: 0x10002114C, symSize: 0x48 }
  - { offset: 0xE7C72, size: 0x8, addend: 0x0, symName: '__ZNSt3__117__compressed_pairIPNS_10__function6__funcIZZN21BGMDeviceControlsList27CreateDeviceToggleBackBlockEvEUb0_E3$_5NS_9allocatorIS4_EEFvvEEENS_22__allocator_destructorINS5_IS8_EEEEEC1B8ne190102IRS9_SC_EEOT_OT0_', symObjAddr: 0xB660, symBinAddr: 0x100021194, symSize: 0x3C }
  - { offset: 0xE7CCE, size: 0x8, addend: 0x0, symName: '__ZNSt3__117__compressed_pairIPNS_10__function6__funcIZZN21BGMDeviceControlsList27CreateDeviceToggleBackBlockEvEUb0_E3$_5NS_9allocatorIS4_EEFvvEEENS_22__allocator_destructorINS5_IS8_EEEEEC2B8ne190102IRS9_SC_EEOT_OT0_', symObjAddr: 0xB69C, symBinAddr: 0x1000211D0, symSize: 0x48 }
  - { offset: 0xE7D2A, size: 0x8, addend: 0x0, symName: '__ZNSt3__122__compressed_pair_elemIPNS_10__function6__funcIZZN21BGMDeviceControlsList27CreateDeviceToggleBackBlockEvEUb0_E3$_5NS_9allocatorIS4_EEFvvEEELi0ELb0EEC2B8ne190102IRS9_Li0EEEOT_', symObjAddr: 0xB6E4, symBinAddr: 0x100021218, symSize: 0x24 }
  - { offset: 0xE7D74, size: 0x8, addend: 0x0, symName: '__ZNSt3__122__compressed_pair_elemINS_22__allocator_destructorINS_9allocatorINS_10__function6__funcIZZN21BGMDeviceControlsList27CreateDeviceToggleBackBlockEvEUb0_E3$_5NS2_IS6_EEFvvEEEEEEELi1ELb0EEC2B8ne190102ISB_Li0EEEOT_', symObjAddr: 0xB708, symBinAddr: 0x10002123C, symSize: 0x24 }
  - { offset: 0xE7DBE, size: 0x8, addend: 0x0, symName: '__ZNKSt3__117__compressed_pairIPNS_10__function6__funcIZZN21BGMDeviceControlsList27CreateDeviceToggleBackBlockEvEUb0_E3$_5NS_9allocatorIS4_EEFvvEEENS_22__allocator_destructorINS5_IS8_EEEEE5firstB8ne190102Ev', symObjAddr: 0xB72C, symBinAddr: 0x100021260, symSize: 0x24 }
  - { offset: 0xE7DE4, size: 0x8, addend: 0x0, symName: '__ZNKSt3__122__compressed_pair_elemIPNS_10__function6__funcIZZN21BGMDeviceControlsList27CreateDeviceToggleBackBlockEvEUb0_E3$_5NS_9allocatorIS4_EEFvvEEELi0ELb0EE5__getB8ne190102Ev', symObjAddr: 0xB750, symBinAddr: 0x100021284, symSize: 0x14 }
  - { offset: 0xE7E0A, size: 0x8, addend: 0x0, symName: '__ZNKSt3__117__compressed_pairIZZN21BGMDeviceControlsList27CreateDeviceToggleBackBlockEvEUb0_E3$_5NS_9allocatorIS2_EEE5firstB8ne190102Ev', symObjAddr: 0xB764, symBinAddr: 0x100021298, symSize: 0x24 }
  - { offset: 0xE7E30, size: 0x8, addend: 0x0, symName: '__ZNKSt3__122__compressed_pair_elemIZZN21BGMDeviceControlsList27CreateDeviceToggleBackBlockEvEUb0_E3$_5Li0ELb0EE5__getB8ne190102Ev', symObjAddr: 0xB788, symBinAddr: 0x1000212BC, symSize: 0x14 }
  - { offset: 0xE7E56, size: 0x8, addend: 0x0, symName: '__ZNSt3__110__function6__funcIZZN21BGMDeviceControlsList27CreateDeviceToggleBackBlockEvEUb0_E3$_5NS_9allocatorIS3_EEFvvEEC2B8ne190102ERKS3_OS5_', symObjAddr: 0xB79C, symBinAddr: 0x1000212D0, symSize: 0x80 }
  - { offset: 0xE7EA0, size: 0x8, addend: 0x0, symName: '__ZNSt3__110__function12__alloc_funcIZZN21BGMDeviceControlsList27CreateDeviceToggleBackBlockEvEUb0_E3$_5NS_9allocatorIS3_EEFvvEEC1B8ne190102ERKS3_OS5_', symObjAddr: 0xB81C, symBinAddr: 0x100021350, symSize: 0x3C }
  - { offset: 0xE7EE8, size: 0x8, addend: 0x0, symName: '__ZNSt3__110__function12__alloc_funcIZZN21BGMDeviceControlsList27CreateDeviceToggleBackBlockEvEUb0_E3$_5NS_9allocatorIS3_EEFvvEEC2B8ne190102ERKS3_OS5_', symObjAddr: 0xB858, symBinAddr: 0x10002138C, symSize: 0x5C }
  - { offset: 0xE7F30, size: 0x8, addend: 0x0, symName: '__ZNSt3__117__compressed_pairIZZN21BGMDeviceControlsList27CreateDeviceToggleBackBlockEvEUb0_E3$_5NS_9allocatorIS2_EEEC1B8ne190102IJRKS2_EJOS4_EEENS_21piecewise_construct_tENS_5tupleIJDpT_EEENSB_IJDpT0_EEE', symObjAddr: 0xB8E0, symBinAddr: 0x100021414, symSize: 0x3C }
  - { offset: 0xE7FA1, size: 0x8, addend: 0x0, symName: '__ZNSt3__15tupleIJRKZZN21BGMDeviceControlsList27CreateDeviceToggleBackBlockEvEUb0_E3$_5EEC1B8ne190102INS_4_AndELi0EEES4_', symObjAddr: 0xB91C, symBinAddr: 0x100021450, symSize: 0x34 }
  - { offset: 0xE7FEC, size: 0x8, addend: 0x0, symName: '__ZNSt3__15tupleIJRKZZN21BGMDeviceControlsList27CreateDeviceToggleBackBlockEvEUb0_E3$_5EEC2B8ne190102INS_4_AndELi0EEES4_', symObjAddr: 0xB950, symBinAddr: 0x100021484, symSize: 0x34 }
  - { offset: 0xE8037, size: 0x8, addend: 0x0, symName: '__ZNSt3__112__tuple_implINS_15__tuple_indicesIJLm0EEEEJRKZZN21BGMDeviceControlsList27CreateDeviceToggleBackBlockEvEUb0_E3$_5EEC1B8ne190102IJLm0EEJS6_EJEJEJS6_EEENS1_IJXspT_EEEENS_13__tuple_typesIJDpT0_EEENS1_IJXspT1_EEEENSA_IJDpT2_EEEDpOT3_', symObjAddr: 0xB984, symBinAddr: 0x1000214B8, symSize: 0x34 }
  - { offset: 0xE80D5, size: 0x8, addend: 0x0, symName: '__ZNSt3__112__tuple_implINS_15__tuple_indicesIJLm0EEEEJRKZZN21BGMDeviceControlsList27CreateDeviceToggleBackBlockEvEUb0_E3$_5EEC2B8ne190102IJLm0EEJS6_EJEJEJS6_EEENS1_IJXspT_EEEENS_13__tuple_typesIJDpT0_EEENS1_IJXspT1_EEEENSA_IJDpT2_EEEDpOT3_', symObjAddr: 0xB9B8, symBinAddr: 0x1000214EC, symSize: 0x34 }
  - { offset: 0xE8173, size: 0x8, addend: 0x0, symName: '__ZNSt3__112__tuple_leafILm0ERKZZN21BGMDeviceControlsList27CreateDeviceToggleBackBlockEvEUb0_E3$_5Lb0EEC2B8ne190102IS4_Li0EEEOT_', symObjAddr: 0xB9EC, symBinAddr: 0x100021520, symSize: 0x20 }
  - { offset: 0xE81BE, size: 0x8, addend: 0x0, symName: '__ZNSt3__117__compressed_pairIZZN21BGMDeviceControlsList27CreateDeviceToggleBackBlockEvEUb0_E3$_5NS_9allocatorIS2_EEEC2B8ne190102IJRKS2_EJOS4_EEENS_21piecewise_construct_tENS_5tupleIJDpT_EEENSB_IJDpT0_EEE', symObjAddr: 0xBA0C, symBinAddr: 0x100021540, symSize: 0x54 }
  - { offset: 0xE822F, size: 0x8, addend: 0x0, symName: '__ZNSt3__122__compressed_pair_elemIZZN21BGMDeviceControlsList27CreateDeviceToggleBackBlockEvEUb0_E3$_5Li0ELb0EEC2B8ne190102IJRKS2_EJLm0EEEENS_21piecewise_construct_tENS_5tupleIJDpT_EEENS_15__tuple_indicesIJXspT0_EEEE', symObjAddr: 0xBA60, symBinAddr: 0x100021594, symSize: 0x44 }
  - { offset: 0xE8299, size: 0x8, addend: 0x0, symName: '__ZNSt3__112__tuple_leafILm0ERKZZN21BGMDeviceControlsList27CreateDeviceToggleBackBlockEvEUb0_E3$_5Lb0EE3getB8ne190102Ev', symObjAddr: 0xBAC8, symBinAddr: 0x1000215FC, symSize: 0x18 }
  - { offset: 0xE82BF, size: 0x8, addend: 0x0, symName: '__ZNSt3__117__compressed_pairIPNS_10__function6__funcIZZN21BGMDeviceControlsList27CreateDeviceToggleBackBlockEvEUb0_E3$_5NS_9allocatorIS4_EEFvvEEENS_22__allocator_destructorINS5_IS8_EEEEE5firstB8ne190102Ev', symObjAddr: 0xBAE0, symBinAddr: 0x100021614, symSize: 0x24 }
  - { offset: 0xE82E5, size: 0x8, addend: 0x0, symName: '__ZNSt3__122__compressed_pair_elemIPNS_10__function6__funcIZZN21BGMDeviceControlsList27CreateDeviceToggleBackBlockEvEUb0_E3$_5NS_9allocatorIS4_EEFvvEEELi0ELb0EE5__getB8ne190102Ev', symObjAddr: 0xBB04, symBinAddr: 0x100021638, symSize: 0x14 }
  - { offset: 0xE830B, size: 0x8, addend: 0x0, symName: '__ZNSt3__110unique_ptrINS_10__function6__funcIZZN21BGMDeviceControlsList27CreateDeviceToggleBackBlockEvEUb0_E3$_5NS_9allocatorIS4_EEFvvEEENS_22__allocator_destructorINS5_IS8_EEEEED2B8ne190102Ev', symObjAddr: 0xBB18, symBinAddr: 0x10002164C, symSize: 0x30 }
  - { offset: 0xE8335, size: 0x8, addend: 0x0, symName: '__ZNSt3__110unique_ptrINS_10__function6__funcIZZN21BGMDeviceControlsList27CreateDeviceToggleBackBlockEvEUb0_E3$_5NS_9allocatorIS4_EEFvvEEENS_22__allocator_destructorINS5_IS8_EEEEE5resetB8ne190102EPS8_', symObjAddr: 0xBB48, symBinAddr: 0x10002167C, symSize: 0x70 }
  - { offset: 0xE837B, size: 0x8, addend: 0x0, symName: '__ZNSt3__117__compressed_pairIPNS_10__function6__funcIZZN21BGMDeviceControlsList27CreateDeviceToggleBackBlockEvEUb0_E3$_5NS_9allocatorIS4_EEFvvEEENS_22__allocator_destructorINS5_IS8_EEEEE6secondB8ne190102Ev', symObjAddr: 0xBBB8, symBinAddr: 0x1000216EC, symSize: 0x28 }
  - { offset: 0xE83A1, size: 0x8, addend: 0x0, symName: '__ZNSt3__122__allocator_destructorINS_9allocatorINS_10__function6__funcIZZN21BGMDeviceControlsList27CreateDeviceToggleBackBlockEvEUb0_E3$_5NS1_IS5_EEFvvEEEEEEclB8ne190102EPS8_', symObjAddr: 0xBBE0, symBinAddr: 0x100021714, symSize: 0x34 }
  - { offset: 0xE83D6, size: 0x8, addend: 0x0, symName: '__ZNSt3__122__compressed_pair_elemINS_22__allocator_destructorINS_9allocatorINS_10__function6__funcIZZN21BGMDeviceControlsList27CreateDeviceToggleBackBlockEvEUb0_E3$_5NS2_IS6_EEFvvEEEEEEELi1ELb0EE5__getB8ne190102Ev', symObjAddr: 0xBC14, symBinAddr: 0x100021748, symSize: 0x14 }
  - { offset: 0xE83FC, size: 0x8, addend: 0x0, symName: '__ZNSt3__116allocator_traitsINS_9allocatorINS_10__function6__funcIZZN21BGMDeviceControlsList27CreateDeviceToggleBackBlockEvEUb0_E3$_5NS1_IS5_EEFvvEEEEEE10deallocateB8ne190102ERS9_PS8_m', symObjAddr: 0xBC28, symBinAddr: 0x10002175C, symSize: 0x34 }
  - { offset: 0xE8441, size: 0x8, addend: 0x0, symName: '__ZNSt3__19allocatorINS_10__function6__funcIZZN21BGMDeviceControlsList27CreateDeviceToggleBackBlockEvEUb0_E3$_5NS0_IS4_EEFvvEEEE10deallocateB8ne190102EPS7_m', symObjAddr: 0xBC5C, symBinAddr: 0x100021790, symSize: 0x40 }
  - { offset: 0xE8485, size: 0x8, addend: 0x0, symName: '__ZNSt3__110__function6__funcIZZN21BGMDeviceControlsList27CreateDeviceToggleBackBlockEvEUb0_E3$_5NS_9allocatorIS3_EEFvvEEC1B8ne190102ERKS3_RKS5_', symObjAddr: 0xBC9C, symBinAddr: 0x1000217D0, symSize: 0x3C }
  - { offset: 0xE84CF, size: 0x8, addend: 0x0, symName: '__ZNSt3__110__function6__funcIZZN21BGMDeviceControlsList27CreateDeviceToggleBackBlockEvEUb0_E3$_5NS_9allocatorIS3_EEFvvEEC2B8ne190102ERKS3_RKS5_', symObjAddr: 0xBCD8, symBinAddr: 0x10002180C, symSize: 0x80 }
  - { offset: 0xE8519, size: 0x8, addend: 0x0, symName: '__ZNSt3__110__function12__alloc_funcIZZN21BGMDeviceControlsList27CreateDeviceToggleBackBlockEvEUb0_E3$_5NS_9allocatorIS3_EEFvvEEC1B8ne190102ERKS3_RKS5_', symObjAddr: 0xBD58, symBinAddr: 0x10002188C, symSize: 0x3C }
  - { offset: 0xE8561, size: 0x8, addend: 0x0, symName: '__ZNSt3__110__function12__alloc_funcIZZN21BGMDeviceControlsList27CreateDeviceToggleBackBlockEvEUb0_E3$_5NS_9allocatorIS3_EEFvvEEC2B8ne190102ERKS3_RKS5_', symObjAddr: 0xBD94, symBinAddr: 0x1000218C8, symSize: 0x5C }
  - { offset: 0xE85A9, size: 0x8, addend: 0x0, symName: '__ZNSt3__117__compressed_pairIZZN21BGMDeviceControlsList27CreateDeviceToggleBackBlockEvEUb0_E3$_5NS_9allocatorIS2_EEEC1B8ne190102IJRKS2_EJRKS4_EEENS_21piecewise_construct_tENS_5tupleIJDpT_EEENSC_IJDpT0_EEE', symObjAddr: 0xBE1C, symBinAddr: 0x100021950, symSize: 0x3C }
  - { offset: 0xE861A, size: 0x8, addend: 0x0, symName: '__ZNSt3__15tupleIJRKNS_9allocatorIZZN21BGMDeviceControlsList27CreateDeviceToggleBackBlockEvEUb0_E3$_5EEEEC1B8ne190102INS_4_AndELi0EEES6_', symObjAddr: 0xBE58, symBinAddr: 0x10002198C, symSize: 0x34 }
  - { offset: 0xE8665, size: 0x8, addend: 0x0, symName: '__ZNSt3__15tupleIJRKNS_9allocatorIZZN21BGMDeviceControlsList27CreateDeviceToggleBackBlockEvEUb0_E3$_5EEEEC2B8ne190102INS_4_AndELi0EEES6_', symObjAddr: 0xBE8C, symBinAddr: 0x1000219C0, symSize: 0x34 }
  - { offset: 0xE86B0, size: 0x8, addend: 0x0, symName: '__ZNSt3__112__tuple_implINS_15__tuple_indicesIJLm0EEEEJRKNS_9allocatorIZZN21BGMDeviceControlsList27CreateDeviceToggleBackBlockEvEUb0_E3$_5EEEEC1B8ne190102IJLm0EEJS8_EJEJEJS8_EEENS1_IJXspT_EEEENS_13__tuple_typesIJDpT0_EEENS1_IJXspT1_EEEENSC_IJDpT2_EEEDpOT3_', symObjAddr: 0xBEC0, symBinAddr: 0x1000219F4, symSize: 0x34 }
  - { offset: 0xE874E, size: 0x8, addend: 0x0, symName: '__ZNSt3__112__tuple_implINS_15__tuple_indicesIJLm0EEEEJRKNS_9allocatorIZZN21BGMDeviceControlsList27CreateDeviceToggleBackBlockEvEUb0_E3$_5EEEEC2B8ne190102IJLm0EEJS8_EJEJEJS8_EEENS1_IJXspT_EEEENS_13__tuple_typesIJDpT0_EEENS1_IJXspT1_EEEENSC_IJDpT2_EEEDpOT3_', symObjAddr: 0xBEF4, symBinAddr: 0x100021A28, symSize: 0x34 }
  - { offset: 0xE87EC, size: 0x8, addend: 0x0, symName: '__ZNSt3__112__tuple_leafILm0ERKNS_9allocatorIZZN21BGMDeviceControlsList27CreateDeviceToggleBackBlockEvEUb0_E3$_5EELb0EEC2B8ne190102IS6_Li0EEEOT_', symObjAddr: 0xBF28, symBinAddr: 0x100021A5C, symSize: 0x20 }
  - { offset: 0xE8837, size: 0x8, addend: 0x0, symName: '__ZNSt3__117__compressed_pairIZZN21BGMDeviceControlsList27CreateDeviceToggleBackBlockEvEUb0_E3$_5NS_9allocatorIS2_EEEC2B8ne190102IJRKS2_EJRKS4_EEENS_21piecewise_construct_tENS_5tupleIJDpT_EEENSC_IJDpT0_EEE', symObjAddr: 0xBF48, symBinAddr: 0x100021A7C, symSize: 0x54 }
  - { offset: 0xE88A8, size: 0x8, addend: 0x0, symName: '__ZNSt3__122__compressed_pair_elemINS_9allocatorIZZN21BGMDeviceControlsList27CreateDeviceToggleBackBlockEvEUb0_E3$_5EELi1ELb1EEC2B8ne190102IJRKS4_EJLm0EEEENS_21piecewise_construct_tENS_5tupleIJDpT_EEENS_15__tuple_indicesIJXspT0_EEEE', symObjAddr: 0xBF9C, symBinAddr: 0x100021AD0, symSize: 0x38 }
  - { offset: 0xE8912, size: 0x8, addend: 0x0, symName: '__ZNSt3__112__tuple_leafILm0ERKNS_9allocatorIZZN21BGMDeviceControlsList27CreateDeviceToggleBackBlockEvEUb0_E3$_5EELb0EE3getB8ne190102Ev', symObjAddr: 0xBFF8, symBinAddr: 0x100021B2C, symSize: 0x18 }
  - { offset: 0xE8938, size: 0x8, addend: 0x0, symName: '__ZNSt3__110__function12__alloc_funcIZZN21BGMDeviceControlsList27CreateDeviceToggleBackBlockEvEUb0_E3$_5NS_9allocatorIS3_EEFvvEE7destroyB8ne190102Ev', symObjAddr: 0xC010, symBinAddr: 0x100021B44, symSize: 0x10 }
  - { offset: 0xE895E, size: 0x8, addend: 0x0, symName: '__ZNSt3__110__function12__alloc_funcIZZN21BGMDeviceControlsList27CreateDeviceToggleBackBlockEvEUb0_E3$_5NS_9allocatorIS3_EEFvvEEclB8ne190102Ev', symObjAddr: 0xC020, symBinAddr: 0x100021B54, symSize: 0x28 }
  - { offset: 0xE8984, size: 0x8, addend: 0x0, symName: '__ZNSt3__128__invoke_void_return_wrapperIvLb1EE6__callB8ne190102IJRZZN21BGMDeviceControlsList27CreateDeviceToggleBackBlockEvEUb0_E3$_5EEEvDpOT_', symObjAddr: 0xC048, symBinAddr: 0x100021B7C, symSize: 0x24 }
  - { offset: 0xE89B5, size: 0x8, addend: 0x0, symName: '__ZNSt3__117__compressed_pairIZZN21BGMDeviceControlsList27CreateDeviceToggleBackBlockEvEUb0_E3$_5NS_9allocatorIS2_EEE5firstB8ne190102Ev', symObjAddr: 0xC06C, symBinAddr: 0x100021BA0, symSize: 0x24 }
  - { offset: 0xE89E0, size: 0x8, addend: 0x0, symName: '__ZZZN21BGMDeviceControlsList27CreateDeviceToggleBackBlockEvEUb0_ENK3$_5clEv', symObjAddr: 0xC0B4, symBinAddr: 0x100021BE8, symSize: 0x4C }
  - { offset: 0xE8A06, size: 0x8, addend: 0x0, symName: '__ZNSt3__122__compressed_pair_elemIZZN21BGMDeviceControlsList27CreateDeviceToggleBackBlockEvEUb0_E3$_5Li0ELb0EE5__getB8ne190102Ev', symObjAddr: 0xC100, symBinAddr: 0x100021C34, symSize: 0x14 }
  - { offset: 0xE8A2C, size: 0x8, addend: 0x0, symName: '__ZNSt3__18functionIFvvEEC2IZZN21BGMDeviceControlsList28CreateDisableNullDeviceBlockEvEUb1_E3$_6vEET_', symObjAddr: 0xC114, symBinAddr: 0x100021C48, symSize: 0x38 }
  - { offset: 0xE8A72, size: 0x8, addend: 0x0, symName: '__ZNSt3__110__function12__value_funcIFvvEEC1B8ne190102IZZN21BGMDeviceControlsList28CreateDisableNullDeviceBlockEvEUb1_E3$_6Li0EEEOT_', symObjAddr: 0xC14C, symBinAddr: 0x100021C80, symSize: 0x50 }
  - { offset: 0xE8ABD, size: 0x8, addend: 0x0, symName: '__ZNSt3__19allocatorIZZN21BGMDeviceControlsList28CreateDisableNullDeviceBlockEvEUb1_E3$_6EC1B8ne190102Ev', symObjAddr: 0xC19C, symBinAddr: 0x100021CD0, symSize: 0x2C }
  - { offset: 0xE8AE7, size: 0x8, addend: 0x0, symName: '__ZNSt3__110__function12__value_funcIFvvEEC1B8ne190102IZZN21BGMDeviceControlsList28CreateDisableNullDeviceBlockEvEUb1_E3$_6NS_9allocatorIS6_EEEEOT_RKT0_', symObjAddr: 0xC1C8, symBinAddr: 0x100021CFC, symSize: 0x3C }
  - { offset: 0xE8B45, size: 0x8, addend: 0x0, symName: '__ZNSt3__19allocatorIZZN21BGMDeviceControlsList28CreateDisableNullDeviceBlockEvEUb1_E3$_6EC2B8ne190102Ev', symObjAddr: 0xC204, symBinAddr: 0x100021D38, symSize: 0x2C }
  - { offset: 0xE8B6F, size: 0x8, addend: 0x0, symName: '__ZNSt3__116__non_trivial_ifILb1ENS_9allocatorIZZN21BGMDeviceControlsList28CreateDisableNullDeviceBlockEvEUb1_E3$_6EEEC2B8ne190102Ev', symObjAddr: 0xC230, symBinAddr: 0x100021D64, symSize: 0x14 }
  - { offset: 0xE8B99, size: 0x8, addend: 0x0, symName: '__ZNSt3__110__function12__value_funcIFvvEEC2B8ne190102IZZN21BGMDeviceControlsList28CreateDisableNullDeviceBlockEvEUb1_E3$_6NS_9allocatorIS6_EEEEOT_RKT0_', symObjAddr: 0xC244, symBinAddr: 0x100021D78, symSize: 0x94 }
  - { offset: 0xE8C47, size: 0x8, addend: 0x0, symName: '__ZNSt3__19allocatorINS_10__function6__funcIZZN21BGMDeviceControlsList28CreateDisableNullDeviceBlockEvEUb1_E3$_6NS0_IS4_EEFvvEEEEC1B8ne190102IS4_EERKNS0_IT_EE', symObjAddr: 0xC2F0, symBinAddr: 0x100021E24, symSize: 0x34 }
  - { offset: 0xE8C8C, size: 0x8, addend: 0x0, symName: '__ZNSt3__19allocatorIZZN21BGMDeviceControlsList28CreateDisableNullDeviceBlockEvEUb1_E3$_6EC1B8ne190102INS_10__function6__funcIS2_S3_FvvEEEEERKNS0_IT_EE', symObjAddr: 0xC324, symBinAddr: 0x100021E58, symSize: 0x34 }
  - { offset: 0xE8CCB, size: 0x8, addend: 0x0, symName: '__ZNSt3__110__function6__funcIZZN21BGMDeviceControlsList28CreateDisableNullDeviceBlockEvEUb1_E3$_6NS_9allocatorIS3_EEFvvEEC1B8ne190102EOS3_OS5_', symObjAddr: 0xC358, symBinAddr: 0x100021E8C, symSize: 0x3C }
  - { offset: 0xE8D15, size: 0x8, addend: 0x0, symName: '__ZNSt3__19allocatorINS_10__function6__funcIZZN21BGMDeviceControlsList28CreateDisableNullDeviceBlockEvEUb1_E3$_6NS0_IS4_EEFvvEEEEC2B8ne190102IS4_EERKNS0_IT_EE', symObjAddr: 0xC394, symBinAddr: 0x100021EC8, symSize: 0x30 }
  - { offset: 0xE8D54, size: 0x8, addend: 0x0, symName: '__ZNSt3__116__non_trivial_ifILb1ENS_9allocatorINS_10__function6__funcIZZN21BGMDeviceControlsList28CreateDisableNullDeviceBlockEvEUb1_E3$_6NS1_IS5_EEFvvEEEEEEC2B8ne190102Ev', symObjAddr: 0xC3C4, symBinAddr: 0x100021EF8, symSize: 0x14 }
  - { offset: 0xE8D7E, size: 0x8, addend: 0x0, symName: '__ZNSt3__19allocatorIZZN21BGMDeviceControlsList28CreateDisableNullDeviceBlockEvEUb1_E3$_6EC2B8ne190102INS_10__function6__funcIS2_S3_FvvEEEEERKNS0_IT_EE', symObjAddr: 0xC3D8, symBinAddr: 0x100021F0C, symSize: 0x30 }
  - { offset: 0xE8DBD, size: 0x8, addend: 0x0, symName: '__ZNSt3__110__function6__funcIZZN21BGMDeviceControlsList28CreateDisableNullDeviceBlockEvEUb1_E3$_6NS_9allocatorIS3_EEFvvEEC2B8ne190102EOS3_OS5_', symObjAddr: 0xC408, symBinAddr: 0x100021F3C, symSize: 0x80 }
  - { offset: 0xE8E07, size: 0x8, addend: 0x0, symName: '__ZNSt3__110__function12__alloc_funcIZZN21BGMDeviceControlsList28CreateDisableNullDeviceBlockEvEUb1_E3$_6NS_9allocatorIS3_EEFvvEEC1B8ne190102EOS3_OS5_', symObjAddr: 0xC488, symBinAddr: 0x100021FBC, symSize: 0x3C }
  - { offset: 0xE8E4F, size: 0x8, addend: 0x0, symName: '__ZNSt3__110__function6__funcIZZN21BGMDeviceControlsList28CreateDisableNullDeviceBlockEvEUb1_E3$_6NS_9allocatorIS3_EEFvvEED1Ev', symObjAddr: 0xC4C4, symBinAddr: 0x100021FF8, symSize: 0x2C }
  - { offset: 0xE8E7B, size: 0x8, addend: 0x0, symName: '__ZNSt3__110__function6__funcIZZN21BGMDeviceControlsList28CreateDisableNullDeviceBlockEvEUb1_E3$_6NS_9allocatorIS3_EEFvvEED0Ev', symObjAddr: 0xC4F0, symBinAddr: 0x100022024, symSize: 0x30 }
  - { offset: 0xE8EA7, size: 0x8, addend: 0x0, symName: '__ZNKSt3__110__function6__funcIZZN21BGMDeviceControlsList28CreateDisableNullDeviceBlockEvEUb1_E3$_6NS_9allocatorIS3_EEFvvEE7__cloneEv', symObjAddr: 0xC520, symBinAddr: 0x100022054, symSize: 0xFC }
  - { offset: 0xE8EF9, size: 0x8, addend: 0x0, symName: '__ZNKSt3__110__function6__funcIZZN21BGMDeviceControlsList28CreateDisableNullDeviceBlockEvEUb1_E3$_6NS_9allocatorIS3_EEFvvEE7__cloneEPNS0_6__baseIS6_EE', symObjAddr: 0xC61C, symBinAddr: 0x100022150, symSize: 0x58 }
  - { offset: 0xE8F2F, size: 0x8, addend: 0x0, symName: '__ZNSt3__110__function6__funcIZZN21BGMDeviceControlsList28CreateDisableNullDeviceBlockEvEUb1_E3$_6NS_9allocatorIS3_EEFvvEE7destroyEv', symObjAddr: 0xC674, symBinAddr: 0x1000221A8, symSize: 0x28 }
  - { offset: 0xE8F55, size: 0x8, addend: 0x0, symName: '__ZNSt3__110__function6__funcIZZN21BGMDeviceControlsList28CreateDisableNullDeviceBlockEvEUb1_E3$_6NS_9allocatorIS3_EEFvvEE18destroy_deallocateEv', symObjAddr: 0xC69C, symBinAddr: 0x1000221D0, symSize: 0x58 }
  - { offset: 0xE8F97, size: 0x8, addend: 0x0, symName: '__ZNSt3__110__function6__funcIZZN21BGMDeviceControlsList28CreateDisableNullDeviceBlockEvEUb1_E3$_6NS_9allocatorIS3_EEFvvEEclEv', symObjAddr: 0xC6F4, symBinAddr: 0x100022228, symSize: 0x28 }
  - { offset: 0xE8FBD, size: 0x8, addend: 0x0, symName: '__ZNKSt3__110__function6__funcIZZN21BGMDeviceControlsList28CreateDisableNullDeviceBlockEvEUb1_E3$_6NS_9allocatorIS3_EEFvvEE6targetERKSt9type_info', symObjAddr: 0xC71C, symBinAddr: 0x100022250, symSize: 0x60 }
  - { offset: 0xE8FF3, size: 0x8, addend: 0x0, symName: '__ZNKSt3__110__function6__funcIZZN21BGMDeviceControlsList28CreateDisableNullDeviceBlockEvEUb1_E3$_6NS_9allocatorIS3_EEFvvEE11target_typeEv', symObjAddr: 0xC77C, symBinAddr: 0x1000222B0, symSize: 0x18 }
  - { offset: 0xE9019, size: 0x8, addend: 0x0, symName: '__ZNSt3__110__function12__alloc_funcIZZN21BGMDeviceControlsList28CreateDisableNullDeviceBlockEvEUb1_E3$_6NS_9allocatorIS3_EEFvvEEC2B8ne190102EOS3_OS5_', symObjAddr: 0xC794, symBinAddr: 0x1000222C8, symSize: 0x5C }
  - { offset: 0xE9061, size: 0x8, addend: 0x0, symName: '__ZNSt3__117__compressed_pairIZZN21BGMDeviceControlsList28CreateDisableNullDeviceBlockEvEUb1_E3$_6NS_9allocatorIS2_EEEC1B8ne190102IJOS2_EJOS4_EEENS_21piecewise_construct_tENS_5tupleIJDpT_EEENSA_IJDpT0_EEE', symObjAddr: 0xC848, symBinAddr: 0x10002237C, symSize: 0x3C }
  - { offset: 0xE90D2, size: 0x8, addend: 0x0, symName: '__ZNSt3__15tupleIJOZZN21BGMDeviceControlsList28CreateDisableNullDeviceBlockEvEUb1_E3$_6EEC1B8ne190102IJS2_ELi0EEEDpOT_', symObjAddr: 0xC884, symBinAddr: 0x1000223B8, symSize: 0x34 }
  - { offset: 0xE9120, size: 0x8, addend: 0x0, symName: '__ZNSt3__15tupleIJOZZN21BGMDeviceControlsList28CreateDisableNullDeviceBlockEvEUb1_E3$_6EEC2B8ne190102IJS2_ELi0EEEDpOT_', symObjAddr: 0xC8B8, symBinAddr: 0x1000223EC, symSize: 0x34 }
  - { offset: 0xE916E, size: 0x8, addend: 0x0, symName: '__ZNSt3__112__tuple_implINS_15__tuple_indicesIJLm0EEEEJOZZN21BGMDeviceControlsList28CreateDisableNullDeviceBlockEvEUb1_E3$_6EEC1B8ne190102IJLm0EEJS5_EJEJEJS4_EEENS1_IJXspT_EEEENS_13__tuple_typesIJDpT0_EEENS1_IJXspT1_EEEENS9_IJDpT2_EEEDpOT3_', symObjAddr: 0xC8EC, symBinAddr: 0x100022420, symSize: 0x34 }
  - { offset: 0xE920C, size: 0x8, addend: 0x0, symName: '__ZNSt3__112__tuple_implINS_15__tuple_indicesIJLm0EEEEJOZZN21BGMDeviceControlsList28CreateDisableNullDeviceBlockEvEUb1_E3$_6EEC2B8ne190102IJLm0EEJS5_EJEJEJS4_EEENS1_IJXspT_EEEENS_13__tuple_typesIJDpT0_EEENS1_IJXspT1_EEEENS9_IJDpT2_EEEDpOT3_', symObjAddr: 0xC920, symBinAddr: 0x100022454, symSize: 0x34 }
  - { offset: 0xE92AA, size: 0x8, addend: 0x0, symName: '__ZNSt3__112__tuple_leafILm0EOZZN21BGMDeviceControlsList28CreateDisableNullDeviceBlockEvEUb1_E3$_6Lb0EEC2B8ne190102IS2_Li0EEEOT_', symObjAddr: 0xC954, symBinAddr: 0x100022488, symSize: 0x20 }
  - { offset: 0xE92F5, size: 0x8, addend: 0x0, symName: '__ZNSt3__15tupleIJONS_9allocatorIZZN21BGMDeviceControlsList28CreateDisableNullDeviceBlockEvEUb1_E3$_6EEEEC1B8ne190102IJS4_ELi0EEEDpOT_', symObjAddr: 0xC974, symBinAddr: 0x1000224A8, symSize: 0x34 }
  - { offset: 0xE9343, size: 0x8, addend: 0x0, symName: '__ZNSt3__15tupleIJONS_9allocatorIZZN21BGMDeviceControlsList28CreateDisableNullDeviceBlockEvEUb1_E3$_6EEEEC2B8ne190102IJS4_ELi0EEEDpOT_', symObjAddr: 0xC9A8, symBinAddr: 0x1000224DC, symSize: 0x34 }
  - { offset: 0xE9391, size: 0x8, addend: 0x0, symName: '__ZNSt3__112__tuple_implINS_15__tuple_indicesIJLm0EEEEJONS_9allocatorIZZN21BGMDeviceControlsList28CreateDisableNullDeviceBlockEvEUb1_E3$_6EEEEC1B8ne190102IJLm0EEJS7_EJEJEJS6_EEENS1_IJXspT_EEEENS_13__tuple_typesIJDpT0_EEENS1_IJXspT1_EEEENSB_IJDpT2_EEEDpOT3_', symObjAddr: 0xC9DC, symBinAddr: 0x100022510, symSize: 0x34 }
  - { offset: 0xE942F, size: 0x8, addend: 0x0, symName: '__ZNSt3__112__tuple_implINS_15__tuple_indicesIJLm0EEEEJONS_9allocatorIZZN21BGMDeviceControlsList28CreateDisableNullDeviceBlockEvEUb1_E3$_6EEEEC2B8ne190102IJLm0EEJS7_EJEJEJS6_EEENS1_IJXspT_EEEENS_13__tuple_typesIJDpT0_EEENS1_IJXspT1_EEEENSB_IJDpT2_EEEDpOT3_', symObjAddr: 0xCA10, symBinAddr: 0x100022544, symSize: 0x34 }
  - { offset: 0xE94CD, size: 0x8, addend: 0x0, symName: '__ZNSt3__112__tuple_leafILm0EONS_9allocatorIZZN21BGMDeviceControlsList28CreateDisableNullDeviceBlockEvEUb1_E3$_6EELb0EEC2B8ne190102IS4_Li0EEEOT_', symObjAddr: 0xCA44, symBinAddr: 0x100022578, symSize: 0x20 }
  - { offset: 0xE9518, size: 0x8, addend: 0x0, symName: '__ZNSt3__117__compressed_pairIZZN21BGMDeviceControlsList28CreateDisableNullDeviceBlockEvEUb1_E3$_6NS_9allocatorIS2_EEEC2B8ne190102IJOS2_EJOS4_EEENS_21piecewise_construct_tENS_5tupleIJDpT_EEENSA_IJDpT0_EEE', symObjAddr: 0xCA64, symBinAddr: 0x100022598, symSize: 0x54 }
  - { offset: 0xE9589, size: 0x8, addend: 0x0, symName: '__ZNSt3__122__compressed_pair_elemIZZN21BGMDeviceControlsList28CreateDisableNullDeviceBlockEvEUb1_E3$_6Li0ELb0EEC2B8ne190102IJOS2_EJLm0EEEENS_21piecewise_construct_tENS_5tupleIJDpT_EEENS_15__tuple_indicesIJXspT0_EEEE', symObjAddr: 0xCAB8, symBinAddr: 0x1000225EC, symSize: 0x44 }
  - { offset: 0xE95F3, size: 0x8, addend: 0x0, symName: '__ZNSt3__122__compressed_pair_elemINS_9allocatorIZZN21BGMDeviceControlsList28CreateDisableNullDeviceBlockEvEUb1_E3$_6EELi1ELb1EEC2B8ne190102IJOS4_EJLm0EEEENS_21piecewise_construct_tENS_5tupleIJDpT_EEENS_15__tuple_indicesIJXspT0_EEEE', symObjAddr: 0xCAFC, symBinAddr: 0x100022630, symSize: 0x38 }
  - { offset: 0xE965D, size: 0x8, addend: 0x0, symName: '__ZNSt3__112__tuple_leafILm0EOZZN21BGMDeviceControlsList28CreateDisableNullDeviceBlockEvEUb1_E3$_6Lb0EE3getB8ne190102Ev', symObjAddr: 0xCB58, symBinAddr: 0x10002268C, symSize: 0x18 }
  - { offset: 0xE9683, size: 0x8, addend: 0x0, symName: '__ZNSt3__112__tuple_leafILm0EONS_9allocatorIZZN21BGMDeviceControlsList28CreateDisableNullDeviceBlockEvEUb1_E3$_6EELb0EE3getB8ne190102Ev', symObjAddr: 0xCB94, symBinAddr: 0x1000226C8, symSize: 0x18 }
  - { offset: 0xE96A9, size: 0x8, addend: 0x0, symName: '__ZNSt3__110__function6__funcIZZN21BGMDeviceControlsList28CreateDisableNullDeviceBlockEvEUb1_E3$_6NS_9allocatorIS3_EEFvvEED2Ev', symObjAddr: 0xCBAC, symBinAddr: 0x1000226E0, symSize: 0x2C }
  - { offset: 0xE96D5, size: 0x8, addend: 0x0, symName: '__ZNKSt3__110__function12__alloc_funcIZZN21BGMDeviceControlsList28CreateDisableNullDeviceBlockEvEUb1_E3$_6NS_9allocatorIS3_EEFvvEE15__get_allocatorB8ne190102Ev', symObjAddr: 0xCBD8, symBinAddr: 0x10002270C, symSize: 0x24 }
  - { offset: 0xE96FB, size: 0x8, addend: 0x0, symName: '__ZNSt3__19allocatorINS_10__function6__funcIZZN21BGMDeviceControlsList28CreateDisableNullDeviceBlockEvEUb1_E3$_6NS0_IS4_EEFvvEEEE8allocateB8ne190102Em', symObjAddr: 0xCBFC, symBinAddr: 0x100022730, symSize: 0x54 }
  - { offset: 0xE9741, size: 0x8, addend: 0x0, symName: '__ZNSt3__122__allocator_destructorINS_9allocatorINS_10__function6__funcIZZN21BGMDeviceControlsList28CreateDisableNullDeviceBlockEvEUb1_E3$_6NS1_IS5_EEFvvEEEEEEC1B8ne190102ERS9_m', symObjAddr: 0xCC50, symBinAddr: 0x100022784, symSize: 0x3C }
  - { offset: 0xE981F, size: 0x8, addend: 0x0, symName: '__ZNSt3__110unique_ptrINS_10__function6__funcIZZN21BGMDeviceControlsList28CreateDisableNullDeviceBlockEvEUb1_E3$_6NS_9allocatorIS4_EEFvvEEENS_22__allocator_destructorINS5_IS8_EEEEEC1B8ne190102ILb1EvEEPS8_NS_16__dependent_typeINS_27__unique_ptr_deleter_sfinaeISB_EEXT_EE20__good_rval_ref_typeE', symObjAddr: 0xCC8C, symBinAddr: 0x1000227C0, symSize: 0x3C }
  - { offset: 0xE9874, size: 0x8, addend: 0x0, symName: '__ZNKSt3__110unique_ptrINS_10__function6__funcIZZN21BGMDeviceControlsList28CreateDisableNullDeviceBlockEvEUb1_E3$_6NS_9allocatorIS4_EEFvvEEENS_22__allocator_destructorINS5_IS8_EEEEE3getB8ne190102Ev', symObjAddr: 0xCCC8, symBinAddr: 0x1000227FC, symSize: 0x28 }
  - { offset: 0xE989A, size: 0x8, addend: 0x0, symName: '__ZNKSt3__110__function12__alloc_funcIZZN21BGMDeviceControlsList28CreateDisableNullDeviceBlockEvEUb1_E3$_6NS_9allocatorIS3_EEFvvEE8__targetB8ne190102Ev', symObjAddr: 0xCCF0, symBinAddr: 0x100022824, symSize: 0x24 }
  - { offset: 0xE98C0, size: 0x8, addend: 0x0, symName: '__ZNSt3__110__function6__funcIZZN21BGMDeviceControlsList28CreateDisableNullDeviceBlockEvEUb1_E3$_6NS_9allocatorIS3_EEFvvEEC1B8ne190102ERKS3_OS5_', symObjAddr: 0xCD14, symBinAddr: 0x100022848, symSize: 0x3C }
  - { offset: 0xE990A, size: 0x8, addend: 0x0, symName: '__ZNSt3__110unique_ptrINS_10__function6__funcIZZN21BGMDeviceControlsList28CreateDisableNullDeviceBlockEvEUb1_E3$_6NS_9allocatorIS4_EEFvvEEENS_22__allocator_destructorINS5_IS8_EEEEE7releaseB8ne190102Ev', symObjAddr: 0xCD50, symBinAddr: 0x100022884, symSize: 0x44 }
  - { offset: 0xE9940, size: 0x8, addend: 0x0, symName: '__ZNSt3__110unique_ptrINS_10__function6__funcIZZN21BGMDeviceControlsList28CreateDisableNullDeviceBlockEvEUb1_E3$_6NS_9allocatorIS4_EEFvvEEENS_22__allocator_destructorINS5_IS8_EEEEED1B8ne190102Ev', symObjAddr: 0xCD94, symBinAddr: 0x1000228C8, symSize: 0x2C }
  - { offset: 0xE996A, size: 0x8, addend: 0x0, symName: '__ZNKSt3__117__compressed_pairIZZN21BGMDeviceControlsList28CreateDisableNullDeviceBlockEvEUb1_E3$_6NS_9allocatorIS2_EEE6secondB8ne190102Ev', symObjAddr: 0xCDC0, symBinAddr: 0x1000228F4, symSize: 0x24 }
  - { offset: 0xE9990, size: 0x8, addend: 0x0, symName: '__ZNKSt3__122__compressed_pair_elemINS_9allocatorIZZN21BGMDeviceControlsList28CreateDisableNullDeviceBlockEvEUb1_E3$_6EELi1ELb1EE5__getB8ne190102Ev', symObjAddr: 0xCDE4, symBinAddr: 0x100022918, symSize: 0x14 }
  - { offset: 0xE99C1, size: 0x8, addend: 0x0, symName: '__ZNSt3__116allocator_traitsINS_9allocatorINS_10__function6__funcIZZN21BGMDeviceControlsList28CreateDisableNullDeviceBlockEvEUb1_E3$_6NS1_IS5_EEFvvEEEEEE8max_sizeB8ne190102IS9_Li0EEEmRKS9_', symObjAddr: 0xCDF8, symBinAddr: 0x10002292C, symSize: 0x24 }
  - { offset: 0xE99F7, size: 0x8, addend: 0x0, symName: '__ZNKSt3__19allocatorINS_10__function6__funcIZZN21BGMDeviceControlsList28CreateDisableNullDeviceBlockEvEUb1_E3$_6NS0_IS4_EEFvvEEEE8max_sizeB8ne190102Ev', symObjAddr: 0xCE1C, symBinAddr: 0x100022950, symSize: 0x14 }
  - { offset: 0xE9A1D, size: 0x8, addend: 0x0, symName: '__ZNSt3__122__allocator_destructorINS_9allocatorINS_10__function6__funcIZZN21BGMDeviceControlsList28CreateDisableNullDeviceBlockEvEUb1_E3$_6NS1_IS5_EEFvvEEEEEEC2B8ne190102ERS9_m', symObjAddr: 0xCE30, symBinAddr: 0x100022964, symSize: 0x2C }
  - { offset: 0xE9A65, size: 0x8, addend: 0x0, symName: '__ZNSt3__110unique_ptrINS_10__function6__funcIZZN21BGMDeviceControlsList28CreateDisableNullDeviceBlockEvEUb1_E3$_6NS_9allocatorIS4_EEFvvEEENS_22__allocator_destructorINS5_IS8_EEEEEC2B8ne190102ILb1EvEEPS8_NS_16__dependent_typeINS_27__unique_ptr_deleter_sfinaeISB_EEXT_EE20__good_rval_ref_typeE', symObjAddr: 0xCE5C, symBinAddr: 0x100022990, symSize: 0x48 }
  - { offset: 0xE9ABA, size: 0x8, addend: 0x0, symName: '__ZNSt3__117__compressed_pairIPNS_10__function6__funcIZZN21BGMDeviceControlsList28CreateDisableNullDeviceBlockEvEUb1_E3$_6NS_9allocatorIS4_EEFvvEEENS_22__allocator_destructorINS5_IS8_EEEEEC1B8ne190102IRS9_SC_EEOT_OT0_', symObjAddr: 0xCEA4, symBinAddr: 0x1000229D8, symSize: 0x3C }
  - { offset: 0xE9B16, size: 0x8, addend: 0x0, symName: '__ZNSt3__117__compressed_pairIPNS_10__function6__funcIZZN21BGMDeviceControlsList28CreateDisableNullDeviceBlockEvEUb1_E3$_6NS_9allocatorIS4_EEFvvEEENS_22__allocator_destructorINS5_IS8_EEEEEC2B8ne190102IRS9_SC_EEOT_OT0_', symObjAddr: 0xCEE0, symBinAddr: 0x100022A14, symSize: 0x48 }
  - { offset: 0xE9B72, size: 0x8, addend: 0x0, symName: '__ZNSt3__122__compressed_pair_elemIPNS_10__function6__funcIZZN21BGMDeviceControlsList28CreateDisableNullDeviceBlockEvEUb1_E3$_6NS_9allocatorIS4_EEFvvEEELi0ELb0EEC2B8ne190102IRS9_Li0EEEOT_', symObjAddr: 0xCF28, symBinAddr: 0x100022A5C, symSize: 0x24 }
  - { offset: 0xE9BBC, size: 0x8, addend: 0x0, symName: '__ZNSt3__122__compressed_pair_elemINS_22__allocator_destructorINS_9allocatorINS_10__function6__funcIZZN21BGMDeviceControlsList28CreateDisableNullDeviceBlockEvEUb1_E3$_6NS2_IS6_EEFvvEEEEEEELi1ELb0EEC2B8ne190102ISB_Li0EEEOT_', symObjAddr: 0xCF4C, symBinAddr: 0x100022A80, symSize: 0x24 }
  - { offset: 0xE9C06, size: 0x8, addend: 0x0, symName: '__ZNKSt3__117__compressed_pairIPNS_10__function6__funcIZZN21BGMDeviceControlsList28CreateDisableNullDeviceBlockEvEUb1_E3$_6NS_9allocatorIS4_EEFvvEEENS_22__allocator_destructorINS5_IS8_EEEEE5firstB8ne190102Ev', symObjAddr: 0xCF70, symBinAddr: 0x100022AA4, symSize: 0x24 }
  - { offset: 0xE9C2C, size: 0x8, addend: 0x0, symName: '__ZNKSt3__122__compressed_pair_elemIPNS_10__function6__funcIZZN21BGMDeviceControlsList28CreateDisableNullDeviceBlockEvEUb1_E3$_6NS_9allocatorIS4_EEFvvEEELi0ELb0EE5__getB8ne190102Ev', symObjAddr: 0xCF94, symBinAddr: 0x100022AC8, symSize: 0x14 }
  - { offset: 0xE9C52, size: 0x8, addend: 0x0, symName: '__ZNKSt3__117__compressed_pairIZZN21BGMDeviceControlsList28CreateDisableNullDeviceBlockEvEUb1_E3$_6NS_9allocatorIS2_EEE5firstB8ne190102Ev', symObjAddr: 0xCFA8, symBinAddr: 0x100022ADC, symSize: 0x24 }
  - { offset: 0xE9C78, size: 0x8, addend: 0x0, symName: '__ZNKSt3__122__compressed_pair_elemIZZN21BGMDeviceControlsList28CreateDisableNullDeviceBlockEvEUb1_E3$_6Li0ELb0EE5__getB8ne190102Ev', symObjAddr: 0xCFCC, symBinAddr: 0x100022B00, symSize: 0x14 }
  - { offset: 0xE9C9E, size: 0x8, addend: 0x0, symName: '__ZNSt3__110__function6__funcIZZN21BGMDeviceControlsList28CreateDisableNullDeviceBlockEvEUb1_E3$_6NS_9allocatorIS3_EEFvvEEC2B8ne190102ERKS3_OS5_', symObjAddr: 0xCFE0, symBinAddr: 0x100022B14, symSize: 0x80 }
  - { offset: 0xE9CE8, size: 0x8, addend: 0x0, symName: '__ZNSt3__110__function12__alloc_funcIZZN21BGMDeviceControlsList28CreateDisableNullDeviceBlockEvEUb1_E3$_6NS_9allocatorIS3_EEFvvEEC1B8ne190102ERKS3_OS5_', symObjAddr: 0xD060, symBinAddr: 0x100022B94, symSize: 0x3C }
  - { offset: 0xE9D30, size: 0x8, addend: 0x0, symName: '__ZNSt3__110__function12__alloc_funcIZZN21BGMDeviceControlsList28CreateDisableNullDeviceBlockEvEUb1_E3$_6NS_9allocatorIS3_EEFvvEEC2B8ne190102ERKS3_OS5_', symObjAddr: 0xD09C, symBinAddr: 0x100022BD0, symSize: 0x5C }
  - { offset: 0xE9D78, size: 0x8, addend: 0x0, symName: '__ZNSt3__117__compressed_pairIZZN21BGMDeviceControlsList28CreateDisableNullDeviceBlockEvEUb1_E3$_6NS_9allocatorIS2_EEEC1B8ne190102IJRKS2_EJOS4_EEENS_21piecewise_construct_tENS_5tupleIJDpT_EEENSB_IJDpT0_EEE', symObjAddr: 0xD124, symBinAddr: 0x100022C58, symSize: 0x3C }
  - { offset: 0xE9DE9, size: 0x8, addend: 0x0, symName: '__ZNSt3__15tupleIJRKZZN21BGMDeviceControlsList28CreateDisableNullDeviceBlockEvEUb1_E3$_6EEC1B8ne190102INS_4_AndELi0EEES4_', symObjAddr: 0xD160, symBinAddr: 0x100022C94, symSize: 0x34 }
  - { offset: 0xE9E34, size: 0x8, addend: 0x0, symName: '__ZNSt3__15tupleIJRKZZN21BGMDeviceControlsList28CreateDisableNullDeviceBlockEvEUb1_E3$_6EEC2B8ne190102INS_4_AndELi0EEES4_', symObjAddr: 0xD194, symBinAddr: 0x100022CC8, symSize: 0x34 }
  - { offset: 0xE9E7F, size: 0x8, addend: 0x0, symName: '__ZNSt3__112__tuple_implINS_15__tuple_indicesIJLm0EEEEJRKZZN21BGMDeviceControlsList28CreateDisableNullDeviceBlockEvEUb1_E3$_6EEC1B8ne190102IJLm0EEJS6_EJEJEJS6_EEENS1_IJXspT_EEEENS_13__tuple_typesIJDpT0_EEENS1_IJXspT1_EEEENSA_IJDpT2_EEEDpOT3_', symObjAddr: 0xD1C8, symBinAddr: 0x100022CFC, symSize: 0x34 }
  - { offset: 0xE9F1D, size: 0x8, addend: 0x0, symName: '__ZNSt3__112__tuple_implINS_15__tuple_indicesIJLm0EEEEJRKZZN21BGMDeviceControlsList28CreateDisableNullDeviceBlockEvEUb1_E3$_6EEC2B8ne190102IJLm0EEJS6_EJEJEJS6_EEENS1_IJXspT_EEEENS_13__tuple_typesIJDpT0_EEENS1_IJXspT1_EEEENSA_IJDpT2_EEEDpOT3_', symObjAddr: 0xD1FC, symBinAddr: 0x100022D30, symSize: 0x34 }
  - { offset: 0xE9FBB, size: 0x8, addend: 0x0, symName: '__ZNSt3__112__tuple_leafILm0ERKZZN21BGMDeviceControlsList28CreateDisableNullDeviceBlockEvEUb1_E3$_6Lb0EEC2B8ne190102IS4_Li0EEEOT_', symObjAddr: 0xD230, symBinAddr: 0x100022D64, symSize: 0x20 }
  - { offset: 0xEA006, size: 0x8, addend: 0x0, symName: '__ZNSt3__117__compressed_pairIZZN21BGMDeviceControlsList28CreateDisableNullDeviceBlockEvEUb1_E3$_6NS_9allocatorIS2_EEEC2B8ne190102IJRKS2_EJOS4_EEENS_21piecewise_construct_tENS_5tupleIJDpT_EEENSB_IJDpT0_EEE', symObjAddr: 0xD250, symBinAddr: 0x100022D84, symSize: 0x54 }
  - { offset: 0xEA077, size: 0x8, addend: 0x0, symName: '__ZNSt3__122__compressed_pair_elemIZZN21BGMDeviceControlsList28CreateDisableNullDeviceBlockEvEUb1_E3$_6Li0ELb0EEC2B8ne190102IJRKS2_EJLm0EEEENS_21piecewise_construct_tENS_5tupleIJDpT_EEENS_15__tuple_indicesIJXspT0_EEEE', symObjAddr: 0xD2A4, symBinAddr: 0x100022DD8, symSize: 0x44 }
  - { offset: 0xEA0E1, size: 0x8, addend: 0x0, symName: '__ZNSt3__112__tuple_leafILm0ERKZZN21BGMDeviceControlsList28CreateDisableNullDeviceBlockEvEUb1_E3$_6Lb0EE3getB8ne190102Ev', symObjAddr: 0xD30C, symBinAddr: 0x100022E40, symSize: 0x18 }
  - { offset: 0xEA107, size: 0x8, addend: 0x0, symName: '__ZNSt3__117__compressed_pairIPNS_10__function6__funcIZZN21BGMDeviceControlsList28CreateDisableNullDeviceBlockEvEUb1_E3$_6NS_9allocatorIS4_EEFvvEEENS_22__allocator_destructorINS5_IS8_EEEEE5firstB8ne190102Ev', symObjAddr: 0xD324, symBinAddr: 0x100022E58, symSize: 0x24 }
  - { offset: 0xEA12D, size: 0x8, addend: 0x0, symName: '__ZNSt3__122__compressed_pair_elemIPNS_10__function6__funcIZZN21BGMDeviceControlsList28CreateDisableNullDeviceBlockEvEUb1_E3$_6NS_9allocatorIS4_EEFvvEEELi0ELb0EE5__getB8ne190102Ev', symObjAddr: 0xD348, symBinAddr: 0x100022E7C, symSize: 0x14 }
  - { offset: 0xEA153, size: 0x8, addend: 0x0, symName: '__ZNSt3__110unique_ptrINS_10__function6__funcIZZN21BGMDeviceControlsList28CreateDisableNullDeviceBlockEvEUb1_E3$_6NS_9allocatorIS4_EEFvvEEENS_22__allocator_destructorINS5_IS8_EEEEED2B8ne190102Ev', symObjAddr: 0xD35C, symBinAddr: 0x100022E90, symSize: 0x30 }
  - { offset: 0xEA17D, size: 0x8, addend: 0x0, symName: '__ZNSt3__110unique_ptrINS_10__function6__funcIZZN21BGMDeviceControlsList28CreateDisableNullDeviceBlockEvEUb1_E3$_6NS_9allocatorIS4_EEFvvEEENS_22__allocator_destructorINS5_IS8_EEEEE5resetB8ne190102EPS8_', symObjAddr: 0xD38C, symBinAddr: 0x100022EC0, symSize: 0x70 }
  - { offset: 0xEA1C3, size: 0x8, addend: 0x0, symName: '__ZNSt3__117__compressed_pairIPNS_10__function6__funcIZZN21BGMDeviceControlsList28CreateDisableNullDeviceBlockEvEUb1_E3$_6NS_9allocatorIS4_EEFvvEEENS_22__allocator_destructorINS5_IS8_EEEEE6secondB8ne190102Ev', symObjAddr: 0xD3FC, symBinAddr: 0x100022F30, symSize: 0x28 }
  - { offset: 0xEA1E9, size: 0x8, addend: 0x0, symName: '__ZNSt3__122__allocator_destructorINS_9allocatorINS_10__function6__funcIZZN21BGMDeviceControlsList28CreateDisableNullDeviceBlockEvEUb1_E3$_6NS1_IS5_EEFvvEEEEEEclB8ne190102EPS8_', symObjAddr: 0xD424, symBinAddr: 0x100022F58, symSize: 0x34 }
  - { offset: 0xEA21E, size: 0x8, addend: 0x0, symName: '__ZNSt3__122__compressed_pair_elemINS_22__allocator_destructorINS_9allocatorINS_10__function6__funcIZZN21BGMDeviceControlsList28CreateDisableNullDeviceBlockEvEUb1_E3$_6NS2_IS6_EEFvvEEEEEEELi1ELb0EE5__getB8ne190102Ev', symObjAddr: 0xD458, symBinAddr: 0x100022F8C, symSize: 0x14 }
  - { offset: 0xEA244, size: 0x8, addend: 0x0, symName: '__ZNSt3__116allocator_traitsINS_9allocatorINS_10__function6__funcIZZN21BGMDeviceControlsList28CreateDisableNullDeviceBlockEvEUb1_E3$_6NS1_IS5_EEFvvEEEEEE10deallocateB8ne190102ERS9_PS8_m', symObjAddr: 0xD46C, symBinAddr: 0x100022FA0, symSize: 0x34 }
  - { offset: 0xEA289, size: 0x8, addend: 0x0, symName: '__ZNSt3__19allocatorINS_10__function6__funcIZZN21BGMDeviceControlsList28CreateDisableNullDeviceBlockEvEUb1_E3$_6NS0_IS4_EEFvvEEEE10deallocateB8ne190102EPS7_m', symObjAddr: 0xD4A0, symBinAddr: 0x100022FD4, symSize: 0x40 }
  - { offset: 0xEA2CD, size: 0x8, addend: 0x0, symName: '__ZNSt3__110__function6__funcIZZN21BGMDeviceControlsList28CreateDisableNullDeviceBlockEvEUb1_E3$_6NS_9allocatorIS3_EEFvvEEC1B8ne190102ERKS3_RKS5_', symObjAddr: 0xD4E0, symBinAddr: 0x100023014, symSize: 0x3C }
  - { offset: 0xEA317, size: 0x8, addend: 0x0, symName: '__ZNSt3__110__function6__funcIZZN21BGMDeviceControlsList28CreateDisableNullDeviceBlockEvEUb1_E3$_6NS_9allocatorIS3_EEFvvEEC2B8ne190102ERKS3_RKS5_', symObjAddr: 0xD51C, symBinAddr: 0x100023050, symSize: 0x80 }
  - { offset: 0xEA361, size: 0x8, addend: 0x0, symName: '__ZNSt3__110__function12__alloc_funcIZZN21BGMDeviceControlsList28CreateDisableNullDeviceBlockEvEUb1_E3$_6NS_9allocatorIS3_EEFvvEEC1B8ne190102ERKS3_RKS5_', symObjAddr: 0xD59C, symBinAddr: 0x1000230D0, symSize: 0x3C }
  - { offset: 0xEA3A9, size: 0x8, addend: 0x0, symName: '__ZNSt3__110__function12__alloc_funcIZZN21BGMDeviceControlsList28CreateDisableNullDeviceBlockEvEUb1_E3$_6NS_9allocatorIS3_EEFvvEEC2B8ne190102ERKS3_RKS5_', symObjAddr: 0xD5D8, symBinAddr: 0x10002310C, symSize: 0x5C }
  - { offset: 0xEA3F1, size: 0x8, addend: 0x0, symName: '__ZNSt3__117__compressed_pairIZZN21BGMDeviceControlsList28CreateDisableNullDeviceBlockEvEUb1_E3$_6NS_9allocatorIS2_EEEC1B8ne190102IJRKS2_EJRKS4_EEENS_21piecewise_construct_tENS_5tupleIJDpT_EEENSC_IJDpT0_EEE', symObjAddr: 0xD660, symBinAddr: 0x100023194, symSize: 0x3C }
  - { offset: 0xEA462, size: 0x8, addend: 0x0, symName: '__ZNSt3__15tupleIJRKNS_9allocatorIZZN21BGMDeviceControlsList28CreateDisableNullDeviceBlockEvEUb1_E3$_6EEEEC1B8ne190102INS_4_AndELi0EEES6_', symObjAddr: 0xD69C, symBinAddr: 0x1000231D0, symSize: 0x34 }
  - { offset: 0xEA4AD, size: 0x8, addend: 0x0, symName: '__ZNSt3__15tupleIJRKNS_9allocatorIZZN21BGMDeviceControlsList28CreateDisableNullDeviceBlockEvEUb1_E3$_6EEEEC2B8ne190102INS_4_AndELi0EEES6_', symObjAddr: 0xD6D0, symBinAddr: 0x100023204, symSize: 0x34 }
  - { offset: 0xEA4F8, size: 0x8, addend: 0x0, symName: '__ZNSt3__112__tuple_implINS_15__tuple_indicesIJLm0EEEEJRKNS_9allocatorIZZN21BGMDeviceControlsList28CreateDisableNullDeviceBlockEvEUb1_E3$_6EEEEC1B8ne190102IJLm0EEJS8_EJEJEJS8_EEENS1_IJXspT_EEEENS_13__tuple_typesIJDpT0_EEENS1_IJXspT1_EEEENSC_IJDpT2_EEEDpOT3_', symObjAddr: 0xD704, symBinAddr: 0x100023238, symSize: 0x34 }
  - { offset: 0xEA596, size: 0x8, addend: 0x0, symName: '__ZNSt3__112__tuple_implINS_15__tuple_indicesIJLm0EEEEJRKNS_9allocatorIZZN21BGMDeviceControlsList28CreateDisableNullDeviceBlockEvEUb1_E3$_6EEEEC2B8ne190102IJLm0EEJS8_EJEJEJS8_EEENS1_IJXspT_EEEENS_13__tuple_typesIJDpT0_EEENS1_IJXspT1_EEEENSC_IJDpT2_EEEDpOT3_', symObjAddr: 0xD738, symBinAddr: 0x10002326C, symSize: 0x34 }
  - { offset: 0xEA634, size: 0x8, addend: 0x0, symName: '__ZNSt3__112__tuple_leafILm0ERKNS_9allocatorIZZN21BGMDeviceControlsList28CreateDisableNullDeviceBlockEvEUb1_E3$_6EELb0EEC2B8ne190102IS6_Li0EEEOT_', symObjAddr: 0xD76C, symBinAddr: 0x1000232A0, symSize: 0x20 }
  - { offset: 0xEA67F, size: 0x8, addend: 0x0, symName: '__ZNSt3__117__compressed_pairIZZN21BGMDeviceControlsList28CreateDisableNullDeviceBlockEvEUb1_E3$_6NS_9allocatorIS2_EEEC2B8ne190102IJRKS2_EJRKS4_EEENS_21piecewise_construct_tENS_5tupleIJDpT_EEENSC_IJDpT0_EEE', symObjAddr: 0xD78C, symBinAddr: 0x1000232C0, symSize: 0x54 }
  - { offset: 0xEA6F0, size: 0x8, addend: 0x0, symName: '__ZNSt3__122__compressed_pair_elemINS_9allocatorIZZN21BGMDeviceControlsList28CreateDisableNullDeviceBlockEvEUb1_E3$_6EELi1ELb1EEC2B8ne190102IJRKS4_EJLm0EEEENS_21piecewise_construct_tENS_5tupleIJDpT_EEENS_15__tuple_indicesIJXspT0_EEEE', symObjAddr: 0xD7E0, symBinAddr: 0x100023314, symSize: 0x38 }
  - { offset: 0xEA75A, size: 0x8, addend: 0x0, symName: '__ZNSt3__112__tuple_leafILm0ERKNS_9allocatorIZZN21BGMDeviceControlsList28CreateDisableNullDeviceBlockEvEUb1_E3$_6EELb0EE3getB8ne190102Ev', symObjAddr: 0xD83C, symBinAddr: 0x100023370, symSize: 0x18 }
  - { offset: 0xEA780, size: 0x8, addend: 0x0, symName: '__ZNSt3__110__function12__alloc_funcIZZN21BGMDeviceControlsList28CreateDisableNullDeviceBlockEvEUb1_E3$_6NS_9allocatorIS3_EEFvvEE7destroyB8ne190102Ev', symObjAddr: 0xD854, symBinAddr: 0x100023388, symSize: 0x10 }
  - { offset: 0xEA7A6, size: 0x8, addend: 0x0, symName: '__ZNSt3__110__function12__alloc_funcIZZN21BGMDeviceControlsList28CreateDisableNullDeviceBlockEvEUb1_E3$_6NS_9allocatorIS3_EEFvvEEclB8ne190102Ev', symObjAddr: 0xD864, symBinAddr: 0x100023398, symSize: 0x28 }
  - { offset: 0xEA7CC, size: 0x8, addend: 0x0, symName: '__ZNSt3__128__invoke_void_return_wrapperIvLb1EE6__callB8ne190102IJRZZN21BGMDeviceControlsList28CreateDisableNullDeviceBlockEvEUb1_E3$_6EEEvDpOT_', symObjAddr: 0xD88C, symBinAddr: 0x1000233C0, symSize: 0x24 }
  - { offset: 0xEA7FD, size: 0x8, addend: 0x0, symName: '__ZNSt3__117__compressed_pairIZZN21BGMDeviceControlsList28CreateDisableNullDeviceBlockEvEUb1_E3$_6NS_9allocatorIS2_EEE5firstB8ne190102Ev', symObjAddr: 0xD8B0, symBinAddr: 0x1000233E4, symSize: 0x24 }
  - { offset: 0xEA828, size: 0x8, addend: 0x0, symName: '__ZZZN21BGMDeviceControlsList28CreateDisableNullDeviceBlockEvEUb1_ENK3$_6clEv', symObjAddr: 0xD8F8, symBinAddr: 0x10002342C, symSize: 0x6C }
  - { offset: 0xEA85E, size: 0x8, addend: 0x0, symName: '__ZNSt3__122__compressed_pair_elemIZZN21BGMDeviceControlsList28CreateDisableNullDeviceBlockEvEUb1_E3$_6Li0ELb0EE5__getB8ne190102Ev', symObjAddr: 0xD964, symBinAddr: 0x100023498, symSize: 0x14 }
  - { offset: 0xECBF3, size: 0x8, addend: 0x0, symName: __ZL42kBGMRunningSomewhereOtherThanBGMAppAddress, symObjAddr: 0x11AE0, symBinAddr: 0x100050604, symSize: 0x0 }
  - { offset: 0xECC25, size: 0x8, addend: 0x0, symName: __ZNSt3__1L19piecewise_constructE, symObjAddr: 0x11B5E, symBinAddr: 0x100050682, symSize: 0x0 }
  - { offset: 0xEEE3F, size: 0x8, addend: 0x0, symName: '__ZNSt3__110__function10__not_nullB8ne190102IZN14BGMPlayThroughD1EvE3$_0EEbRKT_', symObjAddr: 0x44C4, symBinAddr: 0x1000271A0, symSize: 0x18 }
  - { offset: 0xEEE73, size: 0x8, addend: 0x0, symName: '__ZNSt3__110__function10__not_nullB8ne190102IZN14BGMPlayThrough10DeactivateEvE3$_0EEbRKT_', symObjAddr: 0x601C, symBinAddr: 0x1000289D8, symSize: 0x18 }
  - { offset: 0xEEEA7, size: 0x8, addend: 0x0, symName: '__ZNSt3__110__function10__not_nullB8ne190102IZN14BGMPlayThrough10DeactivateEvE3$_1EEbRKT_', symObjAddr: 0x783C, symBinAddr: 0x10002A1F8, symSize: 0x18 }
  - { offset: 0xEEEDB, size: 0x8, addend: 0x0, symName: '__ZNSt3__110__function10__not_nullB8ne190102IZN14BGMPlayThrough20DisableIOProcStreamsER14BGMAudioDevicePFijPK14AudioTimeStampPK15AudioBufferListS7_PS8_S7_PvEbPKcE3$_0EEbRKT_', symObjAddr: 0x923C, symBinAddr: 0x10002BBF8, symSize: 0x18 }
  - { offset: 0xEEF0F, size: 0x8, addend: 0x0, symName: '__ZNSt3__110__function10__not_nullB8ne190102IZN14BGMPlayThrough4StopEvE3$_0EEbRKT_', symObjAddr: 0xB0B8, symBinAddr: 0x10002DA74, symSize: 0x18 }
  - { offset: 0xEEF43, size: 0x8, addend: 0x0, symName: '__ZNSt3__110__function10__not_nullB8ne190102IZN14BGMPlayThrough4StopEvE3$_1EEbRKT_', symObjAddr: 0xCD58, symBinAddr: 0x10002F714, symSize: 0x18 }
  - { offset: 0xEEF77, size: 0x8, addend: 0x0, symName: '__ZNSt3__110__function10__not_nullB8ne190102IZN14BGMPlayThrough4StopEvE3$_2EEbRKT_', symObjAddr: 0xE580, symBinAddr: 0x100030F3C, symSize: 0x18 }
  - { offset: 0xF2CC9, size: 0x8, addend: 0x0, symName: __ZNSt3__117__cxx_atomic_loadB8ne190102IN14BGMPlayThrough7IOStateEEET_PKNS_22__cxx_atomic_base_implIS3_EENS_12memory_orderE, symObjAddr: 0xAD70, symBinAddr: 0x10002D72C, symSize: 0x78 }
  - { offset: 0xF647A, size: 0x8, addend: 0x0, symName: '__ZNSt3__116forward_as_tupleB8ne190102IJZN14BGMPlayThroughD1EvE3$_0EEENS_5tupleIJDpOT_EEES6_', symObjAddr: 0x4A34, symBinAddr: 0x1000276B8, symSize: 0x2C }
  - { offset: 0xF64B7, size: 0x8, addend: 0x0, symName: '__ZNSt3__116forward_as_tupleB8ne190102IJNS_9allocatorIZN14BGMPlayThroughD1EvE3$_0EEEEENS_5tupleIJDpOT_EEES8_', symObjAddr: 0x4A60, symBinAddr: 0x1000276E4, symSize: 0x2C }
  - { offset: 0xF6524, size: 0x8, addend: 0x0, symName: '__ZNSt3__13getB8ne190102ILm0EJOZN14BGMPlayThroughD1EvE3$_0EEERNS_13tuple_elementIXT_ENS_5tupleIJDpT0_EEEE4typeERS8_', symObjAddr: 0x4D78, symBinAddr: 0x1000279FC, symSize: 0x24 }
  - { offset: 0xF656C, size: 0x8, addend: 0x0, symName: '__ZNSt3__13getB8ne190102ILm0EJONS_9allocatorIZN14BGMPlayThroughD1EvE3$_0EEEEERNS_13tuple_elementIXT_ENS_5tupleIJDpT0_EEEE4typeERSA_', symObjAddr: 0x4DB4, symBinAddr: 0x100027A38, symSize: 0x24 }
  - { offset: 0xF6B0F, size: 0x8, addend: 0x0, symName: '__ZNSt3__116forward_as_tupleB8ne190102IJRKZN14BGMPlayThroughD1EvE3$_0EEENS_5tupleIJDpOT_EEES8_', symObjAddr: 0x53BC, symBinAddr: 0x100027FC0, symSize: 0x2C }
  - { offset: 0xF6B64, size: 0x8, addend: 0x0, symName: '__ZNSt3__13getB8ne190102ILm0EJRKZN14BGMPlayThroughD1EvE3$_0EEERNS_13tuple_elementIXT_ENS_5tupleIJDpT0_EEEE4typeERS9_', symObjAddr: 0x55AC, symBinAddr: 0x1000281B0, symSize: 0x24 }
  - { offset: 0xF6BAC, size: 0x8, addend: 0x0, symName: '__ZNSt3__116forward_as_tupleB8ne190102IJRKNS_9allocatorIZN14BGMPlayThroughD1EvE3$_0EEEEENS_5tupleIJDpOT_EEESA_', symObjAddr: 0x5974, symBinAddr: 0x1000284FC, symSize: 0x2C }
  - { offset: 0xF6C01, size: 0x8, addend: 0x0, symName: '__ZNSt3__13getB8ne190102ILm0EJRKNS_9allocatorIZN14BGMPlayThroughD1EvE3$_0EEEEERNS_13tuple_elementIXT_ENS_5tupleIJDpT0_EEEE4typeERSB_', symObjAddr: 0x5B58, symBinAddr: 0x1000286E0, symSize: 0x24 }
  - { offset: 0xF6D3A, size: 0x8, addend: 0x0, symName: '__ZNSt3__18__invokeB8ne190102IRZN14BGMPlayThroughD1EvE3$_0JEEEDTclclsr3stdE7declvalIT_EEspclsr3stdE7declvalIT0_EEEEOS4_DpOS5_', symObjAddr: 0x5C14, symBinAddr: 0x10002879C, symSize: 0x24 }
  - { offset: 0xF6EF7, size: 0x8, addend: 0x0, symName: '__ZNSt3__116forward_as_tupleB8ne190102IJZN14BGMPlayThrough10DeactivateEvE3$_0EEENS_5tupleIJDpOT_EEES6_', symObjAddr: 0x6534, symBinAddr: 0x100028EF0, symSize: 0x2C }
  - { offset: 0xF6F34, size: 0x8, addend: 0x0, symName: '__ZNSt3__116forward_as_tupleB8ne190102IJNS_9allocatorIZN14BGMPlayThrough10DeactivateEvE3$_0EEEEENS_5tupleIJDpOT_EEES8_', symObjAddr: 0x6560, symBinAddr: 0x100028F1C, symSize: 0x2C }
  - { offset: 0xF6FA1, size: 0x8, addend: 0x0, symName: '__ZNSt3__13getB8ne190102ILm0EJOZN14BGMPlayThrough10DeactivateEvE3$_0EEERNS_13tuple_elementIXT_ENS_5tupleIJDpT0_EEEE4typeERS8_', symObjAddr: 0x6878, symBinAddr: 0x100029234, symSize: 0x24 }
  - { offset: 0xF6FE9, size: 0x8, addend: 0x0, symName: '__ZNSt3__13getB8ne190102ILm0EJONS_9allocatorIZN14BGMPlayThrough10DeactivateEvE3$_0EEEEERNS_13tuple_elementIXT_ENS_5tupleIJDpT0_EEEE4typeERSA_', symObjAddr: 0x68B4, symBinAddr: 0x100029270, symSize: 0x24 }
  - { offset: 0xF758C, size: 0x8, addend: 0x0, symName: '__ZNSt3__116forward_as_tupleB8ne190102IJRKZN14BGMPlayThrough10DeactivateEvE3$_0EEENS_5tupleIJDpOT_EEES8_', symObjAddr: 0x6E3C, symBinAddr: 0x1000297F8, symSize: 0x2C }
  - { offset: 0xF75E1, size: 0x8, addend: 0x0, symName: '__ZNSt3__13getB8ne190102ILm0EJRKZN14BGMPlayThrough10DeactivateEvE3$_0EEERNS_13tuple_elementIXT_ENS_5tupleIJDpT0_EEEE4typeERS9_', symObjAddr: 0x702C, symBinAddr: 0x1000299E8, symSize: 0x24 }
  - { offset: 0xF7629, size: 0x8, addend: 0x0, symName: '__ZNSt3__116forward_as_tupleB8ne190102IJRKNS_9allocatorIZN14BGMPlayThrough10DeactivateEvE3$_0EEEEENS_5tupleIJDpOT_EEESA_', symObjAddr: 0x7378, symBinAddr: 0x100029D34, symSize: 0x2C }
  - { offset: 0xF767E, size: 0x8, addend: 0x0, symName: '__ZNSt3__13getB8ne190102ILm0EJRKNS_9allocatorIZN14BGMPlayThrough10DeactivateEvE3$_0EEEEERNS_13tuple_elementIXT_ENS_5tupleIJDpT0_EEEE4typeERSB_', symObjAddr: 0x755C, symBinAddr: 0x100029F18, symSize: 0x24 }
  - { offset: 0xF76C6, size: 0x8, addend: 0x0, symName: '__ZNSt3__18__invokeB8ne190102IRZN14BGMPlayThrough10DeactivateEvE3$_0JEEEDTclclsr3stdE7declvalIT_EEspclsr3stdE7declvalIT0_EEEEOS4_DpOS5_', symObjAddr: 0x7618, symBinAddr: 0x100029FD4, symSize: 0x24 }
  - { offset: 0xF7883, size: 0x8, addend: 0x0, symName: '__ZNSt3__116forward_as_tupleB8ne190102IJZN14BGMPlayThrough10DeactivateEvE3$_1EEENS_5tupleIJDpOT_EEES6_', symObjAddr: 0x7D54, symBinAddr: 0x10002A710, symSize: 0x2C }
  - { offset: 0xF78C0, size: 0x8, addend: 0x0, symName: '__ZNSt3__116forward_as_tupleB8ne190102IJNS_9allocatorIZN14BGMPlayThrough10DeactivateEvE3$_1EEEEENS_5tupleIJDpOT_EEES8_', symObjAddr: 0x7D80, symBinAddr: 0x10002A73C, symSize: 0x2C }
  - { offset: 0xF792D, size: 0x8, addend: 0x0, symName: '__ZNSt3__13getB8ne190102ILm0EJOZN14BGMPlayThrough10DeactivateEvE3$_1EEERNS_13tuple_elementIXT_ENS_5tupleIJDpT0_EEEE4typeERS8_', symObjAddr: 0x8098, symBinAddr: 0x10002AA54, symSize: 0x24 }
  - { offset: 0xF7975, size: 0x8, addend: 0x0, symName: '__ZNSt3__13getB8ne190102ILm0EJONS_9allocatorIZN14BGMPlayThrough10DeactivateEvE3$_1EEEEERNS_13tuple_elementIXT_ENS_5tupleIJDpT0_EEEE4typeERSA_', symObjAddr: 0x80D4, symBinAddr: 0x10002AA90, symSize: 0x24 }
  - { offset: 0xF7F18, size: 0x8, addend: 0x0, symName: '__ZNSt3__116forward_as_tupleB8ne190102IJRKZN14BGMPlayThrough10DeactivateEvE3$_1EEENS_5tupleIJDpOT_EEES8_', symObjAddr: 0x865C, symBinAddr: 0x10002B018, symSize: 0x2C }
  - { offset: 0xF7F6D, size: 0x8, addend: 0x0, symName: '__ZNSt3__13getB8ne190102ILm0EJRKZN14BGMPlayThrough10DeactivateEvE3$_1EEERNS_13tuple_elementIXT_ENS_5tupleIJDpT0_EEEE4typeERS9_', symObjAddr: 0x884C, symBinAddr: 0x10002B208, symSize: 0x24 }
  - { offset: 0xF7FB5, size: 0x8, addend: 0x0, symName: '__ZNSt3__116forward_as_tupleB8ne190102IJRKNS_9allocatorIZN14BGMPlayThrough10DeactivateEvE3$_1EEEEENS_5tupleIJDpOT_EEESA_', symObjAddr: 0x8B98, symBinAddr: 0x10002B554, symSize: 0x2C }
  - { offset: 0xF800A, size: 0x8, addend: 0x0, symName: '__ZNSt3__13getB8ne190102ILm0EJRKNS_9allocatorIZN14BGMPlayThrough10DeactivateEvE3$_1EEEEERNS_13tuple_elementIXT_ENS_5tupleIJDpT0_EEEE4typeERSB_', symObjAddr: 0x8D7C, symBinAddr: 0x10002B738, symSize: 0x24 }
  - { offset: 0xF8052, size: 0x8, addend: 0x0, symName: '__ZNSt3__18__invokeB8ne190102IRZN14BGMPlayThrough10DeactivateEvE3$_1JEEEDTclclsr3stdE7declvalIT_EEspclsr3stdE7declvalIT0_EEEEOS4_DpOS5_', symObjAddr: 0x8E38, symBinAddr: 0x10002B7F4, symSize: 0x24 }
  - { offset: 0xF875F, size: 0x8, addend: 0x0, symName: '__ZNSt3__116forward_as_tupleB8ne190102IJZN14BGMPlayThrough20DisableIOProcStreamsER14BGMAudioDevicePFijPK14AudioTimeStampPK15AudioBufferListS6_PS7_S6_PvEbPKcE3$_0EEENS_5tupleIJDpOT_EEESK_', symObjAddr: 0x9A0C, symBinAddr: 0x10002C3C8, symSize: 0x2C }
  - { offset: 0xF879C, size: 0x8, addend: 0x0, symName: '__ZNSt3__116forward_as_tupleB8ne190102IJNS_9allocatorIZN14BGMPlayThrough20DisableIOProcStreamsER14BGMAudioDevicePFijPK14AudioTimeStampPK15AudioBufferListS7_PS8_S7_PvEbPKcE3$_0EEEEENS_5tupleIJDpOT_EEESM_', symObjAddr: 0x9A38, symBinAddr: 0x10002C3F4, symSize: 0x2C }
  - { offset: 0xF8809, size: 0x8, addend: 0x0, symName: '__ZNSt3__13getB8ne190102ILm0EJOZN14BGMPlayThrough20DisableIOProcStreamsER14BGMAudioDevicePFijPK14AudioTimeStampPK15AudioBufferListS6_PS7_S6_PvEbPKcE3$_0EEERNS_13tuple_elementIXT_ENS_5tupleIJDpT0_EEEE4typeERSM_', symObjAddr: 0x9D58, symBinAddr: 0x10002C714, symSize: 0x24 }
  - { offset: 0xF8851, size: 0x8, addend: 0x0, symName: '__ZNSt3__13getB8ne190102ILm0EJONS_9allocatorIZN14BGMPlayThrough20DisableIOProcStreamsER14BGMAudioDevicePFijPK14AudioTimeStampPK15AudioBufferListS7_PS8_S7_PvEbPKcE3$_0EEEEERNS_13tuple_elementIXT_ENS_5tupleIJDpT0_EEEE4typeERSO_', symObjAddr: 0x9D94, symBinAddr: 0x10002C750, symSize: 0x24 }
  - { offset: 0xF8A47, size: 0x8, addend: 0x0, symName: '__ZNSt3__116forward_as_tupleB8ne190102IJRKZN14BGMPlayThrough20DisableIOProcStreamsER14BGMAudioDevicePFijPK14AudioTimeStampPK15AudioBufferListS6_PS7_S6_PvEbPKcE3$_0EEENS_5tupleIJDpOT_EEESM_', symObjAddr: 0xA188, symBinAddr: 0x10002CB44, symSize: 0x2C }
  - { offset: 0xF8A9C, size: 0x8, addend: 0x0, symName: '__ZNSt3__13getB8ne190102ILm0EJRKZN14BGMPlayThrough20DisableIOProcStreamsER14BGMAudioDevicePFijPK14AudioTimeStampPK15AudioBufferListS6_PS7_S6_PvEbPKcE3$_0EEERNS_13tuple_elementIXT_ENS_5tupleIJDpT0_EEEE4typeERSN_', symObjAddr: 0xA380, symBinAddr: 0x10002CD3C, symSize: 0x24 }
  - { offset: 0xF8AE4, size: 0x8, addend: 0x0, symName: '__ZNSt3__116forward_as_tupleB8ne190102IJRKNS_9allocatorIZN14BGMPlayThrough20DisableIOProcStreamsER14BGMAudioDevicePFijPK14AudioTimeStampPK15AudioBufferListS7_PS8_S7_PvEbPKcE3$_0EEEEENS_5tupleIJDpOT_EEESO_', symObjAddr: 0xA6D0, symBinAddr: 0x10002D08C, symSize: 0x2C }
  - { offset: 0xF8B39, size: 0x8, addend: 0x0, symName: '__ZNSt3__13getB8ne190102ILm0EJRKNS_9allocatorIZN14BGMPlayThrough20DisableIOProcStreamsER14BGMAudioDevicePFijPK14AudioTimeStampPK15AudioBufferListS7_PS8_S7_PvEbPKcE3$_0EEEEERNS_13tuple_elementIXT_ENS_5tupleIJDpT0_EEEE4typeERSP_', symObjAddr: 0xA8B4, symBinAddr: 0x10002D270, symSize: 0x24 }
  - { offset: 0xF8B81, size: 0x8, addend: 0x0, symName: '__ZNSt3__18__invokeB8ne190102IRZN14BGMPlayThrough20DisableIOProcStreamsER14BGMAudioDevicePFijPK14AudioTimeStampPK15AudioBufferListS6_PS7_S6_PvEbPKcE3$_0JEEEDTclclsr3stdE7declvalIT_EEspclsr3stdE7declvalIT0_EEEEOSI_DpOSJ_', symObjAddr: 0xA970, symBinAddr: 0x10002D32C, symSize: 0x24 }
  - { offset: 0xF8BBB, size: 0x8, addend: 0x0, symName: __ZNSt3__118__cxx_atomic_storeB8ne190102IN14BGMPlayThrough7IOStateEEEvPNS_22__cxx_atomic_base_implIT_EES4_NS_12memory_orderE, symObjAddr: 0xAE1C, symBinAddr: 0x10002D7D8, symSize: 0x7C }
  - { offset: 0xF92E4, size: 0x8, addend: 0x0, symName: '__ZNSt3__116forward_as_tupleB8ne190102IJZN14BGMPlayThrough4StopEvE3$_0EEENS_5tupleIJDpOT_EEES6_', symObjAddr: 0xB888, symBinAddr: 0x10002E244, symSize: 0x2C }
  - { offset: 0xF9321, size: 0x8, addend: 0x0, symName: '__ZNSt3__116forward_as_tupleB8ne190102IJNS_9allocatorIZN14BGMPlayThrough4StopEvE3$_0EEEEENS_5tupleIJDpOT_EEES8_', symObjAddr: 0xB8B4, symBinAddr: 0x10002E270, symSize: 0x2C }
  - { offset: 0xF938E, size: 0x8, addend: 0x0, symName: '__ZNSt3__13getB8ne190102ILm0EJOZN14BGMPlayThrough4StopEvE3$_0EEERNS_13tuple_elementIXT_ENS_5tupleIJDpT0_EEEE4typeERS8_', symObjAddr: 0xBBD4, symBinAddr: 0x10002E590, symSize: 0x24 }
  - { offset: 0xF93D6, size: 0x8, addend: 0x0, symName: '__ZNSt3__13getB8ne190102ILm0EJONS_9allocatorIZN14BGMPlayThrough4StopEvE3$_0EEEEERNS_13tuple_elementIXT_ENS_5tupleIJDpT0_EEEE4typeERSA_', symObjAddr: 0xBC10, symBinAddr: 0x10002E5CC, symSize: 0x24 }
  - { offset: 0xF95CC, size: 0x8, addend: 0x0, symName: '__ZNSt3__116forward_as_tupleB8ne190102IJRKZN14BGMPlayThrough4StopEvE3$_0EEENS_5tupleIJDpOT_EEES8_', symObjAddr: 0xC004, symBinAddr: 0x10002E9C0, symSize: 0x2C }
  - { offset: 0xF9621, size: 0x8, addend: 0x0, symName: '__ZNSt3__13getB8ne190102ILm0EJRKZN14BGMPlayThrough4StopEvE3$_0EEERNS_13tuple_elementIXT_ENS_5tupleIJDpT0_EEEE4typeERS9_', symObjAddr: 0xC1FC, symBinAddr: 0x10002EBB8, symSize: 0x24 }
  - { offset: 0xF9669, size: 0x8, addend: 0x0, symName: '__ZNSt3__116forward_as_tupleB8ne190102IJRKNS_9allocatorIZN14BGMPlayThrough4StopEvE3$_0EEEEENS_5tupleIJDpOT_EEESA_', symObjAddr: 0xC54C, symBinAddr: 0x10002EF08, symSize: 0x2C }
  - { offset: 0xF96BE, size: 0x8, addend: 0x0, symName: '__ZNSt3__13getB8ne190102ILm0EJRKNS_9allocatorIZN14BGMPlayThrough4StopEvE3$_0EEEEERNS_13tuple_elementIXT_ENS_5tupleIJDpT0_EEEE4typeERSB_', symObjAddr: 0xC730, symBinAddr: 0x10002F0EC, symSize: 0x24 }
  - { offset: 0xF9706, size: 0x8, addend: 0x0, symName: '__ZNSt3__18__invokeB8ne190102IRZN14BGMPlayThrough4StopEvE3$_0JEEEDTclclsr3stdE7declvalIT_EEspclsr3stdE7declvalIT0_EEEEOS4_DpOS5_', symObjAddr: 0xC7EC, symBinAddr: 0x10002F1A8, symSize: 0x24 }
  - { offset: 0xF9740, size: 0x8, addend: 0x0, symName: __ZNSt3__13maxB8ne190102IdEERKT_S3_S3_, symObjAddr: 0xCA30, symBinAddr: 0x10002F3EC, symSize: 0x2C }
  - { offset: 0xF9787, size: 0x8, addend: 0x0, symName: __ZNSt3__13maxB8ne190102IdNS_6__lessIvvEEEERKT_S5_S5_T0_, symObjAddr: 0xCA5C, symBinAddr: 0x10002F418, symSize: 0x54 }
  - { offset: 0xF99B6, size: 0x8, addend: 0x0, symName: '__ZNSt3__116forward_as_tupleB8ne190102IJZN14BGMPlayThrough4StopEvE3$_1EEENS_5tupleIJDpOT_EEES6_', symObjAddr: 0xD270, symBinAddr: 0x10002FC2C, symSize: 0x2C }
  - { offset: 0xF99F3, size: 0x8, addend: 0x0, symName: '__ZNSt3__116forward_as_tupleB8ne190102IJNS_9allocatorIZN14BGMPlayThrough4StopEvE3$_1EEEEENS_5tupleIJDpOT_EEES8_', symObjAddr: 0xD29C, symBinAddr: 0x10002FC58, symSize: 0x2C }
  - { offset: 0xF9A60, size: 0x8, addend: 0x0, symName: '__ZNSt3__13getB8ne190102ILm0EJOZN14BGMPlayThrough4StopEvE3$_1EEERNS_13tuple_elementIXT_ENS_5tupleIJDpT0_EEEE4typeERS8_', symObjAddr: 0xD5B4, symBinAddr: 0x10002FF70, symSize: 0x24 }
  - { offset: 0xF9AA8, size: 0x8, addend: 0x0, symName: '__ZNSt3__13getB8ne190102ILm0EJONS_9allocatorIZN14BGMPlayThrough4StopEvE3$_1EEEEERNS_13tuple_elementIXT_ENS_5tupleIJDpT0_EEEE4typeERSA_', symObjAddr: 0xD5F0, symBinAddr: 0x10002FFAC, symSize: 0x24 }
  - { offset: 0xFA04B, size: 0x8, addend: 0x0, symName: '__ZNSt3__116forward_as_tupleB8ne190102IJRKZN14BGMPlayThrough4StopEvE3$_1EEENS_5tupleIJDpOT_EEES8_', symObjAddr: 0xDB78, symBinAddr: 0x100030534, symSize: 0x2C }
  - { offset: 0xFA0A0, size: 0x8, addend: 0x0, symName: '__ZNSt3__13getB8ne190102ILm0EJRKZN14BGMPlayThrough4StopEvE3$_1EEERNS_13tuple_elementIXT_ENS_5tupleIJDpT0_EEEE4typeERS9_', symObjAddr: 0xDD68, symBinAddr: 0x100030724, symSize: 0x24 }
  - { offset: 0xFA0E8, size: 0x8, addend: 0x0, symName: '__ZNSt3__116forward_as_tupleB8ne190102IJRKNS_9allocatorIZN14BGMPlayThrough4StopEvE3$_1EEEEENS_5tupleIJDpOT_EEESA_', symObjAddr: 0xE0B4, symBinAddr: 0x100030A70, symSize: 0x2C }
  - { offset: 0xFA13D, size: 0x8, addend: 0x0, symName: '__ZNSt3__13getB8ne190102ILm0EJRKNS_9allocatorIZN14BGMPlayThrough4StopEvE3$_1EEEEERNS_13tuple_elementIXT_ENS_5tupleIJDpT0_EEEE4typeERSB_', symObjAddr: 0xE298, symBinAddr: 0x100030C54, symSize: 0x24 }
  - { offset: 0xFA185, size: 0x8, addend: 0x0, symName: '__ZNSt3__18__invokeB8ne190102IRZN14BGMPlayThrough4StopEvE3$_1JEEEDTclclsr3stdE7declvalIT_EEspclsr3stdE7declvalIT0_EEEEOS4_DpOS5_', symObjAddr: 0xE354, symBinAddr: 0x100030D10, symSize: 0x24 }
  - { offset: 0xFA342, size: 0x8, addend: 0x0, symName: '__ZNSt3__116forward_as_tupleB8ne190102IJZN14BGMPlayThrough4StopEvE3$_2EEENS_5tupleIJDpOT_EEES6_', symObjAddr: 0xEA98, symBinAddr: 0x100031454, symSize: 0x2C }
  - { offset: 0xFA37F, size: 0x8, addend: 0x0, symName: '__ZNSt3__116forward_as_tupleB8ne190102IJNS_9allocatorIZN14BGMPlayThrough4StopEvE3$_2EEEEENS_5tupleIJDpOT_EEES8_', symObjAddr: 0xEAC4, symBinAddr: 0x100031480, symSize: 0x2C }
  - { offset: 0xFA3EC, size: 0x8, addend: 0x0, symName: '__ZNSt3__13getB8ne190102ILm0EJOZN14BGMPlayThrough4StopEvE3$_2EEERNS_13tuple_elementIXT_ENS_5tupleIJDpT0_EEEE4typeERS8_', symObjAddr: 0xEDDC, symBinAddr: 0x100031798, symSize: 0x24 }
  - { offset: 0xFA434, size: 0x8, addend: 0x0, symName: '__ZNSt3__13getB8ne190102ILm0EJONS_9allocatorIZN14BGMPlayThrough4StopEvE3$_2EEEEERNS_13tuple_elementIXT_ENS_5tupleIJDpT0_EEEE4typeERSA_', symObjAddr: 0xEE18, symBinAddr: 0x1000317D4, symSize: 0x24 }
  - { offset: 0xFA9D7, size: 0x8, addend: 0x0, symName: '__ZNSt3__116forward_as_tupleB8ne190102IJRKZN14BGMPlayThrough4StopEvE3$_2EEENS_5tupleIJDpOT_EEES8_', symObjAddr: 0xF3A0, symBinAddr: 0x100031D5C, symSize: 0x2C }
  - { offset: 0xFAA2C, size: 0x8, addend: 0x0, symName: '__ZNSt3__13getB8ne190102ILm0EJRKZN14BGMPlayThrough4StopEvE3$_2EEERNS_13tuple_elementIXT_ENS_5tupleIJDpT0_EEEE4typeERS9_', symObjAddr: 0xF590, symBinAddr: 0x100031F4C, symSize: 0x24 }
  - { offset: 0xFAA74, size: 0x8, addend: 0x0, symName: '__ZNSt3__116forward_as_tupleB8ne190102IJRKNS_9allocatorIZN14BGMPlayThrough4StopEvE3$_2EEEEENS_5tupleIJDpOT_EEESA_', symObjAddr: 0xF8DC, symBinAddr: 0x100032298, symSize: 0x2C }
  - { offset: 0xFAAC9, size: 0x8, addend: 0x0, symName: '__ZNSt3__13getB8ne190102ILm0EJRKNS_9allocatorIZN14BGMPlayThrough4StopEvE3$_2EEEEERNS_13tuple_elementIXT_ENS_5tupleIJDpT0_EEEE4typeERSB_', symObjAddr: 0xFAC0, symBinAddr: 0x10003247C, symSize: 0x24 }
  - { offset: 0xFAB11, size: 0x8, addend: 0x0, symName: '__ZNSt3__18__invokeB8ne190102IRZN14BGMPlayThrough4StopEvE3$_2JEEEDTclclsr3stdE7declvalIT_EEspclsr3stdE7declvalIT0_EEEEOS4_DpOS5_', symObjAddr: 0xFB7C, symBinAddr: 0x100032538, symSize: 0x24 }
  - { offset: 0xFAB4B, size: 0x8, addend: 0x0, symName: __ZNSt3__136__cxx_atomic_compare_exchange_strongB8ne190102IN14BGMPlayThrough7IOStateEEEbPNS_22__cxx_atomic_base_implIT_EEPS4_S4_NS_12memory_orderES8_, symObjAddr: 0xFBE4, symBinAddr: 0x1000325A0, symSize: 0x624 }
  - { offset: 0xFABC5, size: 0x8, addend: 0x0, symName: __ZNSt3__118__to_failure_orderB8ne190102ENS_12memory_orderE, symObjAddr: 0x10208, symBinAddr: 0x100032BC4, symSize: 0x64 }
  - { offset: 0xFBEB1, size: 0x8, addend: 0x0, symName: __ZN14BGMPlayThroughD1Ev, symObjAddr: 0x8E0, symBinAddr: 0x100023C28, symSize: 0x2C }
  - { offset: 0xFC151, size: 0x8, addend: 0x0, symName: __ZN14BGMPlayThrough10DeactivateEv, symObjAddr: 0x14A0, symBinAddr: 0x100024710, symSize: 0x1AC }
  - { offset: 0xFC622, size: 0x8, addend: 0x0, symName: __ZN14BGMPlayThrough20DisableIOProcStreamsER14BGMAudioDevicePFijPK14AudioTimeStampPK15AudioBufferListS4_PS5_S4_PvEbPKc, symObjAddr: 0x1794, symBinAddr: 0x100024A04, symSize: 0xE4 }
  - { offset: 0xFC8F6, size: 0x8, addend: 0x0, symName: __ZN14BGMPlayThrough4StopEv, symObjAddr: 0x2FE0, symBinAddr: 0x100026250, symSize: 0x4BC }
  - { offset: 0xFD085, size: 0x8, addend: 0x0, symName: __ZN14BGMPlayThroughC2E14BGMAudioDeviceS0_, symObjAddr: 0x0, symBinAddr: 0x1000234AC, symSize: 0x218 }
  - { offset: 0xFD0D1, size: 0x8, addend: 0x0, symName: __ZN14BGMPlayThrough4InitE14BGMAudioDeviceS0_, symObjAddr: 0x2B4, symBinAddr: 0x1000236C4, symSize: 0x2D8 }
  - { offset: 0xFD12F, size: 0x8, addend: 0x0, symName: __ZN14BGMPlayThroughC1E14BGMAudioDeviceS0_, symObjAddr: 0x5B8, symBinAddr: 0x10002399C, symSize: 0x3C }
  - { offset: 0xFD17B, size: 0x8, addend: 0x0, symName: __ZN14BGMPlayThroughD2Ev, symObjAddr: 0x5F4, symBinAddr: 0x1000239D8, symSize: 0x19C }
  - { offset: 0xFD243, size: 0x8, addend: 0x0, symName: '__ZNSt3__18functionIFvvEEC1IZN14BGMPlayThroughD1EvE3$_0vEET_', symObjAddr: 0x7D4, symBinAddr: 0x100023B74, symSize: 0x34 }
  - { offset: 0xFD289, size: 0x8, addend: 0x0, symName: __ZN14BGMPlayThrough16DeallocateBufferEv, symObjAddr: 0x834, symBinAddr: 0x100023BA8, symSize: 0x80 }
  - { offset: 0xFD2CF, size: 0x8, addend: 0x0, symName: __ZNKSt3__113__atomic_baseIN14BGMPlayThrough7IOStateELb0EE12is_lock_freeB8ne190102Ev, symObjAddr: 0x90C, symBinAddr: 0x100023C54, symSize: 0x24 }
  - { offset: 0xFD2F5, size: 0x8, addend: 0x0, symName: __ZN14BGMPlayThrough14AllocateBufferEv, symObjAddr: 0x964, symBinAddr: 0x100023C78, symSize: 0x218 }
  - { offset: 0xFD35B, size: 0x8, addend: 0x0, symName: __ZN14BGMPlayThrough8ActivateEv, symObjAddr: 0xBDC, symBinAddr: 0x100023E90, symSize: 0x2E4 }
  - { offset: 0xFD3EC, size: 0x8, addend: 0x0, symName: __ZN14BGMPlayThrough15CreateIOProcIDsEv, symObjAddr: 0xEC0, symBinAddr: 0x100024174, symSize: 0x59C }
  - { offset: 0xFD46A, size: 0x8, addend: 0x0, symName: '__ZNSt3__18functionIFvvEEC1IZN14BGMPlayThrough10DeactivateEvE3$_0vEET_', symObjAddr: 0x164C, symBinAddr: 0x1000248BC, symSize: 0x34 }
  - { offset: 0xFD4B0, size: 0x8, addend: 0x0, symName: '__ZNSt3__18functionIFvvEEC1IZN14BGMPlayThrough10DeactivateEvE3$_1vEET_', symObjAddr: 0x1680, symBinAddr: 0x1000248F0, symSize: 0x34 }
  - { offset: 0xFD4F6, size: 0x8, addend: 0x0, symName: __ZNSt3__110unique_ptrI12CARingBufferNS_14default_deleteIS1_EEEC1B8ne190102ILb1EvEEPS1_, symObjAddr: 0x16B4, symBinAddr: 0x100024924, symSize: 0x34 }
  - { offset: 0xFD53C, size: 0x8, addend: 0x0, symName: __ZNSt3__110unique_ptrI12CARingBufferNS_14default_deleteIS1_EEEaSB8ne190102EOS4_, symObjAddr: 0x16E8, symBinAddr: 0x100024958, symSize: 0x50 }
  - { offset: 0xFD571, size: 0x8, addend: 0x0, symName: __ZNKSt3__110unique_ptrI12CARingBufferNS_14default_deleteIS1_EEEptB8ne190102Ev, symObjAddr: 0x1738, symBinAddr: 0x1000249A8, symSize: 0x28 }
  - { offset: 0xFD597, size: 0x8, addend: 0x0, symName: __ZNSt3__110unique_ptrI12CARingBufferNS_14default_deleteIS1_EEEaSB8ne190102EDn, symObjAddr: 0x1760, symBinAddr: 0x1000249D0, symSize: 0x34 }
  - { offset: 0xFD5C9, size: 0x8, addend: 0x0, symName: '__ZNSt3__18functionIFvvEEC1IZN14BGMPlayThrough20DisableIOProcStreamsER14BGMAudioDevicePFijPK14AudioTimeStampPK15AudioBufferListS9_PSA_S9_PvEbPKcE3$_0vEET_', symObjAddr: 0x1878, symBinAddr: 0x100024AE8, symSize: 0x34 }
  - { offset: 0xFD610, size: 0x8, addend: 0x0, symName: __ZNK14BGMPlayThrough22CheckIOProcsAreStoppedEv, symObjAddr: 0x18AC, symBinAddr: 0x100024B1C, symSize: 0xC4 }
  - { offset: 0xFD649, size: 0x8, addend: 0x0, symName: __ZN14BGMPlayThrough17InputDeviceIOProcEjPK14AudioTimeStampPK15AudioBufferListS2_PS3_S2_Pv, symObjAddr: 0x1970, symBinAddr: 0x100024BE0, symSize: 0x234 }
  - { offset: 0xFD733, size: 0x8, addend: 0x0, symName: __ZN14BGMPlayThrough18OutputDeviceIOProcEjPK14AudioTimeStampPK15AudioBufferListS2_PS3_S2_Pv, symObjAddr: 0x1BA4, symBinAddr: 0x100024E14, symSize: 0x470 }
  - { offset: 0xFD87C, size: 0x8, addend: 0x0, symName: __ZN14BGMPlayThrough16DestroyIOProcIDsEv, symObjAddr: 0x2014, symBinAddr: 0x100025284, symSize: 0x150 }
  - { offset: 0xFD8F7, size: 0x8, addend: 0x0, symName: '__ZZN14BGMPlayThrough16DestroyIOProcIDsEvENK3$_0clER14BGMAudioDevicePKcRPFijPK14AudioTimeStampPK15AudioBufferListS7_PS8_S7_PvE', symObjAddr: 0x2164, symBinAddr: 0x1000253D4, symSize: 0x170 }
  - { offset: 0xFD968, size: 0x8, addend: 0x0, symName: __ZNKSt3__113__atomic_baseIN14BGMPlayThrough7IOStateELb0EEcvS2_B8ne190102Ev, symObjAddr: 0x22D4, symBinAddr: 0x100025544, symSize: 0x28 }
  - { offset: 0xFD98E, size: 0x8, addend: 0x0, symName: __ZNKSt3__113__atomic_baseIN14BGMPlayThrough7IOStateELb0EE4loadB8ne190102ENS_12memory_orderE, symObjAddr: 0x22FC, symBinAddr: 0x10002556C, symSize: 0x2C }
  - { offset: 0xFD9C3, size: 0x8, addend: 0x0, symName: __ZN14BGMPlayThrough10SetDevicesEPK14BGMAudioDeviceS2_, symObjAddr: 0x2328, symBinAddr: 0x100025598, symSize: 0x224 }
  - { offset: 0xFDA3C, size: 0x8, addend: 0x0, symName: __ZN14BGMPlayThrough5StartEv, symObjAddr: 0x254C, symBinAddr: 0x1000257BC, symSize: 0x568 }
  - { offset: 0xFDAAC, size: 0x8, addend: 0x0, symName: __ZN14BGMPlayThrough37ReleaseThreadsWaitingForOutputToStartEv, symObjAddr: 0x2AB4, symBinAddr: 0x100025D24, symSize: 0x78 }
  - { offset: 0xFDB13, size: 0x8, addend: 0x0, symName: __ZNSt3__16atomicIN14BGMPlayThrough7IOStateEEaSB8ne190102ES2_, symObjAddr: 0x2B2C, symBinAddr: 0x100025D9C, symSize: 0x34 }
  - { offset: 0xFDB48, size: 0x8, addend: 0x0, symName: __ZN14BGMPlayThrough26WaitForOutputDeviceToStartEv, symObjAddr: 0x2B60, symBinAddr: 0x100025DD0, symSize: 0x480 }
  - { offset: 0xFDC25, size: 0x8, addend: 0x0, symName: '__ZNSt3__18functionIFvvEEC1IZN14BGMPlayThrough4StopEvE3$_0vEET_', symObjAddr: 0x34C0, symBinAddr: 0x10002670C, symSize: 0x34 }
  - { offset: 0xFDC6C, size: 0x8, addend: 0x0, symName: '__ZNSt3__18functionIFvvEEC1IZN14BGMPlayThrough4StopEvE3$_1vEET_', symObjAddr: 0x34F4, symBinAddr: 0x100026740, symSize: 0x34 }
  - { offset: 0xFDCB2, size: 0x8, addend: 0x0, symName: '__ZNSt3__18functionIFvvEEC1IZN14BGMPlayThrough4StopEvE3$_2vEET_', symObjAddr: 0x3528, symBinAddr: 0x100026774, symSize: 0x34 }
  - { offset: 0xFDCF8, size: 0x8, addend: 0x0, symName: __ZN14BGMPlayThrough10StopIfIdleEv, symObjAddr: 0x355C, symBinAddr: 0x1000267A8, symSize: 0x168 }
  - { offset: 0xFDD31, size: 0x8, addend: 0x0, symName: __ZN14BGMPlayThrough33IsRunningSomewhereOtherThanBGMAppERK14BGMAudioDevice, symObjAddr: 0x36C4, symBinAddr: 0x100026910, symSize: 0xCC }
  - { offset: 0xFDD79, size: 0x8, addend: 0x0, symName: __ZN14BGMPlayThrough17UpdateIOProcStateEPKcR22BGMPlayThroughRTLoggerRNSt3__16atomicINS_7IOStateEEEPFijPK14AudioTimeStampPK15AudioBufferListSB_PSC_SB_PvER14BGMAudioDeviceRS6_, symObjAddr: 0x37E4, symBinAddr: 0x1000269DC, symSize: 0x304 }
  - { offset: 0xFDE54, size: 0x8, addend: 0x0, symName: __ZN7CAMutex5TryerC1ERS_, symObjAddr: 0x3AE8, symBinAddr: 0x100026CE0, symSize: 0x34 }
  - { offset: 0xFDE8D, size: 0x8, addend: 0x0, symName: __ZNK7CAMutex5Tryer7HasLockEv, symObjAddr: 0x3B1C, symBinAddr: 0x100026D14, symSize: 0x1C }
  - { offset: 0xFDEB3, size: 0x8, addend: 0x0, symName: __ZNKSt3__110unique_ptrI12CARingBufferNS_14default_deleteIS1_EEEcvbB8ne190102Ev, symObjAddr: 0x3B38, symBinAddr: 0x100026D30, symSize: 0x30 }
  - { offset: 0xFDED9, size: 0x8, addend: 0x0, symName: __ZN22BGMPlayThroughRTLogger26LogIfRingBufferError_StoreEi, symObjAddr: 0x3B68, symBinAddr: 0x100026D60, symSize: 0x34 }
  - { offset: 0xFDF0E, size: 0x8, addend: 0x0, symName: __ZN7CAMutex5TryerD1Ev, symObjAddr: 0x3B9C, symBinAddr: 0x100026D94, symSize: 0x2C }
  - { offset: 0xFDF38, size: 0x8, addend: 0x0, symName: __ZN14BGMPlayThrough15FillWithSilenceEP15AudioBufferList, symObjAddr: 0x3BC8, symBinAddr: 0x100026DC0, symSize: 0x80 }
  - { offset: 0xFDF7F, size: 0x8, addend: 0x0, symName: __ZN22BGMPlayThroughRTLogger26LogIfRingBufferError_FetchEi, symObjAddr: 0x3C48, symBinAddr: 0x100026E40, symSize: 0x34 }
  - { offset: 0xFDFB4, size: 0x8, addend: 0x0, symName: __ZNSt3__113__atomic_baseIN14BGMPlayThrough7IOStateELb0EE23compare_exchange_strongB8ne190102ERS2_S2_NS_12memory_orderE, symObjAddr: 0x3C7C, symBinAddr: 0x100026E74, symSize: 0x40 }
  - { offset: 0xFE007, size: 0x8, addend: 0x0, symName: __ZN22BGMPlayThroughRTLogger26LogExceptionStoppingIOProcEPKc, symObjAddr: 0x3CBC, symBinAddr: 0x100026EB4, symSize: 0x38 }
  - { offset: 0xFE03C, size: 0x8, addend: 0x0, symName: __ZN22BGMPlayThroughRTLogger26LogExceptionStoppingIOProcEPKci, symObjAddr: 0x3CF4, symBinAddr: 0x100026EEC, symSize: 0x3C }
  - { offset: 0xFE086, size: 0x8, addend: 0x0, symName: __ZN7CAMutex5TryerC2ERS_, symObjAddr: 0x40F8, symBinAddr: 0x100026F28, symSize: 0x58 }
  - { offset: 0xFE0BF, size: 0x8, addend: 0x0, symName: __ZN7CAMutex5TryerD2Ev, symObjAddr: 0x4150, symBinAddr: 0x100026F80, symSize: 0x5C }
  - { offset: 0xFE0E9, size: 0x8, addend: 0x0, symName: '__ZNSt3__18functionIFvvEEC2IZN14BGMPlayThroughD1EvE3$_0vEET_', symObjAddr: 0x4300, symBinAddr: 0x100026FDC, symSize: 0x38 }
  - { offset: 0xFE12F, size: 0x8, addend: 0x0, symName: '__ZNSt3__110__function12__value_funcIFvvEEC1B8ne190102IZN14BGMPlayThroughD1EvE3$_0Li0EEEOT_', symObjAddr: 0x4338, symBinAddr: 0x100027014, symSize: 0x50 }
  - { offset: 0xFE17A, size: 0x8, addend: 0x0, symName: '__ZNSt3__19allocatorIZN14BGMPlayThroughD1EvE3$_0EC1B8ne190102Ev', symObjAddr: 0x4388, symBinAddr: 0x100027064, symSize: 0x2C }
  - { offset: 0xFE1A4, size: 0x8, addend: 0x0, symName: '__ZNSt3__110__function12__value_funcIFvvEEC1B8ne190102IZN14BGMPlayThroughD1EvE3$_0NS_9allocatorIS6_EEEEOT_RKT0_', symObjAddr: 0x43B4, symBinAddr: 0x100027090, symSize: 0x3C }
  - { offset: 0xFE202, size: 0x8, addend: 0x0, symName: '__ZNSt3__19allocatorIZN14BGMPlayThroughD1EvE3$_0EC2B8ne190102Ev', symObjAddr: 0x43F0, symBinAddr: 0x1000270CC, symSize: 0x2C }
  - { offset: 0xFE22C, size: 0x8, addend: 0x0, symName: '__ZNSt3__116__non_trivial_ifILb1ENS_9allocatorIZN14BGMPlayThroughD1EvE3$_0EEEC2B8ne190102Ev', symObjAddr: 0x441C, symBinAddr: 0x1000270F8, symSize: 0x14 }
  - { offset: 0xFE256, size: 0x8, addend: 0x0, symName: '__ZNSt3__110__function12__value_funcIFvvEEC2B8ne190102IZN14BGMPlayThroughD1EvE3$_0NS_9allocatorIS6_EEEEOT_RKT0_', symObjAddr: 0x4430, symBinAddr: 0x10002710C, symSize: 0x94 }
  - { offset: 0xFE304, size: 0x8, addend: 0x0, symName: '__ZNSt3__19allocatorINS_10__function6__funcIZN14BGMPlayThroughD1EvE3$_0NS0_IS4_EEFvvEEEEC1B8ne190102IS4_EERKNS0_IT_EE', symObjAddr: 0x44DC, symBinAddr: 0x1000271B8, symSize: 0x34 }
  - { offset: 0xFE349, size: 0x8, addend: 0x0, symName: '__ZNSt3__19allocatorIZN14BGMPlayThroughD1EvE3$_0EC1B8ne190102INS_10__function6__funcIS2_S3_FvvEEEEERKNS0_IT_EE', symObjAddr: 0x4510, symBinAddr: 0x1000271EC, symSize: 0x34 }
  - { offset: 0xFE388, size: 0x8, addend: 0x0, symName: '__ZNSt3__110__function6__funcIZN14BGMPlayThroughD1EvE3$_0NS_9allocatorIS3_EEFvvEEC1B8ne190102EOS3_OS5_', symObjAddr: 0x4544, symBinAddr: 0x100027220, symSize: 0x3C }
  - { offset: 0xFE3D2, size: 0x8, addend: 0x0, symName: '__ZNSt3__19allocatorINS_10__function6__funcIZN14BGMPlayThroughD1EvE3$_0NS0_IS4_EEFvvEEEEC2B8ne190102IS4_EERKNS0_IT_EE', symObjAddr: 0x4580, symBinAddr: 0x10002725C, symSize: 0x30 }
  - { offset: 0xFE411, size: 0x8, addend: 0x0, symName: '__ZNSt3__116__non_trivial_ifILb1ENS_9allocatorINS_10__function6__funcIZN14BGMPlayThroughD1EvE3$_0NS1_IS5_EEFvvEEEEEEC2B8ne190102Ev', symObjAddr: 0x45B0, symBinAddr: 0x10002728C, symSize: 0x14 }
  - { offset: 0xFE43B, size: 0x8, addend: 0x0, symName: '__ZNSt3__19allocatorIZN14BGMPlayThroughD1EvE3$_0EC2B8ne190102INS_10__function6__funcIS2_S3_FvvEEEEERKNS0_IT_EE', symObjAddr: 0x45C4, symBinAddr: 0x1000272A0, symSize: 0x30 }
  - { offset: 0xFE47A, size: 0x8, addend: 0x0, symName: '__ZNSt3__110__function6__funcIZN14BGMPlayThroughD1EvE3$_0NS_9allocatorIS3_EEFvvEEC2B8ne190102EOS3_OS5_', symObjAddr: 0x45F4, symBinAddr: 0x1000272D0, symSize: 0x80 }
  - { offset: 0xFE4C4, size: 0x8, addend: 0x0, symName: '__ZNSt3__110__function12__alloc_funcIZN14BGMPlayThroughD1EvE3$_0NS_9allocatorIS3_EEFvvEEC1B8ne190102EOS3_OS5_', symObjAddr: 0x4698, symBinAddr: 0x100027350, symSize: 0x3C }
  - { offset: 0xFE50C, size: 0x8, addend: 0x0, symName: '__ZNSt3__110__function6__funcIZN14BGMPlayThroughD1EvE3$_0NS_9allocatorIS3_EEFvvEED1Ev', symObjAddr: 0x46E8, symBinAddr: 0x10002738C, symSize: 0x2C }
  - { offset: 0xFE538, size: 0x8, addend: 0x0, symName: '__ZNSt3__110__function6__funcIZN14BGMPlayThroughD1EvE3$_0NS_9allocatorIS3_EEFvvEED0Ev', symObjAddr: 0x4714, symBinAddr: 0x1000273B8, symSize: 0x30 }
  - { offset: 0xFE564, size: 0x8, addend: 0x0, symName: '__ZNKSt3__110__function6__funcIZN14BGMPlayThroughD1EvE3$_0NS_9allocatorIS3_EEFvvEE7__cloneEv', symObjAddr: 0x4744, symBinAddr: 0x1000273E8, symSize: 0xFC }
  - { offset: 0xFE5B6, size: 0x8, addend: 0x0, symName: '__ZNKSt3__110__function6__funcIZN14BGMPlayThroughD1EvE3$_0NS_9allocatorIS3_EEFvvEE7__cloneEPNS0_6__baseIS6_EE', symObjAddr: 0x4840, symBinAddr: 0x1000274E4, symSize: 0x58 }
  - { offset: 0xFE5EC, size: 0x8, addend: 0x0, symName: '__ZNSt3__110__function6__funcIZN14BGMPlayThroughD1EvE3$_0NS_9allocatorIS3_EEFvvEE7destroyEv', symObjAddr: 0x4898, symBinAddr: 0x10002753C, symSize: 0x28 }
  - { offset: 0xFE612, size: 0x8, addend: 0x0, symName: '__ZNSt3__110__function6__funcIZN14BGMPlayThroughD1EvE3$_0NS_9allocatorIS3_EEFvvEE18destroy_deallocateEv', symObjAddr: 0x48C0, symBinAddr: 0x100027564, symSize: 0x58 }
  - { offset: 0xFE654, size: 0x8, addend: 0x0, symName: '__ZNSt3__110__function6__funcIZN14BGMPlayThroughD1EvE3$_0NS_9allocatorIS3_EEFvvEEclEv', symObjAddr: 0x4918, symBinAddr: 0x1000275BC, symSize: 0x28 }
  - { offset: 0xFE67A, size: 0x8, addend: 0x0, symName: '__ZNKSt3__110__function6__funcIZN14BGMPlayThroughD1EvE3$_0NS_9allocatorIS3_EEFvvEE6targetERKSt9type_info', symObjAddr: 0x4940, symBinAddr: 0x1000275E4, symSize: 0x60 }
  - { offset: 0xFE6B0, size: 0x8, addend: 0x0, symName: '__ZNKSt3__110__function6__funcIZN14BGMPlayThroughD1EvE3$_0NS_9allocatorIS3_EEFvvEE11target_typeEv', symObjAddr: 0x49A0, symBinAddr: 0x100027644, symSize: 0x18 }
  - { offset: 0xFE6D6, size: 0x8, addend: 0x0, symName: '__ZNSt3__110__function12__alloc_funcIZN14BGMPlayThroughD1EvE3$_0NS_9allocatorIS3_EEFvvEEC2B8ne190102EOS3_OS5_', symObjAddr: 0x49D8, symBinAddr: 0x10002765C, symSize: 0x5C }
  - { offset: 0xFE71E, size: 0x8, addend: 0x0, symName: '__ZNSt3__117__compressed_pairIZN14BGMPlayThroughD1EvE3$_0NS_9allocatorIS2_EEEC1B8ne190102IJOS2_EJOS4_EEENS_21piecewise_construct_tENS_5tupleIJDpT_EEENSA_IJDpT0_EEE', symObjAddr: 0x4A8C, symBinAddr: 0x100027710, symSize: 0x3C }
  - { offset: 0xFE78F, size: 0x8, addend: 0x0, symName: '__ZNSt3__15tupleIJOZN14BGMPlayThroughD1EvE3$_0EEC1B8ne190102IJS2_ELi0EEEDpOT_', symObjAddr: 0x4AC8, symBinAddr: 0x10002774C, symSize: 0x34 }
  - { offset: 0xFE7DD, size: 0x8, addend: 0x0, symName: '__ZNSt3__15tupleIJOZN14BGMPlayThroughD1EvE3$_0EEC2B8ne190102IJS2_ELi0EEEDpOT_', symObjAddr: 0x4AFC, symBinAddr: 0x100027780, symSize: 0x34 }
  - { offset: 0xFE82B, size: 0x8, addend: 0x0, symName: '__ZNSt3__112__tuple_implINS_15__tuple_indicesIJLm0EEEEJOZN14BGMPlayThroughD1EvE3$_0EEC1B8ne190102IJLm0EEJS5_EJEJEJS4_EEENS1_IJXspT_EEEENS_13__tuple_typesIJDpT0_EEENS1_IJXspT1_EEEENS9_IJDpT2_EEEDpOT3_', symObjAddr: 0x4B30, symBinAddr: 0x1000277B4, symSize: 0x34 }
  - { offset: 0xFE8C9, size: 0x8, addend: 0x0, symName: '__ZNSt3__112__tuple_implINS_15__tuple_indicesIJLm0EEEEJOZN14BGMPlayThroughD1EvE3$_0EEC2B8ne190102IJLm0EEJS5_EJEJEJS4_EEENS1_IJXspT_EEEENS_13__tuple_typesIJDpT0_EEENS1_IJXspT1_EEEENS9_IJDpT2_EEEDpOT3_', symObjAddr: 0x4B64, symBinAddr: 0x1000277E8, symSize: 0x34 }
  - { offset: 0xFE967, size: 0x8, addend: 0x0, symName: '__ZNSt3__112__tuple_leafILm0EOZN14BGMPlayThroughD1EvE3$_0Lb0EEC2B8ne190102IS2_Li0EEEOT_', symObjAddr: 0x4B98, symBinAddr: 0x10002781C, symSize: 0x20 }
  - { offset: 0xFE9B2, size: 0x8, addend: 0x0, symName: '__ZNSt3__15tupleIJONS_9allocatorIZN14BGMPlayThroughD1EvE3$_0EEEEC1B8ne190102IJS4_ELi0EEEDpOT_', symObjAddr: 0x4BB8, symBinAddr: 0x10002783C, symSize: 0x34 }
